 pkcs11

 Timestamp is 59a95af3 (Fri Sep  1 13:04:51 2017)

 Preferred load address is 0000000180000000

 Start         Length     Name                   Class
 0001:00000000 00052450H .text$mn                CODE
 0001:00052450 00000020H .text$mn$00             CODE
 0001:00052470 0000ea80H .text$x                 CODE
 0001:00060ef0 00000011H .text$yd                CODE
 0002:00000000 00000298H .idata$5                DATA
 0002:00000298 00000010H .00cfg                  DATA
 0002:000002a8 00000008H .CRT$XCA                DATA
 0002:000002b0 00000008H .CRT$XCU                DATA
 0002:000002b8 00000008H .CRT$XCZ                DATA
 0002:000002c0 00000008H .CRT$XIA                DATA
 0002:000002c8 00000020H .CRT$XIC                DATA
 0002:000002e8 00000008H .CRT$XIZ                DATA
 0002:000002f0 00000008H .CRT$XLA                DATA
 0002:000002f8 00000008H .CRT$XLZ                DATA
 0002:00000300 00000008H .CRT$XPA                DATA
 0002:00000308 00000010H .CRT$XPX                DATA
 0002:00000318 00000008H .CRT$XPXA               DATA
 0002:00000320 00000008H .CRT$XPZ                DATA
 0002:00000328 00000008H .CRT$XTA                DATA
 0002:00000330 00000010H .CRT$XTZ                DATA
 0002:00000340 0000fc88H .rdata                  DATA
 0002:0000ffc8 00000028H .rdata$T                DATA
 0002:0000fff0 00000404H .rdata$r                DATA
 0002:000103f4 00000494H .rdata$zzzdbg           DATA
 0002:00010888 00000008H .rtc$IAA                DATA
 0002:00010890 00000008H .rtc$IZZ                DATA
 0002:00010898 00000008H .rtc$TAA                DATA
 0002:000108a0 00000010H .rtc$TZZ                DATA
 0002:000108b0 0000d728H .xdata                  DATA
 0002:0001dfd8 000002ccH .xdata$x                DATA
 0002:0001e2a4 00000020H .didat$2                DATA
 0002:0001e2c4 00000024H .didat$3                DATA
 0002:0001e2e8 00000268H .didat$4                DATA
 0002:0001e550 00001368H .didat$6                DATA
 0002:0001f8b8 00000268H .didat$7                DATA
 0002:0001fb20 00000050H .edata                  DATA
 0002:0001fb70 00000014H .idata$2                DATA
 0002:0001fb84 00000014H .idata$3                DATA
 0002:0001fb98 00000298H .idata$4                DATA
 0002:0001fe30 000005fcH .idata$6                DATA
 0003:00000000 00000980H .data                   DATA
 0003:00000980 000001a0H .data$r                 DATA
 0003:00000b20 00000270H .didat$5                DATA
 0003:00000d90 0000129cH .bss                    DATA
 0004:00000000 00003dbcH .pdata                  DATA
 0005:00000000 00000084H .gfids$x                DATA
 0005:00000084 00000060H .gfids$y                DATA
 0006:00000000 00000004H .tls                    DATA
 0006:00000004 00000004H .tls$                   DATA
 0006:00000008 00000001H .tls$ZZZ                DATA
 0007:00000000 00000060H .rsrc$01                DATA
 0007:00000060 00000180H .rsrc$02                DATA

  Address         Publics by Value              Rva+Base               Lib:Object

 0000:00000000       __guard_iat_table          0000000000000000     <absolute>
 0000:00000000       __guard_iat_count          0000000000000000     <absolute>
 0000:00000000       __dynamic_value_reloc_table 0000000000000000     <absolute>
 0000:00000000       __guard_fids_count         0000000000000000     <absolute>
 0000:00000000       __guard_longjmp_table      0000000000000000     <absolute>
 0000:00000000       __guard_longjmp_count      0000000000000000     <absolute>
 0000:00000000       ___safe_se_handler_table   0000000000000000     <absolute>
 0000:00000000       ___safe_se_handler_count   0000000000000000     <absolute>
 0000:00000000       __guard_fids_table         0000000000000000     <absolute>
 0000:00000100       __guard_flags              0000000000000100     <absolute>
 0000:00000000       __ImageBase                0000000180000000     <linker-defined>
 0001:00000000       ??1HandleScope@Nan@@QEAA@XZ 0000000180001000 f i main.obj
 0001:00000000       ??1EscapableHandleScope@Nan@@QEAA@XZ 0000000180001000 f i async.obj
 0001:00000010       ?init@@YAXV?$Local@VObject@v8@@@v8@@@Z 0000000180001010 f   main.obj
 0001:000000c0       __local_stdio_printf_options 00000001800010c0 f i dl.obj
 0001:000000d0       sprintf                    00000001800010d0 f i dl.obj
 0001:00000200       dlopen                     0000000180001200 f   dl.obj
 0001:000002b0       ?ForceSet@Nan@@YA?AV?$Maybe@_N@v8@@V?$Local@VObject@v8@@@3@V?$Local@VValue@v8@@@3@1W4PropertyAttribute@3@@Z 00000001800012b0 f i const.obj
 0001:00000340       ?declare_attributes@@YAXV?$Local@VObject@v8@@@v8@@@Z 0000000180001340 f   const.obj
 0001:00002d50       ?declare_flags@@YAXV?$Local@VObject@v8@@@v8@@@Z 0000000180003d50 f   const.obj
 0001:00003b30       ?declare_objects@@YAXV?$Local@VObject@v8@@@v8@@@Z 0000000180004b30 f   const.obj
 0001:00003f70       ?declare_ket_types@@YAXV?$Local@VObject@v8@@@v8@@@Z 0000000180004f70 f   const.obj
 0001:00005160       ?declare_mechanisms@@YAXV?$Local@VObject@v8@@@v8@@@Z 0000000180006160 f   const.obj
 0001:0000f520       ?declare_certificates@@YAXV?$Local@VObject@v8@@@v8@@@Z 0000000180010520 f   const.obj
 0001:0000f690       ?declare_mgf@@YAXV?$Local@VObject@v8@@@v8@@@Z 0000000180010690 f   const.obj
 0001:0000f8d0       ?declare_kdf@@YAXV?$Local@VObject@v8@@@v8@@@Z 00000001800108d0 f   const.obj
 0001:0000fcb0       ?declare_params@@YAXV?$Local@VObject@v8@@@v8@@@Z 0000000180010cb0 f   const.obj
 0001:0000ff50       ?to_string@std@@YA?AV?$basic_string@DU?$char_traits@D@std@@V?$allocator@D@2@@1@H@Z 0000000180010f50 f i error.obj
 0001:0000ff70       ?_Get_deleter@_Ref_count_base@std@@UEBAPEAXAEBVtype_info@@@Z 0000000180010f70 f i error.obj
 0001:0000ff80       ??_E_Ref_count_base@std@@UEAAPEAXI@Z 0000000180010f80 f i * CIL library *:* CIL module *
 0001:0000ff80       ??_G_Ref_count_base@std@@UEAAPEAXI@Z 0000000180010f80 f i error.obj
 0001:0000ffb0       ?ToString@Error@@QEAA?AV?$shared_ptr@V?$basic_string@DU?$char_traits@D@std@@V?$allocator@D@2@@std@@@std@@XZ 0000000180010fb0 f   error.obj
 0001:000100f0       ?Stack@Error@@IEAA?AV?$shared_ptr@V?$basic_string@DU?$char_traits@D@std@@V?$allocator@D@2@@std@@@std@@XZ 00000001800110f0 f   error.obj
 0001:00010480       ??1?$shared_ptr@UCK_TOKEN_INFO@@@std@@QEAA@XZ 0000000180011480 f i pkcs11.obj
 0001:00010480       ??1?$shared_ptr@V?$basic_string@DU?$char_traits@D@std@@V?$allocator@D@2@@std@@@std@@QEAA@XZ 0000000180011480 f i error.obj
 0001:00010480       ??1?$shared_ptr@VError@@@std@@QEAA@XZ 0000000180011480 f i template.obj
 0001:00010480       ??1?$shared_ptr@VMechanism@@@std@@QEAA@XZ 0000000180011480 f i pkcs11.obj
 0001:00010480       ??1?$shared_ptr@UCK_MECHANISM_INFO@@@std@@QEAA@XZ 0000000180011480 f i pkcs11.obj
 0001:00010480       ??1?$shared_ptr@VPKCS11@@@std@@QEAA@XZ 0000000180011480 f i node.obj
 0001:00010480       ??1?$shared_ptr@UKEY_PAIR@@@std@@QEAA@XZ 0000000180011480 f i pkcs11.obj
 0001:00010480       ??1?$shared_ptr@UCK_INFO@@@std@@QEAA@XZ 0000000180011480 f i pkcs11.obj
 0001:00010480       ??1?$shared_ptr@UCK_ATTRIBUTE@@@std@@QEAA@XZ 0000000180011480 f i template.obj
 0001:00010480       ??1?$shared_ptr@UCK_SLOT_INFO@@@std@@QEAA@XZ 0000000180011480 f i pkcs11.obj
 0001:00010480       ??1?$shared_ptr@VAttributes@@@std@@QEAA@XZ 0000000180011480 f i pkcs11.obj
 0001:00010480       ??1?$shared_ptr@UCK_SESSION_INFO@@@std@@QEAA@XZ 0000000180011480 f i pkcs11.obj
 0001:000104f0       ??1?$basic_string@DU?$char_traits@D@std@@V?$allocator@D@2@@std@@QEAA@XZ 00000001800114f0 f i error.obj
 0001:00010580       ??0?$basic_string@DU?$char_traits@D@std@@V?$allocator@D@2@@std@@QEAA@PEBD@Z 0000000180011580 f i error.obj
 0001:000105c0       ?_Tidy@?$basic_string@DU?$char_traits@D@std@@V?$allocator@D@2@@std@@QEAAX_N_K@Z 00000001800115c0 f i error.obj
 0001:00010670       ?assign@?$basic_string@DU?$char_traits@D@std@@V?$allocator@D@2@@std@@QEAAAEAV12@PEBD_K@Z 0000000180011670 f i error.obj
 0001:000107a0       ?assign@?$basic_string@DU?$char_traits@D@std@@V?$allocator@D@2@@std@@QEAAAEAV12@AEBV12@_K1@Z 00000001800117a0 f i error.obj
 0001:000108d0       ?append@?$basic_string@DU?$char_traits@D@std@@V?$allocator@D@2@@std@@QEAAAEAV12@AEBV12@_K1@Z 00000001800118d0 f i error.obj
 0001:00010a00       ?erase@?$basic_string@DU?$char_traits@D@std@@V?$allocator@D@2@@std@@QEAAAEAV12@_K0@Z 0000000180011a00 f i error.obj
 0001:00010aa0       ?_Copy@?$basic_string@DU?$char_traits@D@std@@V?$allocator@D@2@@std@@QEAAX_K0@Z 0000000180011aa0 f i error.obj
 0001:00010c20       ??$_Integral_to_string@DH@std@@YA?AV?$basic_string@DU?$char_traits@D@std@@V?$allocator@D@2@@0@H@Z 0000000180011c20 f i error.obj
 0001:00010d00       ??$?0V?$basic_string@DU?$char_traits@D@std@@V?$allocator@D@2@@std@@@?$shared_ptr@V?$basic_string@DU?$char_traits@D@std@@V?$allocator@D@2@@std@@@std@@QEAA@PEAV?$basic_string@DU?$char_traits@D@std@@V?$allocator@D@2@@1@@Z 0000000180011d00 f i error.obj
 0001:00010d60       ?_Reset0@?$_Ptr_base@UCK_MECHANISM_INFO@@@std@@QEAAXPEAUCK_MECHANISM_INFO@@PEAV_Ref_count_base@2@@Z 0000000180011d60 f i pkcs11.obj
 0001:00010d60       ?_Reset0@?$_Ptr_base@UCK_INFO@@@std@@QEAAXPEAUCK_INFO@@PEAV_Ref_count_base@2@@Z 0000000180011d60 f i pkcs11.obj
 0001:00010d60       ?_Reset0@?$_Ptr_base@VError@@@std@@QEAAXPEAVError@@PEAV_Ref_count_base@2@@Z 0000000180011d60 f i template.obj
 0001:00010d60       ?_Reset0@?$_Ptr_base@VMechanism@@@std@@QEAAXPEAVMechanism@@PEAV_Ref_count_base@2@@Z 0000000180011d60 f i pkcs11.obj
 0001:00010d60       ?_Reset0@?$_Ptr_base@UKEY_PAIR@@@std@@QEAAXPEAUKEY_PAIR@@PEAV_Ref_count_base@2@@Z 0000000180011d60 f i pkcs11.obj
 0001:00010d60       ?_Reset0@?$_Ptr_base@UCK_TOKEN_INFO@@@std@@QEAAXPEAUCK_TOKEN_INFO@@PEAV_Ref_count_base@2@@Z 0000000180011d60 f i pkcs11.obj
 0001:00010d60       ?_Reset0@?$_Ptr_base@VAttributes@@@std@@QEAAXPEAVAttributes@@PEAV_Ref_count_base@2@@Z 0000000180011d60 f i pkcs11.obj
 0001:00010d60       ?_Reset0@?$_Ptr_base@UCK_SLOT_INFO@@@std@@QEAAXPEAUCK_SLOT_INFO@@PEAV_Ref_count_base@2@@Z 0000000180011d60 f i pkcs11.obj
 0001:00010d60       ?_Reset0@?$_Ptr_base@VPKCS11@@@std@@QEAAXPEAVPKCS11@@PEAV_Ref_count_base@2@@Z 0000000180011d60 f i node.obj
 0001:00010d60       ?_Reset0@?$_Ptr_base@UCK_SESSION_INFO@@@std@@QEAAXPEAUCK_SESSION_INFO@@PEAV_Ref_count_base@2@@Z 0000000180011d60 f i pkcs11.obj
 0001:00010d60       ?_Reset0@?$_Ptr_base@V?$basic_string@DU?$char_traits@D@std@@V?$allocator@D@2@@std@@@std@@QEAAXPEAV?$basic_string@DU?$char_traits@D@std@@V?$allocator@D@2@@2@PEAV_Ref_count_base@2@@Z 0000000180011d60 f i error.obj
 0001:00010e10       ?_Delete_this@?$_Ref_count@VMechanism@@@std@@EEAAXXZ 0000000180011e10 f i node.obj
 0001:00010e10       ?_Delete_this@?$_Ref_count@VAttributes@@@std@@EEAAXXZ 0000000180011e10 f i pkcs11.obj
 0001:00010e10       ?_Delete_this@?$_Ref_count@UCK_ATTRIBUTE@@@std@@EEAAXXZ 0000000180011e10 f i template.obj
 0001:00010e10       ?_Delete_this@?$_Ref_count_obj@UCK_MECHANISM_INFO@@@std@@EEAAXXZ 0000000180011e10 f i pkcs11.obj
 0001:00010e10       ?_Delete_this@?$_Ref_count@V?$basic_string@DU?$char_traits@D@std@@V?$allocator@D@2@@std@@@std@@EEAAXXZ 0000000180011e10 f i error.obj
 0001:00010e10       ?_Delete_this@?$_Ref_count_obj@UKEY_PAIR@@@std@@EEAAXXZ 0000000180011e10 f i pkcs11.obj
 0001:00010e10       ?_Delete_this@?$_Ref_count_obj@UCK_TOKEN_INFO@@@std@@EEAAXXZ 0000000180011e10 f i pkcs11.obj
 0001:00010e10       ?_Delete_this@?$_Ref_count_obj@UCK_SLOT_INFO@@@std@@EEAAXXZ 0000000180011e10 f i pkcs11.obj
 0001:00010e10       ?_Delete_this@?$_Ref_count@VError@@@std@@EEAAXXZ 0000000180011e10 f i template.obj
 0001:00010e10       ?_Delete_this@?$_Ref_count_obj@UCK_INFO@@@std@@EEAAXXZ 0000000180011e10 f i pkcs11.obj
 0001:00010e10       ?_Delete_this@?$_Ref_count_obj@UCK_SESSION_INFO@@@std@@EEAAXXZ 0000000180011e10 f i pkcs11.obj
 0001:00010e10       ?_Delete_this@?$_Ref_count@VPKCS11@@@std@@EEAAXXZ 0000000180011e10 f i node.obj
 0001:00010e30       ?_Destroy@?$_Ref_count@V?$basic_string@DU?$char_traits@D@std@@V?$allocator@D@2@@std@@@std@@EEAAXXZ 0000000180011e30 f i error.obj
 0001:00010e60       ??_G?$_Ref_count@VMechanism@@@std@@UEAAPEAXI@Z 0000000180011e60 f i node.obj
 0001:00010e60       ??_G?$_Ref_count@VAttributes@@@std@@UEAAPEAXI@Z 0000000180011e60 f i pkcs11.obj
 0001:00010e60       ??_G?$_Ref_count@V?$basic_string@DU?$char_traits@D@std@@V?$allocator@D@2@@std@@@std@@UEAAPEAXI@Z 0000000180011e60 f i error.obj
 0001:00010e60       ??_E?$_Ref_count@VMechanism@@@std@@UEAAPEAXI@Z 0000000180011e60 f i * CIL library *:* CIL module *
 0001:00010e60       ??_G?$_Ref_count@UCK_ATTRIBUTE@@@std@@UEAAPEAXI@Z 0000000180011e60 f i template.obj
 0001:00010e60       ??_G?$_Ref_count@VError@@@std@@UEAAPEAXI@Z 0000000180011e60 f i template.obj
 0001:00010e60       ??_E?$_Ref_count_obj@UKEY_PAIR@@@std@@UEAAPEAXI@Z 0000000180011e60 f i * CIL library *:* CIL module *
 0001:00010e60       ??_G?$_Ref_count@VPKCS11@@@std@@UEAAPEAXI@Z 0000000180011e60 f i node.obj
 0001:00010e60       ??_E?$_Ref_count@VPKCS11@@@std@@UEAAPEAXI@Z 0000000180011e60 f i * CIL library *:* CIL module *
 0001:00010e60       ??_E?$_Ref_count@VAttributes@@@std@@UEAAPEAXI@Z 0000000180011e60 f i * CIL library *:* CIL module *
 0001:00010e60       ??_E?$_Ref_count@VError@@@std@@UEAAPEAXI@Z 0000000180011e60 f i * CIL library *:* CIL module *
 0001:00010e60       ??_E?$_Ref_count@V?$basic_string@DU?$char_traits@D@std@@V?$allocator@D@2@@std@@@std@@UEAAPEAXI@Z 0000000180011e60 f i * CIL library *:* CIL module *
 0001:00010e60       ??_E?$_Ref_count@UCK_ATTRIBUTE@@@std@@UEAAPEAXI@Z 0000000180011e60 f i * CIL library *:* CIL module *
 0001:00010e60       ??_G?$_Ref_count_obj@UKEY_PAIR@@@std@@UEAAPEAXI@Z 0000000180011e60 f i pkcs11.obj
 0001:00010e90       ?convert@?$ToFactory@VNumber@v8@@@imp@Nan@@SA?AV?$MaybeLocal@VNumber@v8@@@v8@@V?$Local@VValue@v8@@@5@@Z 0000000180011e90 f i template.obj
 0001:00010f20       ??0Error@@QEAA@PEBDV?$shared_ptr@VError@@@std@@0H@Z 0000000180011f20 f i template.obj
 0001:00011100       ??1Error@@QEAA@XZ          0000000180012100 f i template.obj
 0001:00011b60       ?New@Attributes@@UEAAPEAUTEMPLATE@@XZ 0000000180012b60 f   template.obj
 0001:00011bf0       ?Push@Attributes@@QEAAXPEAUCK_ATTRIBUTE@@@Z 0000000180012bf0 f   template.obj
 0001:00011d40       ?FromV8@Attributes@@UEAAXV?$Local@VValue@v8@@@v8@@@Z 0000000180012d40 f   template.obj
 0001:00011fe0       ?ToV8@Attributes@@UEAA?AV?$Local@VObject@v8@@@v8@@XZ 0000000180012fe0 f   template.obj
 0001:000120a0       ??0?$shared_ptr@VError@@@std@@QEAA@AEBV01@@Z 00000001800130a0 f i template.obj
 0001:000120e0       ?_Destroy@?$_Ref_count@UCK_ATTRIBUTE@@@std@@EEAAXXZ 00000001800130e0 f i template.obj
 0001:000120e0       ?_Destroy@?$_Ref_count@VPKCS11@@@std@@EEAAXXZ 00000001800130e0 f i node.obj
 0001:000120f0       ?_Destroy@?$_Ref_count@VError@@@std@@EEAAXXZ 00000001800130f0 f i template.obj
 0001:00012120       ?FromV8@Mechanism@@UEAAXV?$Local@VValue@v8@@@v8@@@Z 0000000180013120 f   mech.obj
 0001:00012b50       ?ToV8@Mechanism@@UEAA?AV?$Local@VObject@v8@@@v8@@XZ 0000000180013b50 f   mech.obj
 0001:00012d20       ?New@Mechanism@@UEAAPEAUCK_MECHANISM@@XZ 0000000180013d20 f   mech.obj
 0001:00012d60       ?ToV8@?$V8Converter@UCK_ECDH1_DERIVE_PARAMS@@@@UEAA?AV?$Local@VObject@v8@@@v8@@XZ 0000000180013d60 f i mech.obj
 0001:00012e60       ?ToV8@?$V8Converter@UCK_RSA_PKCS_PSS_PARAMS@@@@UEAA?AV?$Local@VObject@v8@@@v8@@XZ 0000000180013e60 f i mech.obj
 0001:00012f60       ?ToV8@?$V8Converter@UCK_RSA_PKCS_OAEP_PARAMS@@@@UEAA?AV?$Local@VObject@v8@@@v8@@XZ 0000000180013f60 f i mech.obj
 0001:00013060       ?ToV8@?$V8Converter@UCK_AES_GCM_PARAMS@@@@UEAA?AV?$Local@VObject@v8@@@v8@@XZ 0000000180014060 f i mech.obj
 0001:00013160       ?ToV8@?$V8Converter@UCK_AES_CCM_PARAMS@@@@UEAA?AV?$Local@VObject@v8@@@v8@@XZ 0000000180014160 f i mech.obj
 0001:00013260       ?check_param_buffer@@YA_NV?$Local@VObject@v8@@@v8@@PEBD@Z 0000000180014260 f   param.obj
 0001:000132f0       ?check_param_number@@YA_NV?$Local@VObject@v8@@@v8@@PEBD@Z 00000001800142f0 f   param.obj
 0001:00013380       ?check_param_empty@@YA_NV?$Local@VObject@v8@@@v8@@PEBD@Z 0000000180014380 f   param.obj
 0001:00013460       ?FromV8@ParamAesCCM@@UEAAXV?$Local@VValue@v8@@@v8@@@Z 0000000180014460 f   param_aes.obj
 0001:00013e50       ?New@ParamAesCCM@@UEAAPEAUCK_AES_CCM_PARAMS@@XZ 0000000180014e50 f   param_aes.obj
 0001:00013ea0       ?FromV8@ParamAesGCM@@UEAAXV?$Local@VValue@v8@@@v8@@@Z 0000000180014ea0 f   param_aes.obj
 0001:00014880       ?New@ParamAesGCM@@UEAAPEAUCK_AES_GCM_PARAMS@@XZ 0000000180015880 f   param_aes.obj
 0001:000148d0       ?FromV8@ParamRsaOAEP@@UEAAXV?$Local@VValue@v8@@@v8@@@Z 00000001800158d0 f   param_rsa.obj
 0001:000151f0       ?New@ParamRsaOAEP@@UEAAPEAUCK_RSA_PKCS_OAEP_PARAMS@@XZ 00000001800161f0 f   param_rsa.obj
 0001:00015230       ?FromV8@ParamRsaPSS@@UEAAXV?$Local@VValue@v8@@@v8@@@Z 0000000180016230 f   param_rsa.obj
 0001:000158e0       ?New@ParamRsaPSS@@UEAAPEAUCK_RSA_PKCS_PSS_PARAMS@@XZ 00000001800168e0 f   param_rsa.obj
 0001:00015910       ?FromV8@ParamEcdh1@@UEAAXV?$Local@VValue@v8@@@v8@@@Z 0000000180016910 f   param_ecdh.obj
 0001:00016110       ?New@ParamEcdh1@@UEAAPEAUCK_ECDH1_DERIVE_PARAMS@@XZ 0000000180017110 f   param_ecdh.obj
 0001:00016160       ?to_string@std@@YA?AV?$basic_string@DU?$char_traits@D@std@@V?$allocator@D@2@@1@I@Z 0000000180017160 f i pkcs11.obj
 0001:00019560       ?Load@PKCS11@@QEAAXV?$shared_ptr@V?$basic_string@DU?$char_traits@D@std@@V?$allocator@D@2@@std@@@std@@@Z 000000018001a560 f   pkcs11.obj
 0001:00019980       ?C_Initialize@PKCS11@@QEAAXXZ 000000018001a980 f   pkcs11.obj
 0001:00019ae0       ?C_Finalize@PKCS11@@QEAAXXZ 000000018001aae0 f   pkcs11.obj
 0001:00019c40       ?C_GetInfo@PKCS11@@QEAA?AV?$shared_ptr@UCK_INFO@@@std@@XZ 000000018001ac40 f   pkcs11.obj
 0001:00019dc0       ?C_GetSlotList@PKCS11@@QEAA?AV?$vector@KV?$allocator@K@std@@@std@@E@Z 000000018001adc0 f   pkcs11.obj
 0001:0001a110       ?C_GetSlotInfo@PKCS11@@QEAA?AV?$shared_ptr@UCK_SLOT_INFO@@@std@@K@Z 000000018001b110 f   pkcs11.obj
 0001:0001a290       ?C_GetTokenInfo@PKCS11@@QEAA?AV?$shared_ptr@UCK_TOKEN_INFO@@@std@@K@Z 000000018001b290 f   pkcs11.obj
 0001:0001a410       ?C_GetMechanismList@PKCS11@@QEAA?AV?$vector@KV?$allocator@K@std@@@std@@K@Z 000000018001b410 f   pkcs11.obj
 0001:0001a760       ?C_GetMechanismInfo@PKCS11@@QEAA?AV?$shared_ptr@UCK_MECHANISM_INFO@@@std@@KK@Z 000000018001b760 f   pkcs11.obj
 0001:0001a8f0       ?C_InitToken@PKCS11@@QEAA?AV?$shared_ptr@V?$basic_string@DU?$char_traits@D@std@@V?$allocator@D@2@@std@@@std@@KV23@0@Z 000000018001b8f0 f   pkcs11.obj
 0001:0001aae0       ?C_InitPIN@PKCS11@@QEAAXKV?$shared_ptr@V?$basic_string@DU?$char_traits@D@std@@V?$allocator@D@2@@std@@@std@@@Z 000000018001bae0 f   pkcs11.obj
 0001:0001ac70       ?C_SetPIN@PKCS11@@QEAAXKV?$shared_ptr@V?$basic_string@DU?$char_traits@D@std@@V?$allocator@D@2@@std@@@std@@0@Z 000000018001bc70 f   pkcs11.obj
 0001:0001ae30       ?C_OpenSession@PKCS11@@QEAAKKK@Z 000000018001be30 f   pkcs11.obj
 0001:0001afb0       ?C_CloseSession@PKCS11@@QEAAXK@Z 000000018001bfb0 f   pkcs11.obj
 0001:0001b110       ?C_CloseAllSessions@PKCS11@@QEAAXK@Z 000000018001c110 f   pkcs11.obj
 0001:0001b270       ?C_GetSessionInfo@PKCS11@@QEAA?AV?$shared_ptr@UCK_SESSION_INFO@@@std@@K@Z 000000018001c270 f   pkcs11.obj
 0001:0001b3f0       ?C_Login@PKCS11@@QEAAXKKV?$shared_ptr@V?$basic_string@DU?$char_traits@D@std@@V?$allocator@D@2@@std@@@std@@@Z 000000018001c3f0 f   pkcs11.obj
 0001:0001b580       ?C_Logout@PKCS11@@QEAAXK@Z 000000018001c580 f   pkcs11.obj
 0001:0001b6e0       ?C_FindObjectsInit@PKCS11@@QEAAXKV?$shared_ptr@VAttributes@@@std@@@Z 000000018001c6e0 f   pkcs11.obj
 0001:0001b860       ?C_FindObjectsInit@PKCS11@@QEAAXK@Z 000000018001c860 f   pkcs11.obj
 0001:0001b920       ?C_FindObjects@PKCS11@@QEAAKK@Z 000000018001c920 f   pkcs11.obj
 0001:0001baa0       ?C_FindObjectsFinal@PKCS11@@QEAAXK@Z 000000018001caa0 f   pkcs11.obj
 0001:0001bc00       ?C_GetAttributeValue@PKCS11@@QEAA?AV?$shared_ptr@VAttributes@@@std@@KKV23@@Z 000000018001cc00 f   pkcs11.obj
 0001:0001bf10       ?C_SetAttributeValue@PKCS11@@QEAAXKKV?$shared_ptr@VAttributes@@@std@@@Z 000000018001cf10 f   pkcs11.obj
 0001:0001c090       ?C_CreateObject@PKCS11@@QEAAKKV?$shared_ptr@VAttributes@@@std@@@Z 000000018001d090 f   pkcs11.obj
 0001:0001c220       ?C_CopyObject@PKCS11@@QEAAKKKV?$shared_ptr@VAttributes@@@std@@@Z 000000018001d220 f   pkcs11.obj
 0001:0001c3b0       ?C_DestroyObject@PKCS11@@QEAAXKK@Z 000000018001d3b0 f   pkcs11.obj
 0001:0001c510       ?C_GetObjectSize@PKCS11@@QEAAKKK@Z 000000018001d510 f   pkcs11.obj
 0001:0001cd80       ?C_EncryptInit@PKCS11@@QEAAXKV?$shared_ptr@VMechanism@@@std@@K@Z 000000018001dd80 f   pkcs11.obj
 0001:0001ce50       ?C_Encrypt@PKCS11@@QEAA?AV?$shared_ptr@V?$basic_string@DU?$char_traits@D@std@@V?$allocator@D@2@@std@@@std@@KV23@0@Z 000000018001de50 f   pkcs11.obj
 0001:0001cfb0       ?C_EncryptUpdate@PKCS11@@QEAA?AV?$shared_ptr@V?$basic_string@DU?$char_traits@D@std@@V?$allocator@D@2@@std@@@std@@KV23@0@Z 000000018001dfb0 f   pkcs11.obj
 0001:0001d110       ?C_EncryptFinal@PKCS11@@QEAA?AV?$shared_ptr@V?$basic_string@DU?$char_traits@D@std@@V?$allocator@D@2@@std@@@std@@KV23@@Z 000000018001e110 f   pkcs11.obj
 0001:0001d1f0       ?C_DecryptInit@PKCS11@@QEAAXKV?$shared_ptr@VMechanism@@@std@@K@Z 000000018001e1f0 f   pkcs11.obj
 0001:0001d2c0       ?C_Decrypt@PKCS11@@QEAA?AV?$shared_ptr@V?$basic_string@DU?$char_traits@D@std@@V?$allocator@D@2@@std@@@std@@KV23@0@Z 000000018001e2c0 f   pkcs11.obj
 0001:0001d420       ?C_DecryptUpdate@PKCS11@@QEAA?AV?$shared_ptr@V?$basic_string@DU?$char_traits@D@std@@V?$allocator@D@2@@std@@@std@@KV23@0@Z 000000018001e420 f   pkcs11.obj
 0001:0001d580       ?C_DecryptFinal@PKCS11@@QEAA?AV?$shared_ptr@V?$basic_string@DU?$char_traits@D@std@@V?$allocator@D@2@@std@@@std@@KV23@@Z 000000018001e580 f   pkcs11.obj
 0001:0001d660       ?C_DigestInit@PKCS11@@QEAAXKV?$shared_ptr@VMechanism@@@std@@@Z 000000018001e660 f   pkcs11.obj
 0001:0001d7e0       ?C_Digest@PKCS11@@QEAA?AV?$shared_ptr@V?$basic_string@DU?$char_traits@D@std@@V?$allocator@D@2@@std@@@std@@KV23@0@Z 000000018001e7e0 f   pkcs11.obj
 0001:0001d940       ?C_DigestUpdate@PKCS11@@QEAAXKV?$shared_ptr@V?$basic_string@DU?$char_traits@D@std@@V?$allocator@D@2@@std@@@std@@@Z 000000018001e940 f   pkcs11.obj
 0001:0001da00       ?C_DigestFinal@PKCS11@@QEAA?AV?$shared_ptr@V?$basic_string@DU?$char_traits@D@std@@V?$allocator@D@2@@std@@@std@@KV23@@Z 000000018001ea00 f   pkcs11.obj
 0001:0001dae0       ?C_DigestKey@PKCS11@@QEAAXKK@Z 000000018001eae0 f   pkcs11.obj
 0001:0001dc40       ?C_SignInit@PKCS11@@QEAAXKV?$shared_ptr@VMechanism@@@std@@K@Z 000000018001ec40 f   pkcs11.obj
 0001:0001dd10       ?C_Sign@PKCS11@@QEAA?AV?$shared_ptr@V?$basic_string@DU?$char_traits@D@std@@V?$allocator@D@2@@std@@@std@@KV23@0@Z 000000018001ed10 f   pkcs11.obj
 0001:0001de70       ?C_SignUpdate@PKCS11@@QEAAXKV?$shared_ptr@V?$basic_string@DU?$char_traits@D@std@@V?$allocator@D@2@@std@@@std@@@Z 000000018001ee70 f   pkcs11.obj
 0001:0001df30       ?C_SignFinal@PKCS11@@QEAA?AV?$shared_ptr@V?$basic_string@DU?$char_traits@D@std@@V?$allocator@D@2@@std@@@std@@KV23@@Z 000000018001ef30 f   pkcs11.obj
 0001:0001e010       ?C_SignRecoverInit@PKCS11@@QEAAXKV?$shared_ptr@VMechanism@@@std@@K@Z 000000018001f010 f   pkcs11.obj
 0001:0001e0e0       ?C_SignRecover@PKCS11@@QEAA?AV?$shared_ptr@V?$basic_string@DU?$char_traits@D@std@@V?$allocator@D@2@@std@@@std@@KV23@0@Z 000000018001f0e0 f   pkcs11.obj
 0001:0001e240       ?C_VerifyInit@PKCS11@@QEAAXKV?$shared_ptr@VMechanism@@@std@@K@Z 000000018001f240 f   pkcs11.obj
 0001:0001e310       ?C_Verify@PKCS11@@QEAAXKV?$shared_ptr@V?$basic_string@DU?$char_traits@D@std@@V?$allocator@D@2@@std@@@std@@0@Z 000000018001f310 f   pkcs11.obj
 0001:0001e4c0       ?C_VerifyUpdate@PKCS11@@QEAAXKV?$shared_ptr@V?$basic_string@DU?$char_traits@D@std@@V?$allocator@D@2@@std@@@std@@@Z 000000018001f4c0 f   pkcs11.obj
 0001:0001e580       ?C_VerifyFinal@PKCS11@@QEAAXKV?$shared_ptr@V?$basic_string@DU?$char_traits@D@std@@V?$allocator@D@2@@std@@@std@@@Z 000000018001f580 f   pkcs11.obj
 0001:0001e700       ?C_VerifyRecoverInit@PKCS11@@QEAAXKV?$shared_ptr@VMechanism@@@std@@K@Z 000000018001f700 f   pkcs11.obj
 0001:0001e7d0       ?C_VerifyRecover@PKCS11@@QEAA?AV?$shared_ptr@V?$basic_string@DU?$char_traits@D@std@@V?$allocator@D@2@@std@@@std@@KV23@0@Z 000000018001f7d0 f   pkcs11.obj
 0001:0001e930       ?C_GenerateKey@PKCS11@@QEAAKKV?$shared_ptr@VMechanism@@@std@@V?$shared_ptr@VAttributes@@@3@@Z 000000018001f930 f   pkcs11.obj
 0001:0001ead0       ?C_GenerateKeyPair@PKCS11@@QEAA?AV?$shared_ptr@UKEY_PAIR@@@std@@KV?$shared_ptr@VMechanism@@@3@V?$shared_ptr@VAttributes@@@3@1@Z 000000018001fad0 f   pkcs11.obj
 0001:0001ecf0       ?C_WrapKey@PKCS11@@QEAA?AV?$shared_ptr@V?$basic_string@DU?$char_traits@D@std@@V?$allocator@D@2@@std@@@std@@KV?$shared_ptr@VMechanism@@@3@KKV23@@Z 000000018001fcf0 f   pkcs11.obj
 0001:0001ef20       ?C_UnwrapKey@PKCS11@@QEAAKKV?$shared_ptr@VMechanism@@@std@@KV?$shared_ptr@V?$basic_string@DU?$char_traits@D@std@@V?$allocator@D@2@@std@@@3@V?$shared_ptr@VAttributes@@@3@@Z 000000018001ff20 f   pkcs11.obj
 0001:0001f100       ?C_DeriveKey@PKCS11@@QEAAKKV?$shared_ptr@VMechanism@@@std@@KV?$shared_ptr@VAttributes@@@3@@Z 0000000180020100 f   pkcs11.obj
 0001:0001f2b0       ?C_SeedRandom@PKCS11@@QEAAXKPEAD_K@Z 00000001800202b0 f   pkcs11.obj
 0001:0001f420       ?C_GenerateRandom@PKCS11@@QEAAXKPEAD_K@Z 0000000180020420 f   pkcs11.obj
 0001:0001f590       ??1?$vector@KV?$allocator@K@std@@@std@@QEAA@XZ 0000000180020590 f i pkcs11.obj
 0001:0001f5a0       ?substr@?$basic_string@DU?$char_traits@D@std@@V?$allocator@D@2@@std@@QEBA?AV12@_K0@Z 00000001800205a0 f i pkcs11.obj
 0001:0001f5e0       ?_Tidy@?$vector@KV?$allocator@K@std@@@std@@IEAAXXZ 00000001800205e0 f i pkcs11.obj
 0001:0001f680       ?append@?$basic_string@DU?$char_traits@D@std@@V?$allocator@D@2@@std@@QEAAAEAV12@PEBD_K@Z 0000000180020680 f i pkcs11.obj
 0001:0001f7d0       ??$_Integral_to_string@DI@std@@YA?AV?$basic_string@DU?$char_traits@D@std@@V?$allocator@D@2@@0@I@Z 00000001800207d0 f i pkcs11.obj
 0001:0001f870       ??$make_shared@UCK_INFO@@$$V@std@@YA?AV?$shared_ptr@UCK_INFO@@@0@XZ 0000000180020870 f i pkcs11.obj
 0001:0001f910       ??$make_shared@UCK_SLOT_INFO@@$$V@std@@YA?AV?$shared_ptr@UCK_SLOT_INFO@@@0@XZ 0000000180020910 f i pkcs11.obj
 0001:0001f9c0       ??$make_shared@UCK_TOKEN_INFO@@$$V@std@@YA?AV?$shared_ptr@UCK_TOKEN_INFO@@@0@XZ 00000001800209c0 f i pkcs11.obj
 0001:0001fa70       ??$make_shared@UCK_MECHANISM_INFO@@$$V@std@@YA?AV?$shared_ptr@UCK_MECHANISM_INFO@@@0@XZ 0000000180020a70 f i pkcs11.obj
 0001:0001fb00       ??$make_shared@UCK_SESSION_INFO@@$$V@std@@YA?AV?$shared_ptr@UCK_SESSION_INFO@@@0@XZ 0000000180020b00 f i pkcs11.obj
 0001:0001fb90       ??$make_shared@UKEY_PAIR@@$$V@std@@YA?AV?$shared_ptr@UKEY_PAIR@@@0@XZ 0000000180020b90 f i pkcs11.obj
 0001:0001fc10       ?_Destroy@?$_Ref_count_obj@UCK_MECHANISM_INFO@@@std@@EEAAXXZ 0000000180020c10 f i pkcs11.obj
 0001:0001fc10       _guard_check_icall_nop     0000000180020c10 f i LIBCMT:guard_support.obj
 0001:0001fc10       ?_Destroy@?$_Ref_count_obj@UCK_INFO@@@std@@EEAAXXZ 0000000180020c10 f i pkcs11.obj
 0001:0001fc10       __except_validate_context_record 0000000180020c10 f i libvcruntime:jbcxrval.obj
 0001:0001fc10       ?_Destroy@?$_Ref_count_obj@UCK_TOKEN_INFO@@@std@@EEAAXXZ 0000000180020c10 f i pkcs11.obj
 0001:0001fc10       ?_Destroy@?$_Ref_count_obj@UCK_SESSION_INFO@@@std@@EEAAXXZ 0000000180020c10 f i pkcs11.obj
 0001:0001fc10       ?_Destroy@?$_Ref_count_obj@UCK_SLOT_INFO@@@std@@EEAAXXZ 0000000180020c10 f i pkcs11.obj
 0001:0001fc10       ?_Destroy@?$_Ref_count_obj@UKEY_PAIR@@@std@@EEAAXXZ 0000000180020c10 f i pkcs11.obj
 0001:0001fc20       ??_G?$_Ref_count_obj@UCK_INFO@@@std@@UEAAPEAXI@Z 0000000180020c20 f i pkcs11.obj
 0001:0001fc20       ??_E?$_Ref_count_obj@UCK_INFO@@@std@@UEAAPEAXI@Z 0000000180020c20 f i * CIL library *:* CIL module *
 0001:0001fc50       ??_E?$_Ref_count_obj@UCK_SLOT_INFO@@@std@@UEAAPEAXI@Z 0000000180020c50 f i * CIL library *:* CIL module *
 0001:0001fc50       ??_G?$_Ref_count_obj@UCK_SLOT_INFO@@@std@@UEAAPEAXI@Z 0000000180020c50 f i pkcs11.obj
 0001:0001fc80       ??_G?$_Ref_count_obj@UCK_TOKEN_INFO@@@std@@UEAAPEAXI@Z 0000000180020c80 f i pkcs11.obj
 0001:0001fc80       ??_E?$_Ref_count_obj@UCK_TOKEN_INFO@@@std@@UEAAPEAXI@Z 0000000180020c80 f i * CIL library *:* CIL module *
 0001:0001fcb0       ??_E?$_Ref_count_obj@UCK_MECHANISM_INFO@@@std@@UEAAPEAXI@Z 0000000180020cb0 f i * CIL library *:* CIL module *
 0001:0001fcb0       ??_E?$_Ref_count_obj@UCK_SESSION_INFO@@@std@@UEAAPEAXI@Z 0000000180020cb0 f i * CIL library *:* CIL module *
 0001:0001fcb0       ??_G?$_Ref_count_obj@UCK_SESSION_INFO@@@std@@UEAAPEAXI@Z 0000000180020cb0 f i pkcs11.obj
 0001:0001fcb0       ??_G?$_Ref_count_obj@UCK_MECHANISM_INFO@@@std@@UEAAPEAXI@Z 0000000180020cb0 f i pkcs11.obj
 0001:0001fce0       ??_GAttributes@@QEAAPEAXI@Z 0000000180020ce0 f i pkcs11.obj
 0001:0001fd60       ?_Destroy@?$_Ref_count@VAttributes@@@std@@EEAAXXZ 0000000180020d60 f i pkcs11.obj
 0001:0001fd70       ?Call@Callback@Nan@@QEBA?AV?$Local@VValue@v8@@@v8@@HQEAV34@@Z 0000000180020d70 f i async.obj
 0001:0001fe20       ?Call_@Callback@Nan@@AEBA?AV?$Local@VValue@v8@@@v8@@PEAVIsolate@4@V?$Local@VObject@v8@@@4@HQEAV34@@Z 0000000180020e20 f i async.obj
 0001:0001fee0       ?SetErrorMessage@AsyncWorker@Nan@@IEAAXPEBD@Z 0000000180020ee0 f i async.obj
 0001:0001ffc0       ?Execute@AsyncGenerateKey@@UEAAXXZ 0000000180020fc0 f   async.obj
 0001:00020060       ?HandleOKCallback@AsyncGenerateKey@@UEAAXXZ 0000000180021060 f   async.obj
 0001:000200e0       ?Execute@AsyncGenerateKeyPair@@UEAAXXZ 00000001800210e0 f   async.obj
 0001:00020230       ?HandleOKCallback@AsyncGenerateKeyPair@@UEAAXXZ 0000000180021230 f   async.obj
 0001:00020390       ?Execute@AsyncCrypto@@UEAAXXZ 0000000180021390 f   async.obj
 0001:00020750       ?HandleOKCallback@AsyncCrypto@@UEAAXXZ 0000000180021750 f   async.obj
 0001:00020850       ?Execute@AsyncWrapKey@@UEAAXXZ 0000000180021850 f   async.obj
 0001:00020980       ?HandleOKCallback@AsyncWrapKey@@UEAAXXZ 0000000180021980 f   async.obj
 0001:00020a70       ?Execute@AsyncUnwrapKey@@UEAAXXZ 0000000180021a70 f   async.obj
 0001:00020b50       ?HandleOKCallback@AsyncUnwrapKey@@UEAAXXZ 0000000180021b50 f   async.obj
 0001:00020be0       ?Execute@AsyncDeriveKey@@UEAAXXZ 0000000180021be0 f   async.obj
 0001:00020c90       ?HandleOKCallback@AsyncDeriveKey@@UEAAXXZ 0000000180021c90 f   async.obj
 0001:00020d20       ??4?$shared_ptr@VPKCS11@@@std@@QEAAAEAV01@$$QEAV01@@Z 0000000180021d20 f i node.obj
 0001:00020d20       ??4?$shared_ptr@UKEY_PAIR@@@std@@QEAAAEAV01@$$QEAV01@@Z 0000000180021d20 f i async.obj
 0001:00020d20       ??4?$shared_ptr@V?$basic_string@DU?$char_traits@D@std@@V?$allocator@D@2@@std@@@std@@QEAAAEAV01@$$QEAV01@@Z 0000000180021d20 f i async.obj
 0001:00020dd0       ??1ObjectWrap@node@@UEAA@XZ 0000000180021dd0 f i node.obj
 0001:00020e50       ?Wrap@ObjectWrap@node@@IEAAXV?$Local@VObject@v8@@@v8@@@Z 0000000180021e50 f i node.obj
 0001:00020f30       ?Ref@ObjectWrap@node@@MEAAXXZ 0000000180021f30 f i node.obj
 0001:00020f70       ?Unref@ObjectWrap@node@@MEAAXXZ 0000000180021f70 f i node.obj
 0001:00021020       ?WeakCallback@ObjectWrap@node@@CAXAEBV?$WeakCallbackInfo@VObjectWrap@node@@@v8@@@Z 0000000180022020 f i node.obj
 0001:00021080       ??_EObjectWrap@node@@UEAAPEAXI@Z 0000000180022080 f i * CIL library *:* CIL module *
 0001:00021080       ??_GObjectWrap@node@@UEAAPEAXI@Z 0000000180022080 f i node.obj
 0001:00021170       ?NewInstance@Nan@@YA?AV?$MaybeLocal@VObject@v8@@@v8@@V?$Local@VFunction@v8@@@3@HQEAV?$Local@VValue@v8@@@3@@Z 0000000180022170 f i node.obj
 0001:00021210       ?NewInstance@Nan@@YA?AV?$MaybeLocal@VObject@v8@@@v8@@V?$Local@VObjectTemplate@v8@@@3@@Z 0000000180022210 f i node.obj
 0001:00021290       ?GetFunction@Nan@@YA?AV?$MaybeLocal@VFunction@v8@@@v8@@V?$Local@VFunctionTemplate@v8@@@3@@Z 0000000180022290 f i node.obj
 0001:00021310       ?convert@?$ToFactory@VUint32@v8@@@imp@Nan@@SA?AV?$MaybeLocal@VUint32@v8@@@v8@@V?$Local@VValue@v8@@@5@@Z 0000000180022310 f i node.obj
 0001:000213a0       ?convert@?$ToFactory@VInt32@v8@@@imp@Nan@@SA?AV?$MaybeLocal@VInt32@v8@@@v8@@V?$Local@VValue@v8@@@5@@Z 00000001800223a0 f i node.obj
 0001:00021430       ?New@?$Factory@VFunctionTemplate@v8@@@imp@Nan@@SA?AV?$Local@VFunctionTemplate@v8@@@v8@@P6AXAEBV?$FunctionCallbackInfo@VValue@v8@@@3@@ZV?$Local@VValue@v8@@@5@V?$Local@VSignature@v8@@@5@@Z 0000000180022430 f i node.obj
 0001:000215a0       ?ThrowError@Nan@@YAXPEBD@Z 00000001800225a0 f i node.obj
 0001:00021640       ?ThrowTypeError@Nan@@YAXV?$Local@VString@v8@@@v8@@@Z 0000000180022640 f i node.obj
 0001:000216b0       ??0AsyncWorker@Nan@@QEAA@PEAVCallback@1@@Z 00000001800226b0 f i node.obj
 0001:00021780       ??1AsyncWorker@Nan@@UEAA@XZ 0000000180022780 f i node.obj
 0001:00021840       ?WorkComplete@AsyncWorker@Nan@@UEAAXXZ 0000000180022840 f i node.obj
 0001:000218e0       ?Destroy@AsyncWorker@Nan@@UEAAXXZ 00000001800228e0 f i node.obj
 0001:00021900       ?HandleOKCallback@AsyncWorker@Nan@@MEAAXXZ 0000000180022900 f i node.obj
 0001:00021950       ?HandleErrorCallback@AsyncWorker@Nan@@MEAAXXZ 0000000180022950 f i node.obj
 0001:00021a00       ??_GAsyncWorker@Nan@@UEAAPEAXI@Z 0000000180022a00 f i node.obj
 0001:00021a00       ??_EAsyncWorker@Nan@@UEAAPEAXI@Z 0000000180022a00 f i * CIL library *:* CIL module *
 0001:00021a40       ??1?$Persistent@VObject@v8@@V?$NonCopyablePersistentTraits@VObject@v8@@@2@@Nan@@QEAA@XZ 0000000180022a40 f i node.obj
 0001:00021a60       ?AsyncExecute@Nan@@YAXPEAUuv_work_s@@@Z 0000000180022a60 f i node.obj
 0001:00021a70       ?AsyncExecuteComplete@Nan@@YAXPEAUuv_work_s@@@Z 0000000180022a70 f i node.obj
 0001:00021ab0       ?AsyncQueueWorker@Nan@@YAXPEAVAsyncWorker@1@@Z 0000000180022ab0 f i node.obj
 0001:00021ae0       ?SetPrototypeMethod@Nan@@YAXV?$Local@VFunctionTemplate@v8@@@v8@@PEBDP6AXAEBV?$FunctionCallbackInfo@VValue@v8@@@1@@Z@Z 0000000180022ae0 f i node.obj
 0001:00021bf0       ?constructor@WPKCS11@@KAAEAV?$Persistent@VFunction@v8@@V?$NonCopyablePersistentTraits@VFunction@v8@@@2@@Nan@@XZ 0000000180022bf0 f i node.obj
 0001:00021c60       ??0AsyncGenerateKey@@QEAA@PEAVCallback@Nan@@V?$shared_ptr@VPKCS11@@@std@@KV?$shared_ptr@VMechanism@@@4@V?$shared_ptr@VAttributes@@@4@@Z 0000000180022c60 f i node.obj
 0001:00021e20       ??1AsyncGenerateKey@@UEAA@XZ 0000000180022e20 f i node.obj
 0001:00021f60       ??_EAsyncGenerateKey@@UEAAPEAXI@Z 0000000180022f60 f i * CIL library *:* CIL module *
 0001:00021f60       ??_GAsyncGenerateKey@@UEAAPEAXI@Z 0000000180022f60 f i node.obj
 0001:00021fa0       ??0AsyncGenerateKeyPair@@QEAA@PEAVCallback@Nan@@V?$shared_ptr@VPKCS11@@@std@@KV?$shared_ptr@VMechanism@@@4@V?$shared_ptr@VAttributes@@@4@3@Z 0000000180022fa0 f i node.obj
 0001:000221f0       ??1AsyncGenerateKeyPair@@UEAA@XZ 00000001800231f0 f i node.obj
 0001:000223c0       ??_EAsyncGenerateKeyPair@@UEAAPEAXI@Z 00000001800233c0 f i * CIL library *:* CIL module *
 0001:000223c0       ??_GAsyncGenerateKeyPair@@UEAAPEAXI@Z 00000001800233c0 f i node.obj
 0001:00022400       ??0AsyncCrypto@@QEAA@PEAVCallback@Nan@@V?$shared_ptr@VPKCS11@@@std@@HKV?$shared_ptr@V?$basic_string@DU?$char_traits@D@std@@V?$allocator@D@2@@std@@@4@2@Z 0000000180023400 f i node.obj
 0001:000225e0       ??1AsyncCrypto@@UEAA@XZ    00000001800235e0 f i node.obj
 0001:00022770       ??_GAsyncCrypto@@UEAAPEAXI@Z 0000000180023770 f i node.obj
 0001:00022770       ??_EAsyncCrypto@@UEAAPEAXI@Z 0000000180023770 f i * CIL library *:* CIL module *
 0001:000227b0       ??0AsyncWrapKey@@QEAA@PEAVCallback@Nan@@V?$shared_ptr@VPKCS11@@@std@@KV?$shared_ptr@VMechanism@@@4@KKV?$shared_ptr@V?$basic_string@DU?$char_traits@D@std@@V?$allocator@D@2@@std@@@4@@Z 00000001800237b0 f i node.obj
 0001:000229a0       ??1AsyncWrapKey@@UEAA@XZ   00000001800239a0 f i node.obj
 0001:00022b30       ??_GAsyncWrapKey@@UEAAPEAXI@Z 0000000180023b30 f i node.obj
 0001:00022b30       ??_EAsyncWrapKey@@UEAAPEAXI@Z 0000000180023b30 f i * CIL library *:* CIL module *
 0001:00022b70       ??0AsyncUnwrapKey@@QEAA@PEAVCallback@Nan@@V?$shared_ptr@VPKCS11@@@std@@KV?$shared_ptr@VMechanism@@@4@KV?$shared_ptr@V?$basic_string@DU?$char_traits@D@std@@V?$allocator@D@2@@std@@@4@V?$shared_ptr@VAttributes@@@4@@Z 0000000180023b70 f i node.obj
 0001:00022dc0       ??1AsyncUnwrapKey@@UEAA@XZ 0000000180023dc0 f i node.obj
 0001:00022f50       ??_EAsyncUnwrapKey@@UEAAPEAXI@Z 0000000180023f50 f i * CIL library *:* CIL module *
 0001:00022f50       ??_GAsyncUnwrapKey@@UEAAPEAXI@Z 0000000180023f50 f i node.obj
 0001:00022f90       ??0AsyncDeriveKey@@QEAA@PEAVCallback@Nan@@V?$shared_ptr@VPKCS11@@@std@@KV?$shared_ptr@VMechanism@@@4@KV?$shared_ptr@VAttributes@@@4@@Z 0000000180023f90 f i node.obj
 0001:00023160       ??1AsyncDeriveKey@@UEAA@XZ 0000000180024160 f i node.obj
 0001:000232a0       ??_GAsyncDeriveKey@@UEAAPEAXI@Z 00000001800242a0 f i node.obj
 0001:000232a0       ??_EAsyncDeriveKey@@UEAAPEAXI@Z 00000001800242a0 f i * CIL library *:* CIL module *
 0001:000238f0       ?Init@WPKCS11@@SAXV?$Local@VObject@v8@@@v8@@@Z 00000001800248f0 f   node.obj
 0001:00023f80       ?New@WPKCS11@@SAXAEBV?$FunctionCallbackInfo@VValue@v8@@@Nan@@@Z 0000000180024f80 f   node.obj
 0001:00024150       ??_EWPKCS11@@UEAAPEAXI@Z   0000000180025150 f i * CIL library *:* CIL module *
 0001:00024150       ??_GWPKCS11@@UEAAPEAXI@Z   0000000180025150 f i node.obj
 0001:00024190       ??1WPKCS11@@UEAA@XZ        0000000180025190 f i node.obj
 0001:00024220       ?Load@WPKCS11@@SAXAEBV?$FunctionCallbackInfo@VValue@v8@@@Nan@@@Z 0000000180025220 f   node.obj
 0001:00024640       ?C_Initialize@WPKCS11@@SAXAEBV?$FunctionCallbackInfo@VValue@v8@@@Nan@@@Z 0000000180025640 f   node.obj
 0001:000246f0       ?C_Finalize@WPKCS11@@SAXAEBV?$FunctionCallbackInfo@VValue@v8@@@Nan@@@Z 00000001800256f0 f   node.obj
 0001:000247a0       ?C_GetInfo@WPKCS11@@SAXAEBV?$FunctionCallbackInfo@VValue@v8@@@Nan@@@Z 00000001800257a0 f   node.obj
 0001:00024be0       ?C_GetSlotList@WPKCS11@@SAXAEBV?$FunctionCallbackInfo@VValue@v8@@@Nan@@@Z 0000000180025be0 f   node.obj
 0001:00024e10       ?C_GetSlotInfo@WPKCS11@@SAXAEBV?$FunctionCallbackInfo@VValue@v8@@@Nan@@@Z 0000000180025e10 f   node.obj
 0001:00025380       ?C_GetTokenInfo@WPKCS11@@SAXAEBV?$FunctionCallbackInfo@VValue@v8@@@Nan@@@Z 0000000180026380 f   node.obj
 0001:00026020       ?C_GetMechanismList@WPKCS11@@SAXAEBV?$FunctionCallbackInfo@VValue@v8@@@Nan@@@Z 0000000180027020 f   node.obj
 0001:000263a0       ?C_GetMechanismInfo@WPKCS11@@SAXAEBV?$FunctionCallbackInfo@VValue@v8@@@Nan@@@Z 00000001800273a0 f   node.obj
 0001:00026b00       ?C_InitToken@WPKCS11@@SAXAEBV?$FunctionCallbackInfo@VValue@v8@@@Nan@@@Z 0000000180027b00 f   node.obj
 0001:00026f70       ?C_InitPIN@WPKCS11@@SAXAEBV?$FunctionCallbackInfo@VValue@v8@@@Nan@@@Z 0000000180027f70 f   node.obj
 0001:00027280       ?C_SetPIN@WPKCS11@@SAXAEBV?$FunctionCallbackInfo@VValue@v8@@@Nan@@@Z 0000000180028280 f   node.obj
 0001:00027640       ?C_OpenSession@WPKCS11@@SAXAEBV?$FunctionCallbackInfo@VValue@v8@@@Nan@@@Z 0000000180028640 f   node.obj
 0001:00027ba0       ?C_CloseSession@WPKCS11@@SAXAEBV?$FunctionCallbackInfo@VValue@v8@@@Nan@@@Z 0000000180028ba0 f   node.obj
 0001:00027e00       ?C_CloseAllSessions@WPKCS11@@SAXAEBV?$FunctionCallbackInfo@VValue@v8@@@Nan@@@Z 0000000180028e00 f   node.obj
 0001:00028060       ?C_GetSessionInfo@WPKCS11@@SAXAEBV?$FunctionCallbackInfo@VValue@v8@@@Nan@@@Z 0000000180029060 f   node.obj
 0001:00028520       ?C_Login@WPKCS11@@SAXAEBV?$FunctionCallbackInfo@VValue@v8@@@Nan@@@Z 0000000180029520 f   node.obj
 0001:00028b20       ?C_Logout@WPKCS11@@SAXAEBV?$FunctionCallbackInfo@VValue@v8@@@Nan@@@Z 0000000180029b20 f   node.obj
 0001:00028d80       ?C_FindObjectsInit@WPKCS11@@SAXAEBV?$FunctionCallbackInfo@VValue@v8@@@Nan@@@Z 0000000180029d80 f   node.obj
 0001:00029150       ?C_FindObjects@WPKCS11@@SAXAEBV?$FunctionCallbackInfo@VValue@v8@@@Nan@@@Z 000000018002a150 f   node.obj
 0001:000293d0       ?C_FindObjectsFinal@WPKCS11@@SAXAEBV?$FunctionCallbackInfo@VValue@v8@@@Nan@@@Z 000000018002a3d0 f   node.obj
 0001:00029630       ?C_GetAttributeValue@WPKCS11@@SAXAEBV?$FunctionCallbackInfo@VValue@v8@@@Nan@@@Z 000000018002a630 f   node.obj
 0001:00029d90       ?C_SetAttributeValue@WPKCS11@@SAXAEBV?$FunctionCallbackInfo@VValue@v8@@@Nan@@@Z 000000018002ad90 f   node.obj
 0001:0002a440       ?C_CreateObject@WPKCS11@@SAXAEBV?$FunctionCallbackInfo@VValue@v8@@@Nan@@@Z 000000018002b440 f   node.obj
 0001:0002a920       ?C_CopyObject@WPKCS11@@SAXAEBV?$FunctionCallbackInfo@VValue@v8@@@Nan@@@Z 000000018002b920 f   node.obj
 0001:0002af90       ?C_DestroyObject@WPKCS11@@SAXAEBV?$FunctionCallbackInfo@VValue@v8@@@Nan@@@Z 000000018002bf90 f   node.obj
 0001:0002b380       ?C_GetObjectSize@WPKCS11@@SAXAEBV?$FunctionCallbackInfo@VValue@v8@@@Nan@@@Z 000000018002c380 f   node.obj
 0001:0002b7a0       ?C_EncryptInit@WPKCS11@@SAXAEBV?$FunctionCallbackInfo@VValue@v8@@@Nan@@@Z 000000018002c7a0 f   node.obj
 0001:0002be60       ?C_Encrypt@WPKCS11@@SAXAEBV?$FunctionCallbackInfo@VValue@v8@@@Nan@@@Z 000000018002ce60 f   node.obj
 0001:0002caa0       ?C_EncryptUpdate@WPKCS11@@SAXAEBV?$FunctionCallbackInfo@VValue@v8@@@Nan@@@Z 000000018002daa0 f   node.obj
 0001:0002d540       ?C_EncryptFinal@WPKCS11@@SAXAEBV?$FunctionCallbackInfo@VValue@v8@@@Nan@@@Z 000000018002e540 f   node.obj
 0001:0002dbc0       ?C_DecryptInit@WPKCS11@@SAXAEBV?$FunctionCallbackInfo@VValue@v8@@@Nan@@@Z 000000018002ebc0 f   node.obj
 0001:0002e280       ?C_Decrypt@WPKCS11@@SAXAEBV?$FunctionCallbackInfo@VValue@v8@@@Nan@@@Z 000000018002f280 f   node.obj
 0001:0002eec0       ?C_DecryptUpdate@WPKCS11@@SAXAEBV?$FunctionCallbackInfo@VValue@v8@@@Nan@@@Z 000000018002fec0 f   node.obj
 0001:0002f960       ?C_DecryptFinal@WPKCS11@@SAXAEBV?$FunctionCallbackInfo@VValue@v8@@@Nan@@@Z 0000000180030960 f   node.obj
 0001:0002ffe0       ?C_DigestInit@WPKCS11@@SAXAEBV?$FunctionCallbackInfo@VValue@v8@@@Nan@@@Z 0000000180030fe0 f   node.obj
 0001:000304b0       ?C_Digest@WPKCS11@@SAXAEBV?$FunctionCallbackInfo@VValue@v8@@@Nan@@@Z 00000001800314b0 f   node.obj
 0001:000310f0       ?C_DigestUpdate@WPKCS11@@SAXAEBV?$FunctionCallbackInfo@VValue@v8@@@Nan@@@Z 00000001800320f0 f   node.obj
 0001:000316a0       ?C_DigestFinal@WPKCS11@@SAXAEBV?$FunctionCallbackInfo@VValue@v8@@@Nan@@@Z 00000001800326a0 f   node.obj
 0001:00031d20       ?C_DigestKey@WPKCS11@@SAXAEBV?$FunctionCallbackInfo@VValue@v8@@@Nan@@@Z 0000000180032d20 f   node.obj
 0001:00032110       ?C_SignInit@WPKCS11@@SAXAEBV?$FunctionCallbackInfo@VValue@v8@@@Nan@@@Z 0000000180033110 f   node.obj
 0001:000327d0       ?C_Sign@WPKCS11@@SAXAEBV?$FunctionCallbackInfo@VValue@v8@@@Nan@@@Z 00000001800337d0 f   node.obj
 0001:00033410       ?C_SignUpdate@WPKCS11@@SAXAEBV?$FunctionCallbackInfo@VValue@v8@@@Nan@@@Z 0000000180034410 f   node.obj
 0001:000339c0       ?C_SignFinal@WPKCS11@@SAXAEBV?$FunctionCallbackInfo@VValue@v8@@@Nan@@@Z 00000001800349c0 f   node.obj
 0001:00034040       ?C_SignRecoverInit@WPKCS11@@SAXAEBV?$FunctionCallbackInfo@VValue@v8@@@Nan@@@Z 0000000180035040 f   node.obj
 0001:00034700       ?C_SignRecover@WPKCS11@@SAXAEBV?$FunctionCallbackInfo@VValue@v8@@@Nan@@@Z 0000000180035700 f   node.obj
 0001:000351a0       ?C_VerifyInit@WPKCS11@@SAXAEBV?$FunctionCallbackInfo@VValue@v8@@@Nan@@@Z 00000001800361a0 f   node.obj
 0001:00035860       ?C_Verify@WPKCS11@@SAXAEBV?$FunctionCallbackInfo@VValue@v8@@@Nan@@@Z 0000000180036860 f   node.obj
 0001:000363c0       ?C_VerifyUpdate@WPKCS11@@SAXAEBV?$FunctionCallbackInfo@VValue@v8@@@Nan@@@Z 00000001800373c0 f   node.obj
 0001:00036970       ?C_VerifyFinal@WPKCS11@@SAXAEBV?$FunctionCallbackInfo@VValue@v8@@@Nan@@@Z 0000000180037970 f   node.obj
 0001:00036f30       ?C_VerifyRecoverInit@WPKCS11@@SAXAEBV?$FunctionCallbackInfo@VValue@v8@@@Nan@@@Z 0000000180037f30 f   node.obj
 0001:000375f0       ?C_VerifyRecover@WPKCS11@@SAXAEBV?$FunctionCallbackInfo@VValue@v8@@@Nan@@@Z 00000001800385f0 f   node.obj
 0001:00038090       ?C_GenerateKey@WPKCS11@@SAXAEBV?$FunctionCallbackInfo@VValue@v8@@@Nan@@@Z 0000000180039090 f   node.obj
 0001:000389c0       ?C_GenerateKeyPair@WPKCS11@@SAXAEBV?$FunctionCallbackInfo@VValue@v8@@@Nan@@@Z 00000001800399c0 f   node.obj
 0001:00039790       ?C_WrapKey@WPKCS11@@SAXAEBV?$FunctionCallbackInfo@VValue@v8@@@Nan@@@Z 000000018003a790 f   node.obj
 0001:0003a6c0       ?C_UnwrapKey@WPKCS11@@SAXAEBV?$FunctionCallbackInfo@VValue@v8@@@Nan@@@Z 000000018003b6c0 f   node.obj
 0001:0003b690       ?C_DeriveKey@WPKCS11@@SAXAEBV?$FunctionCallbackInfo@VValue@v8@@@Nan@@@Z 000000018003c690 f   node.obj
 0001:0003c1e0       ?C_SeedRandom@WPKCS11@@SAXAEBV?$FunctionCallbackInfo@VValue@v8@@@Nan@@@Z 000000018003d1e0 f   node.obj
 0001:0003c620       ?C_GenerateRandom@WPKCS11@@SAXAEBV?$FunctionCallbackInfo@VValue@v8@@@Nan@@@Z 000000018003d620 f   node.obj
 0001:0003ca60       ??$Unwrap@VWPKCS11@@@ObjectWrap@node@@SAPEAVWPKCS11@@V?$Local@VObject@v8@@@v8@@@Z 000000018003da60 f i node.obj
 0001:0003cae0       ?_Destroy@?$_Ref_count@VMechanism@@@std@@EEAAXXZ 000000018003dae0 f i node.obj
 0001:0003cb8c       __imp_load_?GetCurrent@Isolate@v8@@SAPEAV12@XZ 000000018003db8c f   node:node.exe
 0001:0003cb98       __tailMerge_node_exe       000000018003db98 f i node:node.exe
 0001:0003cc11       __imp_load_??1HandleScope@v8@@QEAA@XZ 000000018003dc11 f   node:node.exe
 0001:0003cc1d       __imp_load_??0HandleScope@v8@@QEAA@PEAVIsolate@1@@Z 000000018003dc1d f   node:node.exe
 0001:0003cc29       __imp_load_node_module_register 000000018003dc29 f   node:node.exe
 0001:0003cc35       __imp_load_?GetCurrentContext@Isolate@v8@@QEAA?AV?$Local@VContext@v8@@@2@XZ 000000018003dc35 f   node:node.exe
 0001:0003cc41       __imp_load_?ToLocalEmpty@V8@v8@@CAXXZ 000000018003dc41 f   node:node.exe
 0001:0003cc4d       __imp_load_?NewFromUtf8@String@v8@@SA?AV?$MaybeLocal@VString@v8@@@2@PEAVIsolate@2@PEBDW4NewStringType@2@H@Z 000000018003dc4d f   node:node.exe
 0001:0003cc59       __imp_load_?New@Number@v8@@SA?AV?$Local@VNumber@v8@@@2@PEAVIsolate@2@N@Z 000000018003dc59 f   node:node.exe
 0001:0003cc65       __imp_load_?ForceSet@Object@v8@@QEAA?AV?$Maybe@_N@2@V?$Local@VContext@v8@@@2@V?$Local@VValue@v8@@@2@1W4PropertyAttribute@2@@Z 000000018003dc65 f   node:node.exe
 0001:0003cc71       __imp_load_?New@Array@v8@@SA?AV?$Local@VArray@v8@@@2@PEAVIsolate@2@H@Z 000000018003dc71 f   node:node.exe
 0001:0003cc7d       __imp_load_?Value@Boolean@v8@@QEBA_NXZ 000000018003dc7d f   node:node.exe
 0001:0003cc89       __imp_load_?Uint32Value@Value@v8@@QEBAIXZ 000000018003dc89 f   node:node.exe
 0001:0003cc95       __imp_load_?ToNumber@Value@v8@@QEBA?AV?$MaybeLocal@VNumber@v8@@@2@V?$Local@VContext@v8@@@2@@Z 000000018003dc95 f   node:node.exe
 0001:0003cca1       __imp_load_?IsNumber@Value@v8@@QEBA_NXZ 000000018003dca1 f   node:node.exe
 0001:0003ccad       __imp_load_?IsBoolean@Value@v8@@QEBA_NXZ 000000018003dcad f   node:node.exe
 0001:0003ccb9       __imp_load_?IsObject@Value@v8@@QEBA_NXZ 000000018003dcb9 f   node:node.exe
 0001:0003ccc5       __imp_load_?IsArray@Value@v8@@QEBA_NXZ 000000018003dcc5 f   node:node.exe
 0001:0003ccd1       __imp_load_?Escape@EscapableHandleScope@v8@@AEAAPEAPEAVObject@internal@2@PEAPEAV342@@Z 000000018003dcd1 f   node:node.exe
 0001:0003ccdd       __imp_load_??0EscapableHandleScope@v8@@QEAA@PEAVIsolate@1@@Z 000000018003dcdd f   node:node.exe
 0001:0003cce9       __imp_load_??1Utf8Value@String@v8@@QEAA@XZ 000000018003dce9 f   node:node.exe
 0001:0003ccf5       __imp_load_??0Utf8Value@String@v8@@QEAA@V?$Local@VValue@v8@@@2@@Z 000000018003dcf5 f   node:node.exe
 0001:0003cd01       __imp_load_?New@Object@v8@@SA?AV?$Local@VObject@v8@@@2@PEAVIsolate@2@@Z 000000018003dd01 f   node:node.exe
 0001:0003cd0d       __imp_load_?Get@Object@v8@@QEAA?AV?$Local@VValue@v8@@@2@V32@@Z 000000018003dd0d f   node:node.exe
 0001:0003cd19       __imp_load_?Get@Object@v8@@QEAA?AV?$Local@VValue@v8@@@2@I@Z 000000018003dd19 f   node:node.exe
 0001:0003cd25       __imp_load_?Set@Object@v8@@QEAA_NV?$Local@VValue@v8@@@2@0@Z 000000018003dd25 f   node:node.exe
 0001:0003cd31       __imp_load_?Set@Object@v8@@QEAA_NIV?$Local@VValue@v8@@@2@@Z 000000018003dd31 f   node:node.exe
 0001:0003cd3d       __imp_load_?HasInstance@Buffer@node@@YA_NV?$Local@VValue@v8@@@v8@@@Z 000000018003dd3d f   node:node.exe
 0001:0003cd49       __imp_load_?Data@Buffer@node@@YAPEADV?$Local@VValue@v8@@@v8@@@Z 000000018003dd49 f   node:node.exe
 0001:0003cd55       __imp_load_?Copy@Buffer@node@@YA?AV?$MaybeLocal@VObject@v8@@@v8@@PEAVIsolate@4@PEBD_K@Z 000000018003dd55 f   node:node.exe
 0001:0003cd61       __imp_load_?Length@Buffer@node@@YA_KV?$Local@VValue@v8@@@v8@@@Z 000000018003dd61 f   node:node.exe
 0001:0003cd6d       __imp_load_?ToObject@Value@v8@@QEBA?AV?$Local@VObject@v8@@@2@XZ 000000018003dd6d f   node:node.exe
 0001:0003cd79       __imp_load_?ToBoolean@Value@v8@@QEBA?AV?$Local@VBoolean@v8@@@2@XZ 000000018003dd79 f   node:node.exe
 0001:0003cd85       __imp_load_??1EscapableHandleScope@v8@@QEAA@XZ 000000018003dd85 f   node:node.exe
 0001:0003cd91       __imp_load_?HasInstance@Buffer@node@@YA_NV?$Local@VObject@v8@@@v8@@@Z 000000018003dd91 f   node:node.exe
 0001:0003cd9d       __imp_load_?Data@Buffer@node@@YAPEADV?$Local@VObject@v8@@@v8@@@Z 000000018003dd9d f   node:node.exe
 0001:0003cda9       __imp_load_?Length@Buffer@node@@YA_KV?$Local@VObject@v8@@@v8@@@Z 000000018003dda9 f   node:node.exe
 0001:0003cdb5       __imp_load_?Global@Context@v8@@QEAA?AV?$Local@VObject@v8@@@2@XZ 000000018003ddb5 f   node:node.exe
 0001:0003cdc1       __imp_load_?CreateHandle@HandleScope@v8@@KAPEAPEAVObject@internal@2@PEAVIsolate@42@PEAV342@@Z 000000018003ddc1 f   node:node.exe
 0001:0003cdcd       __imp_load_?New@Buffer@node@@YA?AV?$MaybeLocal@VObject@v8@@@v8@@PEAVIsolate@4@_K@Z 000000018003ddcd f   node:node.exe
 0001:0003cdd9       __imp_load_?MakeCallback@node@@YA?AV?$Local@VValue@v8@@@v8@@PEAVIsolate@3@V?$Local@VObject@v8@@@3@V?$Local@VFunction@v8@@@3@HPEAV23@@Z 000000018003ddd9 f   node:node.exe
 0001:0003cde5       __imp_load_uv_queue_work   000000018003dde5 f   node:node.exe
 0001:0003cdf1       __imp_load_?Value@External@v8@@QEBAPEAXXZ 000000018003ddf1 f   node:node.exe
 0001:0003cdfd       __imp_load_?New@External@v8@@SA?AV?$Local@VExternal@v8@@@2@PEAVIsolate@2@PEAX@Z 000000018003ddfd f   node:node.exe
 0001:0003ce09       __imp_load_?NewFromUnsigned@Integer@v8@@SA?AV?$Local@VInteger@v8@@@2@PEAVIsolate@2@I@Z 000000018003de09 f   node:node.exe
 0001:0003ce15       __imp_load_?New@Integer@v8@@SA?AV?$Local@VInteger@v8@@@2@PEAVIsolate@2@H@Z 000000018003de15 f   node:node.exe
 0001:0003ce21       __imp_load_?New@Signature@v8@@SA?AV?$Local@VSignature@v8@@@2@PEAVIsolate@2@V?$Local@VFunctionTemplate@v8@@@2@@Z 000000018003de21 f   node:node.exe
 0001:0003ce2d       __imp_load_?ThrowException@Isolate@v8@@QEAA?AV?$Local@VValue@v8@@@2@V32@@Z 000000018003de2d f   node:node.exe
 0001:0003ce39       __imp_load_?CreateHandle@HandleScope@v8@@CAPEAPEAVObject@internal@2@PEAVHeapObject@42@PEAV342@@Z 000000018003de39 f   node:node.exe
 0001:0003ce45       __imp_load_?Set@Template@v8@@QEAAXV?$Local@VName@v8@@@2@V?$Local@VData@v8@@@2@W4PropertyAttribute@2@@Z 000000018003de45 f   node:node.exe
 0001:0003ce51       __imp_load_?Error@Exception@v8@@SA?AV?$Local@VValue@v8@@@2@V?$Local@VString@v8@@@2@@Z 000000018003de51 f   node:node.exe
 0001:0003ce5d       __imp_load_?TypeError@Exception@v8@@SA?AV?$Local@VValue@v8@@@2@V?$Local@VString@v8@@@2@@Z 000000018003de5d f   node:node.exe
 0001:0003ce69       __imp_load_?SetClassName@FunctionTemplate@v8@@QEAAXV?$Local@VString@v8@@@2@@Z 000000018003de69 f   node:node.exe
 0001:0003ce75       __imp_load_?PrototypeTemplate@FunctionTemplate@v8@@QEAA?AV?$Local@VObjectTemplate@v8@@@2@XZ 000000018003de75 f   node:node.exe
 0001:0003ce81       __imp_load_?InstanceTemplate@FunctionTemplate@v8@@QEAA?AV?$Local@VObjectTemplate@v8@@@2@XZ 000000018003de81 f   node:node.exe
 0001:0003ce8d       __imp_load_?GetFunction@FunctionTemplate@v8@@QEAA?AV?$Local@VFunction@v8@@@2@XZ 000000018003de8d f   node:node.exe
 0001:0003ce99       __imp_load_?GetFunction@FunctionTemplate@v8@@QEAA?AV?$MaybeLocal@VFunction@v8@@@2@V?$Local@VContext@v8@@@2@@Z 000000018003de99 f   node:node.exe
 0001:0003cea5       __imp_load_?New@FunctionTemplate@v8@@SA?AV?$Local@VFunctionTemplate@v8@@@2@PEAVIsolate@2@P6AXAEBV?$FunctionCallbackInfo@VValue@v8@@@2@@ZV?$Local@VValue@v8@@@2@V?$Local@VSignature@v8@@@2@H@Z 000000018003dea5 f   node:node.exe
 0001:0003ceb1       __imp_load_?ClearWeak@V8@v8@@CAPEAXPEAPEAVObject@internal@2@@Z 000000018003deb1 f   node:node.exe
 0001:0003cebd       __imp_load_?MakeWeak@V8@v8@@CAXPEAPEAVObject@internal@2@PEAXP6AXAEBV?$WeakCallbackInfo@X@2@@ZW4WeakCallbackType@2@@Z 000000018003debd f   node:node.exe
 0001:0003cec9       __imp_load_?DisposeGlobal@V8@v8@@CAXPEAPEAVObject@internal@2@@Z 000000018003dec9 f   node:node.exe
 0001:0003ced5       __imp_load_?GlobalizeReference@V8@v8@@CAPEAPEAVObject@internal@2@PEAVIsolate@42@PEAPEAV342@@Z 000000018003ded5 f   node:node.exe
 0001:0003cee1       __imp_load_?ToInt32@Value@v8@@QEBA?AV?$MaybeLocal@VInt32@v8@@@2@V?$Local@VContext@v8@@@2@@Z 000000018003dee1 f   node:node.exe
 0001:0003ceed       __imp_load_?ToUint32@Value@v8@@QEBA?AV?$MaybeLocal@VUint32@v8@@@2@V?$Local@VContext@v8@@@2@@Z 000000018003deed f   node:node.exe
 0001:0003cef9       __imp_load_?IsFunction@Value@v8@@QEBA_NXZ 000000018003def9 f   node:node.exe
 0001:0003cf05       __imp_load_?Concat@String@v8@@SA?AV?$Local@VString@v8@@@2@V32@0@Z 000000018003df05 f   node:node.exe
 0001:0003cf11       __imp_load_?SlowGetAlignedPointerFromInternalField@Object@v8@@AEAAPEAXH@Z 000000018003df11 f   node:node.exe
 0001:0003cf1d       __imp_load_?SlowGetInternalField@Object@v8@@AEAA?AV?$Local@VValue@v8@@@2@H@Z 000000018003df1d f   node:node.exe
 0001:0003cf29       __imp_load_?SetAlignedPointerInInternalField@Object@v8@@QEAAXHPEAX@Z 000000018003df29 f   node:node.exe
 0001:0003cf35       __imp_load_?SetInternalField@Object@v8@@QEAAXHV?$Local@VValue@v8@@@2@@Z 000000018003df35 f   node:node.exe
 0001:0003cf41       __imp_load_?InternalFieldCount@Object@v8@@QEAAHXZ 000000018003df41 f   node:node.exe
 0001:0003cf4d       __imp_load_?NewInstance@Function@v8@@QEBA?AV?$MaybeLocal@VObject@v8@@@2@V?$Local@VContext@v8@@@2@HQEAV?$Local@VValue@v8@@@2@@Z 000000018003df4d f   node:node.exe
 0001:0003cf59       __imp_load_?SetInternalFieldCount@ObjectTemplate@v8@@QEAAXH@Z 000000018003df59 f   node:node.exe
 0001:0003cf65       __imp_load_?NewInstance@ObjectTemplate@v8@@QEAA?AV?$MaybeLocal@VObject@v8@@@2@V?$Local@VContext@v8@@@2@@Z 000000018003df65 f   node:node.exe
 0001:0003cf71       __imp_load_?New@ObjectTemplate@v8@@SA?AV?$Local@VObjectTemplate@v8@@@2@PEAVIsolate@2@V?$Local@VFunctionTemplate@v8@@@2@@Z 000000018003df71 f   node:node.exe
 0001:0003cf7d       __imp_load_uv_default_loop 000000018003df7d f   node:node.exe
 0001:0003cf89       __imp_load_?ToString@Value@v8@@QEBA?AV?$Local@VString@v8@@@2@XZ 000000018003df89 f   node:node.exe
 0001:0003cf98       ??0bad_alloc@std@@QEAA@AEBV01@@Z 000000018003df98 f i libcpmt:xthrow.obj
 0001:0003cfd8       ??0bad_alloc@std@@QEAA@XZ  000000018003dfd8 f i libcpmt:xthrow.obj
 0001:0003cff8       ??0exception@std@@QEAA@AEBV01@@Z 000000018003dff8 f i libcpmt:xthrow.obj
 0001:0003d030       ??0length_error@std@@QEAA@AEBV01@@Z 000000018003e030 f i libcpmt:xthrow.obj
 0001:0003d070       ??0length_error@std@@QEAA@PEBD@Z 000000018003e070 f i libcpmt:xthrow.obj
 0001:0003d0bc       ??0logic_error@std@@QEAA@AEBV01@@Z 000000018003e0bc f i libcpmt:xthrow.obj
 0001:0003d0fc       ??0out_of_range@std@@QEAA@AEBV01@@Z 000000018003e0fc f i libcpmt:xthrow.obj
 0001:0003d13c       ??0out_of_range@std@@QEAA@PEBD@Z 000000018003e13c f i libcpmt:xthrow.obj
 0001:0003d188       ?__scrt_throw_std_bad_alloc@@YAXXZ 000000018003e188 f   LIBCMT:throw_bad_alloc.obj
 0001:0003d188       ?_Xbad_alloc@std@@YAXXZ    000000018003e188 f   libcpmt:xthrow.obj
 0001:0003d1a8       ?_Xlength_error@std@@YAXPEBD@Z 000000018003e1a8 f   libcpmt:xthrow.obj
 0001:0003d1cc       ?_Xout_of_range@std@@YAXPEBD@Z 000000018003e1cc f   libcpmt:xthrow.obj
 0001:0003d1f0       ?what@exception@std@@UEBAPEBDXZ 000000018003e1f0 f i libcpmt:xthrow.obj
 0001:0003d220       __security_check_cookie    000000018003e220 f   LIBCMT:_amdsecgs_.obj
 0001:0003d244       ??2@YAPEAX_K@Z             000000018003e244 f   LIBCMT:new_scalar.obj
 0001:0003d280       ??3@YAXPEAX@Z              000000018003e280 f   LIBCMT:delete_scalar.obj
 0001:0003d288       ??_Gtype_info@@UEAAPEAXI@Z 000000018003e288 f i LIBCMT:std_type_info_static.obj
 0001:0003d288       ??_Etype_info@@UEAAPEAXI@Z 000000018003e288 f i LIBCMT:std_type_info_static.obj
 0001:0003d2b4       ??3@YAXPEAX_K@Z            000000018003e2b4 f   LIBCMT:delete_scalar_size.obj
 0001:0003d2b4       ??_V@YAXPEAX@Z             000000018003e2b4 f   LIBCMT:delete_array.obj
 0001:0003d2bc       ??_U@YAPEAX_K@Z            000000018003e2bc f   LIBCMT:new_array.obj
 0001:0003d40c       _Init_thread_footer        000000018003e40c f   LIBCMT:thread_safe_statics.obj
 0001:0003d46c       _Init_thread_header        000000018003e46c f   LIBCMT:thread_safe_statics.obj
 0001:0003d4d4       _Init_thread_notify        000000018003e4d4 f   LIBCMT:thread_safe_statics.obj
 0001:0003d530       _Init_thread_wait          000000018003e530 f   LIBCMT:thread_safe_statics.obj
 0001:0003d5c8       __scrt_acquire_startup_lock 000000018003e5c8 f   LIBCMT:utility.obj
 0001:0003d604       __scrt_dllmain_after_initialize_c 000000018003e604 f   LIBCMT:utility.obj
 0001:0003d638       __scrt_dllmain_before_initialize_c 000000018003e638 f   LIBCMT:utility.obj
 0001:0003d650       __scrt_dllmain_crt_thread_attach 000000018003e650 f   LIBCMT:utility.obj
 0001:0003d678       __scrt_dllmain_crt_thread_detach 000000018003e678 f   LIBCMT:utility.obj
 0001:0003d690       __scrt_dllmain_exception_filter 000000018003e690 f   LIBCMT:utility.obj
 0001:0003d6f4       __scrt_dllmain_uninitialize_c 000000018003e6f4 f   LIBCMT:utility.obj
 0001:0003d724       __scrt_dllmain_uninitialize_critical 000000018003e724 f   LIBCMT:utility.obj
 0001:0003d738       __scrt_initialize_crt      000000018003e738 f   LIBCMT:utility.obj
 0001:0003d784       __scrt_initialize_onexit_tables 000000018003e784 f   LIBCMT:utility.obj
 0001:0003d850       __scrt_is_nonwritable_in_current_image 000000018003e850 f   LIBCMT:utility.obj
 0001:0003d8ec       __scrt_release_startup_lock 000000018003e8ec f   LIBCMT:utility.obj
 0001:0003d910       __scrt_uninitialize_crt    000000018003e910 f   LIBCMT:utility.obj
 0001:0003d93c       _onexit                    000000018003e93c f   LIBCMT:utility.obj
 0001:0003d98c       atexit                     000000018003e98c f   LIBCMT:utility.obj
 0001:0003dcf0       _DllMainCRTStartup         000000018003ecf0 f   LIBCMT:dll_dllmain.obj
 0001:0003dd30       __raise_securityfailure    000000018003ed30 f   LIBCMT:gs_report.obj
 0001:0003dd64       __report_gsfailure         000000018003ed64 f   LIBCMT:gs_report.obj
 0001:0003de38       __report_rangecheckfailure 000000018003ee38 f   LIBCMT:gs_report.obj
 0001:0003de4c       __report_securityfailure   000000018003ee4c f   LIBCMT:gs_report.obj
 0001:0003dfcc       ??0bad_array_new_length@std@@QEAA@AEBV01@@Z 000000018003efcc f i LIBCMT:throw_bad_alloc.obj
 0001:0003e00c       ??0bad_array_new_length@std@@QEAA@XZ 000000018003f00c f i LIBCMT:throw_bad_alloc.obj
 0001:0003e02c       ??_Ebad_array_new_length@std@@UEAAPEAXI@Z 000000018003f02c f i LIBCMT:throw_bad_alloc.obj
 0001:0003e02c       ??_Gexception@std@@UEAAPEAXI@Z 000000018003f02c f i libcpmt:xthrow.obj
 0001:0003e02c       ??_Gbad_array_new_length@std@@UEAAPEAXI@Z 000000018003f02c f i LIBCMT:throw_bad_alloc.obj
 0001:0003e02c       ??_Eout_of_range@std@@UEAAPEAXI@Z 000000018003f02c f i libcpmt:xthrow.obj
 0001:0003e02c       ??_Gout_of_range@std@@UEAAPEAXI@Z 000000018003f02c f i libcpmt:xthrow.obj
 0001:0003e02c       ??_Eexception@std@@UEAAPEAXI@Z 000000018003f02c f i libcpmt:xthrow.obj
 0001:0003e02c       ??_Glogic_error@std@@UEAAPEAXI@Z 000000018003f02c f i libcpmt:xthrow.obj
 0001:0003e02c       ??_Elogic_error@std@@UEAAPEAXI@Z 000000018003f02c f i libcpmt:xthrow.obj
 0001:0003e02c       ??_Elength_error@std@@UEAAPEAXI@Z 000000018003f02c f i libcpmt:xthrow.obj
 0001:0003e02c       ??_Gbad_exception@std@@UEAAPEAXI@Z 000000018003f02c f i libvcruntime:frame.obj
 0001:0003e02c       ??_Ebad_exception@std@@UEAAPEAXI@Z 000000018003f02c f i libvcruntime:frame.obj
 0001:0003e02c       ??_Ebad_alloc@std@@UEAAPEAXI@Z 000000018003f02c f i libcpmt:xthrow.obj
 0001:0003e02c       ??_Glength_error@std@@UEAAPEAXI@Z 000000018003f02c f i libcpmt:xthrow.obj
 0001:0003e02c       ??_Gbad_alloc@std@@UEAAPEAXI@Z 000000018003f02c f i libcpmt:xthrow.obj
 0001:0003e070       ?__scrt_throw_std_bad_array_new_length@@YAXXZ 000000018003f070 f   LIBCMT:throw_bad_alloc.obj
 0001:0003e090       __crt_debugger_hook        000000018003f090 f   LIBCMT:utility_desktop.obj
 0001:0003e098       __scrt_fastfail            000000018003f098 f   LIBCMT:utility_desktop.obj
 0001:0003e1e0       _guard_check_icall         000000018003f1e0 f i LIBCMT:checkcfg.obj
 0001:0003e1e8       __isa_available_init       000000018003f1e8 f   LIBCMT:_cpu_disp_.obj
 0001:0003e3b0       _get_startup_argv_mode     000000018003f3b0 f   LIBCMT:argv_mode.obj
 0001:0003e3b0       DllMain                    000000018003f3b0 f   LIBCMT:dll_dllmain_stub.obj
 0001:0003e3b8       __scrt_is_ucrt_dll_in_use  000000018003f3b8 f   LIBCMT:ucrt_detection.obj
 0001:0003e3c4       __security_init_cookie     000000018003f3c4 f   LIBCMT:gs_support.obj
 0001:0003e470       ?__scrt_initialize_type_info@@YAXXZ 000000018003f470 f   LIBCMT:tncleanup.obj
 0001:0003e480       ?__scrt_uninitialize_type_info@@YAXXZ 000000018003f480 f   LIBCMT:tncleanup.obj
 0001:0003e48c       __local_stdio_scanf_options 000000018003f48c f i LIBCMT:default_local_stdio_options.obj
 0001:0003e494       __scrt_initialize_default_local_stdio_options 000000018003f494 f   LIBCMT:default_local_stdio_options.obj
 0001:0003e4b0       __scrt_get_dyn_tls_init_callback 000000018003f4b0 f   LIBCMT:dyn_tls_init.obj
 0001:0003e4b8       _RTC_Initialize            000000018003f4b8 f   LIBCMT:_initsect_.obj
 0001:0003e504       _RTC_Terminate             000000018003f504 f   LIBCMT:_initsect_.obj
 0001:0003e550       __DestructExceptionObject  000000018003f550 f   libvcruntime:frame.obj
 0001:0003e5d8       ??0bad_exception@std@@QEAA@AEBV01@@Z 000000018003f5d8 f i libvcruntime:frame.obj
 0001:0003e618       ??0bad_exception@std@@QEAA@XZ 000000018003f618 f i libvcruntime:frame.obj
 0001:0003e638       ??1bad_exception@std@@UEAA@XZ 000000018003f638 f i libvcruntime:frame.obj
 0001:0003e638       ??1bad_alloc@std@@UEAA@XZ  000000018003f638 f i libcpmt:xthrow.obj
 0001:0003e638       ??1out_of_range@std@@UEAA@XZ 000000018003f638 f i libcpmt:xthrow.obj
 0001:0003e638       ??1bad_array_new_length@std@@UEAA@XZ 000000018003f638 f i LIBCMT:throw_bad_alloc.obj
 0001:0003e638       ??1length_error@std@@UEAA@XZ 000000018003f638 f i libcpmt:xthrow.obj
 0001:0003efa8       ?_CallMemberFunction0@@YAXPEAXP6AX0@Z@Z 000000018003ffa8 f i libvcruntime:frame.obj
 0001:0003efac       ?_CallMemberFunction1@@YAXPEAXP6AX0@Z0@Z 000000018003ffac f i libvcruntime:frame.obj
 0001:0003efb8       ?_CallMemberFunction2@@YAXPEAXP6AX0@Z0H@Z 000000018003ffb8 f i libvcruntime:frame.obj
 0001:0003efc8       __AdjustPointer            000000018003ffc8 f   libvcruntime:frame.obj
 0001:0003efec       __BuildCatchObject         000000018003ffec f   libvcruntime:frame.obj
 0001:0003f0b0       __BuildCatchObjectHelper   00000001800400b0 f   libvcruntime:frame.obj
 0001:0003f290       __CxxCallCatchBlock        0000000180040290 f   libvcruntime:frame.obj
 0001:0003f47c       __FrameUnwindFilter        000000018004047c f   libvcruntime:frame.obj
 0001:0003f4c8       __FrameUnwindToState       00000001800404c8 f   libvcruntime:frame.obj
 0001:0003f65c       __InternalCxxFrameHandler  000000018004065c f   libvcruntime:frame.obj
 0001:0003f8b4       __TypeMatch                00000001800408b4 f   libvcruntime:frame.obj
 0001:0003f9f4       __std_terminate            00000001800409f4 f   libvcruntime:frame.obj
 0001:0003fa10       memcpy                     0000000180040a10 f   libvcruntime:memcpy.obj
 0001:0003fa10       memmove                    0000000180040a10 f   libvcruntime:memcpy.obj
 0001:0003fe48       _purecall                  0000000180040e48 f   libvcruntime:purevirt.obj
 0001:0003fe84       __std_exception_copy       0000000180040e84 f   libvcruntime:std_exception.obj
 0001:0003ff14       __std_exception_destroy    0000000180040f14 f   libvcruntime:std_exception.obj
 0001:0003ff3c       _CxxThrowException         0000000180040f3c f   libvcruntime:throw.obj
 0001:000401dc       __vcrt_FlsAlloc            00000001800411dc f   libvcruntime:winapi_downlevel.obj
 0001:00040230       __vcrt_FlsFree             0000000180041230 f   libvcruntime:winapi_downlevel.obj
 0001:00040284       __vcrt_FlsGetValue         0000000180041284 f   libvcruntime:winapi_downlevel.obj
 0001:000402d8       __vcrt_FlsSetValue         00000001800412d8 f   libvcruntime:winapi_downlevel.obj
 0001:00040340       __vcrt_InitializeCriticalSectionEx 0000000180041340 f   libvcruntime:winapi_downlevel.obj
 0001:000403b8       __vcrt_initialize_winapi_thunks 00000001800413b8 f   libvcruntime:winapi_downlevel.obj
 0001:00040404       __vcrt_uninitialize_winapi_thunks 0000000180041404 f   libvcruntime:winapi_downlevel.obj
 0001:00040444       __vcrt_initialize          0000000180041444 f   libvcruntime:initialization.obj
 0001:00040478       __vcrt_thread_attach       0000000180041478 f   libvcruntime:initialization.obj
 0001:0004048c       __vcrt_thread_detach       000000018004148c f   libvcruntime:initialization.obj
 0001:000404a0       __vcrt_uninitialize        00000001800414a0 f   libvcruntime:initialization.obj
 0001:000404c0       __vcrt_uninitialize_critical 00000001800414c0 f   libvcruntime:initialization.obj
 0001:000404d0       __C_specific_handler       00000001800414d0 f   libvcruntime:_chandler_.obj
 0001:000406e0       memset                     00000001800416e0 f   libvcruntime:memset.obj
 0001:00040880       __std_type_info_compare    0000000180041880 f   libvcruntime:std_type_info.obj
 0001:000408a8       __std_type_info_destroy_list 00000001800418a8 f   libvcruntime:std_type_info.obj
 0001:000408d4       __vcrt_freefls             00000001800418d4 f   libvcruntime:per_thread_data.obj
 0001:000408f4       __vcrt_freeptd             00000001800418f4 f   libvcruntime:per_thread_data.obj
 0001:00040944       __vcrt_getptd              0000000180041944 f   libvcruntime:per_thread_data.obj
 0001:00040960       __vcrt_getptd_noexit       0000000180041960 f   libvcruntime:per_thread_data.obj
 0001:00040a18       __vcrt_initialize_ptd      0000000180041a18 f   libvcruntime:per_thread_data.obj
 0001:00040a58       __vcrt_uninitialize_ptd    0000000180041a58 f   libvcruntime:per_thread_data.obj
 0001:00040a7c       ?__GetCurrentState@@YAHPEA_KPEAU_xDISPATCHER_CONTEXT@@PEBU_s_FuncInfo@@@Z 0000000180041a7c f   libvcruntime:ehstate.obj
 0001:00040aa4       ?__GetUnwindTryBlock@@YAHPEA_KPEAU_xDISPATCHER_CONTEXT@@PEBU_s_FuncInfo@@@Z 0000000180041aa4 f   libvcruntime:ehstate.obj
 0001:00040ad0       ?__SetState@@YAXPEA_KPEAU_xDISPATCHER_CONTEXT@@PEBU_s_FuncInfo@@H@Z 0000000180041ad0 f   libvcruntime:ehstate.obj
 0001:00040adc       ?__SetUnwindTryBlock@@YAXPEA_KPEAU_xDISPATCHER_CONTEXT@@PEBU_s_FuncInfo@@H@Z 0000000180041adc f   libvcruntime:ehstate.obj
 0001:00040b18       ?__StateFromControlPc@@YAHPEBU_s_FuncInfo@@PEAU_xDISPATCHER_CONTEXT@@@Z 0000000180041b18 f   libvcruntime:ehstate.obj
 0001:00040b20       ?__StateFromIp@@YAHPEBU_s_FuncInfo@@PEAU_xDISPATCHER_CONTEXT@@_J@Z 0000000180041b20 f   libvcruntime:ehstate.obj
 0001:00040ba0       _CallSettingFrame          0000000180041ba0 f   libvcruntime:handlers.obj
 0001:00040be0       ?_ExecutionInCatch@@YAHPEAU_xDISPATCHER_CONTEXT@@PEBU_s_FuncInfo@@@Z 0000000180041be0 f   libvcruntime:trnsctrl.obj
 0001:00040c54       ?_GetEstablisherFrame@@YAPEA_KPEA_KPEAU_xDISPATCHER_CONTEXT@@PEBU_s_FuncInfo@@0@Z 0000000180041c54 f   libvcruntime:trnsctrl.obj
 0001:00040d20       ?_GetRangeOfTrysToCheck@@YAPEBU_s_TryBlockMapEntry@@PEA_KPEBU_s_FuncInfo@@HHPEAI2PEAU_xDISPATCHER_CONTEXT@@@Z 0000000180041d20 f   libvcruntime:trnsctrl.obj
 0001:00040e4c       ?__FrameUnwindToEmptyState@@YAXPEA_KPEAU_xDISPATCHER_CONTEXT@@PEBU_s_FuncInfo@@@Z 0000000180041e4c f   libvcruntime:trnsctrl.obj
 0001:00040ee0       ?__SehTransFilter@@YAHPEAU_EXCEPTION_POINTERS@@PEAUEHExceptionRecord@@PEA_KPEAU_CONTEXT@@PEAU_xDISPATCHER_CONTEXT@@PEBU_s_FuncInfo@@PEAH@Z 0000000180041ee0 f   libvcruntime:trnsctrl.obj
 0001:00040f78       _CallSETranslator          0000000180041f78 f   libvcruntime:trnsctrl.obj
 0001:00040fd0       _CreateFrameInfo           0000000180041fd0 f   libvcruntime:trnsctrl.obj
 0001:0004100c       _FindAndUnlinkFrame        000000018004200c f   libvcruntime:trnsctrl.obj
 0001:00041064       _GetImageBase              0000000180042064 f   libvcruntime:trnsctrl.obj
 0001:00041078       _GetThrowImageBase         0000000180042078 f   libvcruntime:trnsctrl.obj
 0001:0004108c       _IsExceptionObjectToBeDestroyed 000000018004208c f   libvcruntime:trnsctrl.obj
 0001:000410bc       _SetImageBase              00000001800420bc f   libvcruntime:trnsctrl.obj
 0001:000410d4       _SetThrowImageBase         00000001800420d4 f   libvcruntime:trnsctrl.obj
 0001:000410ec       _UnwindNestedFrames        00000001800420ec f   libvcruntime:trnsctrl.obj
 0001:00041210       __CxxFrameHandler3         0000000180042210 f   libvcruntime:trnsctrl.obj
 0001:000412a0       _local_unwind              00000001800422a0 f   libvcruntime:_jmpuwind_.obj
 0001:000412d0       _NLG_Notify                00000001800422d0 f   libvcruntime:_jmpuwind_.obj
 0001:000412f0       __NLG_Dispatch2            00000001800422f0 f   libvcruntime:_jmpuwind_.obj
 0001:00041300       __NLG_Return2              0000000180042300 f   libvcruntime:_jmpuwind_.obj
 0001:00041304       __vcrt_initialize_pure_virtual_call_handler 0000000180042304 f   libvcruntime:purevirt_data.obj
 0001:00041328       __vcrt_initialize_locks    0000000180042328 f   libvcruntime:locks.obj
 0001:00041370       __vcrt_uninitialize_locks  0000000180042370 f   libvcruntime:locks.obj
 0001:000413a8       ??$?RV<lambda_7b91131dde12e1c3dfc74ff76b3f2eac>@@AEAV<lambda_dd75445284c072d0bd3768540cc698fa>@@V<lambda_16bc4ecb55b4718497c16bceaea2ceaf>@@@?$__crt_seh_guarded_call@H@@QEAAH$$QEAV<lambda_7b91131dde12e1c3dfc74ff76b3f2eac>@@AEAV<lambda_dd75445284c072d0bd3768540cc698fa>@@$$QEAV<lambda_16bc4ecb55b4718497c16bceaea2ceaf>@@@Z 00000001800423a8 f i libucrt:output.obj
 0001:000413e8       ??$ensure_buffer_is_big_enough@D@formatting_buffer@__crt_stdio_output@@QEAA_N_K@Z 00000001800423e8 f i libucrt:output.obj
 0001:00041494       ??$is_wide_character_specifier@D@__crt_stdio_output@@YA_N_KDW4length_modifier@0@@Z 0000000180042494 f i libucrt:output.obj
 0001:000414c4       ??$is_wide_character_specifier@_W@__crt_stdio_output@@YA_N_K_WW4length_modifier@0@@Z 00000001800424c4 f i libucrt:output.obj
 0001:00041508       ??$type_case_integer_parse_into_buffer@I@?$output_processor@DV?$string_output_adapter@D@__crt_stdio_output@@V?$standard_base@DV?$string_output_adapter@D@__crt_stdio_output@@@2@@__crt_stdio_output@@AEAAXII_N@Z 0000000180042508 f i libucrt:output.obj
 0001:00041508       ??$type_case_integer_parse_into_buffer@I@?$output_processor@_WV?$string_output_adapter@_W@__crt_stdio_output@@V?$standard_base@_WV?$string_output_adapter@_W@__crt_stdio_output@@@2@@__crt_stdio_output@@AEAAXII_N@Z 0000000180042508 f i libucrt:output.obj
 0001:00041508       ??$type_case_integer_parse_into_buffer@I@?$output_processor@_WV?$stream_output_adapter@_W@__crt_stdio_output@@V?$standard_base@_WV?$stream_output_adapter@_W@__crt_stdio_output@@@2@@__crt_stdio_output@@AEAAXII_N@Z 0000000180042508 f i libucrt:output.obj
 0001:000415a4       ??$type_case_integer_parse_into_buffer@_K@?$output_processor@DV?$string_output_adapter@D@__crt_stdio_output@@V?$standard_base@DV?$string_output_adapter@D@__crt_stdio_output@@@2@@__crt_stdio_output@@AEAAX_KI_N@Z 00000001800425a4 f i libucrt:output.obj
 0001:000415a4       ??$type_case_integer_parse_into_buffer@_K@?$output_processor@_WV?$stream_output_adapter@_W@__crt_stdio_output@@V?$standard_base@_WV?$stream_output_adapter@_W@__crt_stdio_output@@@2@@__crt_stdio_output@@AEAAX_KI_N@Z 00000001800425a4 f i libucrt:output.obj
 0001:000415a4       ??$type_case_integer_parse_into_buffer@_K@?$output_processor@_WV?$string_output_adapter@_W@__crt_stdio_output@@V?$standard_base@_WV?$string_output_adapter@_W@__crt_stdio_output@@@2@@__crt_stdio_output@@AEAAX_KI_N@Z 00000001800425a4 f i libucrt:output.obj
 0001:00041640       ??$write_multiple_characters@V?$stream_output_adapter@_W@__crt_stdio_output@@D@__crt_stdio_output@@YAXAEBV?$stream_output_adapter@_W@0@DHQEAH@Z 0000000180042640 f i libucrt:output.obj
 0001:000416d0       ??$write_multiple_characters@V?$string_output_adapter@D@__crt_stdio_output@@D@__crt_stdio_output@@YAXAEBV?$string_output_adapter@D@0@DHQEAH@Z 00000001800426d0 f i libucrt:output.obj
 0001:0004172c       ??$write_multiple_characters@V?$string_output_adapter@_W@__crt_stdio_output@@D@__crt_stdio_output@@YAXAEBV?$string_output_adapter@_W@0@DHQEAH@Z 000000018004272c f i libucrt:output.obj
 0001:0004179c       ??0?$output_processor@DV?$string_output_adapter@D@__crt_stdio_output@@V?$standard_base@DV?$string_output_adapter@D@__crt_stdio_output@@@2@@__crt_stdio_output@@QEAA@AEBV?$string_output_adapter@D@1@_KQEBDQEAU__crt_locale_pointers@@QEAD@Z 000000018004279c f i libucrt:output.obj
 0001:00041818       ??0?$output_processor@_WV?$string_output_adapter@_W@__crt_stdio_output@@V?$standard_base@_WV?$string_output_adapter@_W@__crt_stdio_output@@@2@@__crt_stdio_output@@QEAA@AEBV?$string_output_adapter@_W@1@_KQEB_WQEAU__crt_locale_pointers@@QEAD@Z 0000000180042818 f i libucrt:output.obj
 0001:00041818       ??0?$output_processor@_WV?$stream_output_adapter@_W@__crt_stdio_output@@V?$standard_base@_WV?$stream_output_adapter@_W@__crt_stdio_output@@@2@@__crt_stdio_output@@QEAA@AEBV?$stream_output_adapter@_W@1@_KQEB_WQEAU__crt_locale_pointers@@QEAD@Z 0000000180042818 f i libucrt:output.obj
 0001:00041898       ??0_LocaleUpdate@@QEAA@QEAU__crt_locale_pointers@@@Z 0000000180042898 f i libucrt:output.obj
 0001:00041a18       ?force_decimal_point@__crt_stdio_output@@YAXPEADQEAU__crt_locale_pointers@@@Z 0000000180042a18 f i libucrt:output.obj
 0001:00041a88       ?parse_int_from_format_string@?$output_processor@DV?$string_output_adapter@D@__crt_stdio_output@@V?$standard_base@DV?$string_output_adapter@D@__crt_stdio_output@@@2@@__crt_stdio_output@@AEAA_NQEAH@Z 0000000180042a88 f i libucrt:output.obj
 0001:00041b0c       ?parse_int_from_format_string@?$output_processor@_WV?$string_output_adapter@_W@__crt_stdio_output@@V?$standard_base@_WV?$string_output_adapter@_W@__crt_stdio_output@@@2@@__crt_stdio_output@@AEAA_NQEAH@Z 0000000180042b0c f i libucrt:output.obj
 0001:00041b0c       ?parse_int_from_format_string@?$output_processor@_WV?$stream_output_adapter@_W@__crt_stdio_output@@V?$standard_base@_WV?$stream_output_adapter@_W@__crt_stdio_output@@@2@@__crt_stdio_output@@AEAA_NQEAH@Z 0000000180042b0c f i libucrt:output.obj
 0001:00041b8c       ?process@?$output_processor@DV?$string_output_adapter@D@__crt_stdio_output@@V?$standard_base@DV?$string_output_adapter@D@__crt_stdio_output@@@2@@__crt_stdio_output@@QEAAHXZ 0000000180042b8c f i libucrt:output.obj
 0001:00041d90       ?process@?$output_processor@_WV?$stream_output_adapter@_W@__crt_stdio_output@@V?$standard_base@_WV?$stream_output_adapter@_W@__crt_stdio_output@@@2@@__crt_stdio_output@@QEAAHXZ 0000000180042d90 f i libucrt:output.obj
 0001:00042008       ?process@?$output_processor@_WV?$string_output_adapter@_W@__crt_stdio_output@@V?$standard_base@_WV?$string_output_adapter@_W@__crt_stdio_output@@@2@@__crt_stdio_output@@QEAAHXZ 0000000180043008 f i libucrt:output.obj
 0001:00042284       ?state_case_normal@?$output_processor@DV?$string_output_adapter@D@__crt_stdio_output@@V?$standard_base@DV?$string_output_adapter@D@__crt_stdio_output@@@2@@__crt_stdio_output@@AEAA_NXZ 0000000180043284 f i libucrt:output.obj
 0001:000422f8       ?state_case_normal_tchar@?$output_processor@DV?$string_output_adapter@D@__crt_stdio_output@@V?$standard_base@DV?$string_output_adapter@D@__crt_stdio_output@@@2@@__crt_stdio_output@@AEAA_ND@Z 00000001800432f8 f i libucrt:output.obj
 0001:00042390       ?state_case_size@?$output_processor@DV?$string_output_adapter@D@__crt_stdio_output@@V?$standard_base@DV?$string_output_adapter@D@__crt_stdio_output@@@2@@__crt_stdio_output@@AEAA_NXZ 0000000180043390 f i libucrt:output.obj
 0001:0004250c       ?state_case_size@?$output_processor@_WV?$stream_output_adapter@_W@__crt_stdio_output@@V?$standard_base@_WV?$stream_output_adapter@_W@__crt_stdio_output@@@2@@__crt_stdio_output@@AEAA_NXZ 000000018004350c f i libucrt:output.obj
 0001:000426b0       ?state_case_size@?$output_processor@_WV?$string_output_adapter@_W@__crt_stdio_output@@V?$standard_base@_WV?$string_output_adapter@_W@__crt_stdio_output@@@2@@__crt_stdio_output@@AEAA_NXZ 00000001800436b0 f i libucrt:output.obj
 0001:00042854       ?state_case_type@?$output_processor@DV?$string_output_adapter@D@__crt_stdio_output@@V?$standard_base@DV?$string_output_adapter@D@__crt_stdio_output@@@2@@__crt_stdio_output@@AEAA_NXZ 0000000180043854 f i libucrt:output.obj
 0001:00042ad0       ?state_case_type@?$output_processor@_WV?$stream_output_adapter@_W@__crt_stdio_output@@V?$standard_base@_WV?$stream_output_adapter@_W@__crt_stdio_output@@@2@@__crt_stdio_output@@AEAA_NXZ 0000000180043ad0 f i libucrt:output.obj
 0001:00042d9c       ?state_case_type@?$output_processor@_WV?$string_output_adapter@_W@__crt_stdio_output@@V?$standard_base@_WV?$string_output_adapter@_W@__crt_stdio_output@@@2@@__crt_stdio_output@@AEAA_NXZ 0000000180043d9c f i libucrt:output.obj
 0001:00043068       ?type_case_Z@?$output_processor@DV?$string_output_adapter@D@__crt_stdio_output@@V?$standard_base@DV?$string_output_adapter@D@__crt_stdio_output@@@2@@__crt_stdio_output@@AEAA_NXZ 0000000180044068 f i libucrt:output.obj
 0001:000430e8       ?type_case_Z@?$output_processor@_WV?$string_output_adapter@_W@__crt_stdio_output@@V?$standard_base@_WV?$string_output_adapter@_W@__crt_stdio_output@@@2@@__crt_stdio_output@@AEAA_NXZ 00000001800440e8 f i libucrt:output.obj
 0001:000430e8       ?type_case_Z@?$output_processor@_WV?$stream_output_adapter@_W@__crt_stdio_output@@V?$standard_base@_WV?$stream_output_adapter@_W@__crt_stdio_output@@@2@@__crt_stdio_output@@AEAA_NXZ 00000001800440e8 f i libucrt:output.obj
 0001:00043168       ?type_case_a@?$output_processor@DV?$string_output_adapter@D@__crt_stdio_output@@V?$standard_base@DV?$string_output_adapter@D@__crt_stdio_output@@@2@@__crt_stdio_output@@AEAA_NXZ 0000000180044168 f i libucrt:output.obj
 0001:00043384       ?type_case_a@?$output_processor@_WV?$string_output_adapter@_W@__crt_stdio_output@@V?$standard_base@_WV?$string_output_adapter@_W@__crt_stdio_output@@@2@@__crt_stdio_output@@AEAA_NXZ 0000000180044384 f i libucrt:output.obj
 0001:00043384       ?type_case_a@?$output_processor@_WV?$stream_output_adapter@_W@__crt_stdio_output@@V?$standard_base@_WV?$stream_output_adapter@_W@__crt_stdio_output@@@2@@__crt_stdio_output@@AEAA_NXZ 0000000180044384 f i libucrt:output.obj
 0001:000435c8       ?type_case_c_tchar@?$output_processor@DV?$string_output_adapter@D@__crt_stdio_output@@V?$standard_base@DV?$string_output_adapter@D@__crt_stdio_output@@@2@@__crt_stdio_output@@AEAA_ND@Z 00000001800445c8 f i libucrt:output.obj
 0001:0004367c       ?type_case_c_tchar@?$output_processor@_WV?$stream_output_adapter@_W@__crt_stdio_output@@V?$standard_base@_WV?$stream_output_adapter@_W@__crt_stdio_output@@@2@@__crt_stdio_output@@AEAA_N_W@Z 000000018004467c f i libucrt:output.obj
 0001:0004367c       ?type_case_c_tchar@?$output_processor@_WV?$string_output_adapter@_W@__crt_stdio_output@@V?$standard_base@_WV?$string_output_adapter@_W@__crt_stdio_output@@@2@@__crt_stdio_output@@AEAA_N_W@Z 000000018004467c f i libucrt:output.obj
 0001:00043724       ?type_case_integer@?$output_processor@_WV?$stream_output_adapter@_W@__crt_stdio_output@@V?$standard_base@_WV?$stream_output_adapter@_W@__crt_stdio_output@@@2@@__crt_stdio_output@@AEAA_NI_N@Z 0000000180044724 f i libucrt:output.obj
 0001:00043724       ?type_case_integer@?$output_processor@_WV?$string_output_adapter@_W@__crt_stdio_output@@V?$standard_base@_WV?$string_output_adapter@_W@__crt_stdio_output@@@2@@__crt_stdio_output@@AEAA_NI_N@Z 0000000180044724 f i libucrt:output.obj
 0001:00043724       ?type_case_integer@?$output_processor@DV?$string_output_adapter@D@__crt_stdio_output@@V?$standard_base@DV?$string_output_adapter@D@__crt_stdio_output@@@2@@__crt_stdio_output@@AEAA_NI_N@Z 0000000180044724 f i libucrt:output.obj
 0001:000438c4       ?type_case_n@?$output_processor@_WV?$string_output_adapter@_W@__crt_stdio_output@@V?$standard_base@_WV?$string_output_adapter@_W@__crt_stdio_output@@@2@@__crt_stdio_output@@AEAA_NXZ 00000001800448c4 f i libucrt:output.obj
 0001:000438c4       ?type_case_n@?$output_processor@_WV?$stream_output_adapter@_W@__crt_stdio_output@@V?$standard_base@_WV?$stream_output_adapter@_W@__crt_stdio_output@@@2@@__crt_stdio_output@@AEAA_NXZ 00000001800448c4 f i libucrt:output.obj
 0001:000438c4       ?type_case_n@?$output_processor@DV?$string_output_adapter@D@__crt_stdio_output@@V?$standard_base@DV?$string_output_adapter@D@__crt_stdio_output@@@2@@__crt_stdio_output@@AEAA_NXZ 00000001800448c4 f i libucrt:output.obj
 0001:000439a0       ?type_case_s@?$output_processor@DV?$string_output_adapter@D@__crt_stdio_output@@V?$standard_base@DV?$string_output_adapter@D@__crt_stdio_output@@@2@@__crt_stdio_output@@AEAA_NXZ 00000001800449a0 f i libucrt:output.obj
 0001:00043a30       ?type_case_s@?$output_processor@_WV?$stream_output_adapter@_W@__crt_stdio_output@@V?$standard_base@_WV?$stream_output_adapter@_W@__crt_stdio_output@@@2@@__crt_stdio_output@@AEAA_NXZ 0000000180044a30 f i libucrt:output.obj
 0001:00043a30       ?type_case_s@?$output_processor@_WV?$string_output_adapter@_W@__crt_stdio_output@@V?$standard_base@_WV?$string_output_adapter@_W@__crt_stdio_output@@@2@@__crt_stdio_output@@AEAA_NXZ 0000000180044a30 f i libucrt:output.obj
 0001:00043af8       ?write_stored_string_tchar@?$output_processor@DV?$string_output_adapter@D@__crt_stdio_output@@V?$standard_base@DV?$string_output_adapter@D@__crt_stdio_output@@@2@@__crt_stdio_output@@AEAA_ND@Z 0000000180044af8 f i libucrt:output.obj
 0001:00043bd0       ?write_stored_string_tchar@?$output_processor@_WV?$stream_output_adapter@_W@__crt_stdio_output@@V?$standard_base@_WV?$stream_output_adapter@_W@__crt_stdio_output@@@2@@__crt_stdio_output@@AEAA_N_W@Z 0000000180044bd0 f i libucrt:output.obj
 0001:00043cbc       ?write_stored_string_tchar@?$output_processor@_WV?$string_output_adapter@_W@__crt_stdio_output@@V?$standard_base@_WV?$string_output_adapter@_W@__crt_stdio_output@@@2@@__crt_stdio_output@@AEAA_N_W@Z 0000000180044cbc f i libucrt:output.obj
 0001:00043dac       ?write_string@?$stream_output_adapter@_W@__crt_stdio_output@@QEBAXQEB_WHQEAH1@Z 0000000180044dac f i libucrt:output.obj
 0001:00043eb8       ?write_string@?$string_output_adapter@D@__crt_stdio_output@@QEBAXQEBDHQEAH1@Z 0000000180044eb8 f i libucrt:output.obj
 0001:00043f74       ?write_string@?$string_output_adapter@_W@__crt_stdio_output@@QEBAXQEB_WHQEAH1@Z 0000000180044f74 f i libucrt:output.obj
 0001:00044034       __stdio_common_vfwprintf   0000000180045034 f   libucrt:output.obj
 0001:000440c0       __stdio_common_vsprintf    00000001800450c0 f   libucrt:output.obj
 0001:000442f4       __stdio_common_vswprintf   00000001800452f4 f   libucrt:output.obj
 0001:0004452c       free                       000000018004552c f   libucrt:free.obj
 0001:00044534       malloc                     0000000180045534 f   libucrt:malloc.obj
 0001:0004453c       __acrt_call_reportfault    000000018004553c f   libucrt:invalid_parameter.obj
 0001:00044698       __acrt_initialize_invalid_parameter_handler 0000000180045698 f   libucrt:invalid_parameter.obj
 0001:000446a0       _invalid_parameter         00000001800456a0 f   libucrt:invalid_parameter.obj
 0001:00044748       _invalid_parameter_noinfo  0000000180045748 f   libucrt:invalid_parameter.obj
 0001:00044768       _invalid_parameter_noinfo_noreturn 0000000180045768 f   libucrt:invalid_parameter.obj
 0001:00044798       _invoke_watson             0000000180045798 f   libucrt:invalid_parameter.obj
 0001:000447e0       realloc                    00000001800457e0 f   libucrt:realloc.obj
 0001:000451d0       ??$ftprintf@PEAU_iobuf@@PEB_WAEBQEB_WAEBQEB_WAEBI@?$__crt_char_traits@_W@@SAH$$QEAPEAU_iobuf@@$$QEAPEB_WAEBQEB_W2AEBI@Z 00000001800461d0 f i libucrt:assert.obj
 0001:000451f8       _wassert                   00000001800461f8 f   libucrt:assert.obj
 0001:0004527c       fwprintf                   000000018004627c f i libucrt:assert.obj
 0001:000452c0       swprintf                   00000001800462c0 f i libucrt:assert.obj
 0001:00045314       __ascii_stricmp            0000000180046314 f   libucrt:stricmp.obj
 0001:00045350       _stricmp                   0000000180046350 f   libucrt:stricmp.obj
 0001:00045398       _stricmp_l                 0000000180046398 f   libucrt:stricmp.obj
 0001:0004544c       __acrt_initialize_new_handler 000000018004644c f   libucrt:new_handler.obj
 0001:00045454       _callnewh                  0000000180046454 f   libucrt:new_handler.obj
 0001:00045494       _query_new_handler         0000000180046494 f   libucrt:new_handler.obj
 0001:000454c8       _seh_filter_dll            00000001800464c8 f   libucrt:exception_filter.obj
 0001:000454dc       _seh_filter_exe            00000001800464dc f   libucrt:exception_filter.obj
 0001:0004589c       __acrt_initialize_thread_local_exit_callback 000000018004689c f   libucrt:exit.obj
 0001:000458a4       _cexit                     00000001800468a4 f   libucrt:exit.obj
 0001:000458b4       _exit                      00000001800468b4 f   libucrt:exit.obj
 0001:000458c0       _is_c_termination_complete 00000001800468c0 f   libucrt:exit.obj
 0001:00045a84       __acrt_allocate_buffer_for_argv 0000000180046a84 f   libucrt:argv_parsing.obj
 0001:00045ae8       _configure_narrow_argv     0000000180046ae8 f   libucrt:argv_parsing.obj
 0001:00045e44       __dcrt_uninitialize_environments_nolock 0000000180046e44 f   libucrt:environment_initialization.obj
 0001:00045e7c       _initialize_narrow_environment 0000000180046e7c f   libucrt:environment_initialization.obj
 0001:00045e84       ??$?RV<lambda_b8c45f8f788dd370798f47cfe8ac3a86>@@AEAV<lambda_4e60a939b0d047cfe11ddc22648dfba9>@@V<lambda_332c3edc96d0294ec56c57d38c1cdfd5>@@@?$__crt_seh_guarded_call@H@@QEAAH$$QEAV<lambda_b8c45f8f788dd370798f47cfe8ac3a86>@@AEAV<lambda_4e60a939b0d047cfe11ddc22648dfba9>@@$$QEAV<lambda_332c3edc96d0294ec56c57d38c1cdfd5>@@@Z 0000000180046e84 f i libucrt:onexit.obj
 0001:00045ec0       ??$?RV<lambda_e24bbb7b643b32fcea6fa61b31d4c984>@@AEAV<lambda_275893d493268fdec8709772e3fcec0e>@@V<lambda_9d71df4d7cf3f480f8d633942495c3b0>@@@?$__crt_seh_guarded_call@H@@QEAAH$$QEAV<lambda_e24bbb7b643b32fcea6fa61b31d4c984>@@AEAV<lambda_275893d493268fdec8709772e3fcec0e>@@$$QEAV<lambda_9d71df4d7cf3f480f8d633942495c3b0>@@@Z 0000000180046ec0 f i libucrt:onexit.obj
 0001:0004623c       _crt_atexit                000000018004723c f   libucrt:onexit.obj
 0001:0004624c       _execute_onexit_table      000000018004724c f   libucrt:onexit.obj
 0001:00046288       _initialize_onexit_table   0000000180047288 f   libucrt:onexit.obj
 0001:000462c8       _register_onexit_function  00000001800472c8 f   libucrt:onexit.obj
 0001:00046348       __acrt_uninitialize_command_line 0000000180047348 f   libucrt:argv_data.obj
 0001:00046448       __acrt_initialize          0000000180047448 f   libucrt:initialization.obj
 0001:0004645c       __acrt_thread_attach       000000018004745c f   libucrt:initialization.obj
 0001:00046470       __acrt_thread_detach       0000000180047470 f   libucrt:initialization.obj
 0001:00046480       __acrt_uninitialize        0000000180047480 f   libucrt:initialization.obj
 0001:00046494       __acrt_uninitialize_critical 0000000180047494 f   libucrt:initialization.obj
 0001:000464a4       _initterm                  00000001800474a4 f   libucrt:initterm.obj
 0001:0004651c       _initterm_e                000000018004751c f   libucrt:initterm.obj
 0001:00046568       terminate                  0000000180047568 f   libucrt:terminate.obj
 0001:00046590       abort                      0000000180047590 f   libucrt:abort.obj
 0001:000465e8       strcpy_s                   00000001800475e8 f   libucrt:strcpy_s.obj
 0001:00046648       _free_base                 0000000180047648 f   libucrt:free_base.obj
 0001:00046688       _malloc_base               0000000180047688 f   libucrt:malloc_base.obj
 0001:000466e8       _calloc_base               00000001800476e8 f   libucrt:calloc_base.obj
 0001:00046760       ??$is_overflow_condition@K@__crt_strtox@@YA_NIK@Z 0000000180047760 f i libucrt:atox.obj
 0001:0004678c       ??$parse_integer@KV?$c_string_character_source@D@__crt_strtox@@@__crt_strtox@@YAKQEAU__crt_locale_pointers@@V?$c_string_character_source@D@0@H_N@Z 000000018004778c f i libucrt:atox.obj
 0001:00046aa0       ??$parse_integer@KV?$c_string_character_source@_W@__crt_strtox@@@__crt_strtox@@YAKQEAU__crt_locale_pointers@@V?$c_string_character_source@_W@0@H_N@Z 0000000180047aa0 f i libucrt:atox.obj
 0001:00047174       isdigit                    0000000180048174 f i libucrt:_ctype.obj
 0001:00047238       _tolower_l                 0000000180048238 f   libucrt:tolower_toupper.obj
 0001:00047378       tolower                    0000000180048378 f   libucrt:tolower_toupper.obj
 0001:000473a4       __acrt_errno_from_os_error 00000001800483a4 f   libucrt:errno.obj
 0001:000473ec       __acrt_errno_map_os_error  00000001800483ec f   libucrt:errno.obj
 0001:0004743c       __doserrno                 000000018004843c f   libucrt:errno.obj
 0001:0004745c       _errno                     000000018004845c f   libucrt:errno.obj
 0001:0004747c       ??$make_c_string_character_source@_WPEAPEA_W@__crt_strtox@@YA?AV?$c_string_character_source@_W@0@QEB_WQEAPEA_W@Z 000000018004847c f i libucrt:strtox.obj
 0001:0004747c       ??$make_c_string_character_source@DPEAPEAD@__crt_strtox@@YA?AV?$c_string_character_source@D@0@QEBDQEAPEAD@Z 000000018004847c f i libucrt:strtox.obj
 0001:00047490       strtol                     0000000180048490 f   libucrt:strtox.obj
 0001:000474c0       wcstol                     00000001800484c0 f   libucrt:strtox.obj
 0001:000474f0       _mbtowc_l                  00000001800484f0 f   libucrt:mbtowc.obj
 0001:00047638       mbtowc                     0000000180048638 f   libucrt:mbtowc.obj
 0001:00047640       _wctomb_s_l                0000000180048640 f   libucrt:wctomb.obj
 0001:000477c4       wctomb_s                   00000001800487c4 f   libucrt:wctomb.obj
 0001:000477d8       strnlen                    00000001800487d8 f   libucrt:strnlen.obj
 0001:00047934       wcsnlen                    0000000180048934 f   libucrt:strnlen.obj
 0001:00047b24       ??$?RV<lambda_46352004c1216016012b18bd6f87e700>@@AEAV<lambda_3bd07e1a1191394380780325891bf33f>@@V<lambda_334532d3f185bcaa59b5be82d7d22bff>@@@?$__crt_seh_guarded_call@X@@QEAAX$$QEAV<lambda_46352004c1216016012b18bd6f87e700>@@AEAV<lambda_3bd07e1a1191394380780325891bf33f>@@$$QEAV<lambda_334532d3f185bcaa59b5be82d7d22bff>@@@Z 0000000180048b24 f i libucrt:per_thread_data.obj
 0001:00047b84       ??$?RV<lambda_5e887d1dcbef67a5eb4283622ba103bf>@@AEAV<lambda_4466841279450cc726390878d4a41900>@@V<lambda_341c25c0346d94847f1f3c463c57e077>@@@?$__crt_seh_guarded_call@X@@QEAAX$$QEAV<lambda_5e887d1dcbef67a5eb4283622ba103bf>@@AEAV<lambda_4466841279450cc726390878d4a41900>@@$$QEAV<lambda_341c25c0346d94847f1f3c463c57e077>@@@Z 0000000180048b84 f i libucrt:per_thread_data.obj
 0001:00047bcc       ??$?RV<lambda_72d1df2b273a38828b1ce30cbf4cdab5>@@AEAV<lambda_876a65b173b8412d3a47c70a915b0cf4>@@V<lambda_41932305e351933ebe8f8be3ed8bb5dc>@@@?$__crt_seh_guarded_call@X@@QEAAX$$QEAV<lambda_72d1df2b273a38828b1ce30cbf4cdab5>@@AEAV<lambda_876a65b173b8412d3a47c70a915b0cf4>@@$$QEAV<lambda_41932305e351933ebe8f8be3ed8bb5dc>@@@Z 0000000180048bcc f i libucrt:per_thread_data.obj
 0001:00047c0c       ??$?RV<lambda_fb3a7dec4e47f37f22dae91bb15c9095>@@AEAV<lambda_698284760c8add0bfb0756c19673e34b>@@V<lambda_dfb8eca1e75fef3034a8fb18dd509707>@@@?$__crt_seh_guarded_call@X@@QEAAX$$QEAV<lambda_fb3a7dec4e47f37f22dae91bb15c9095>@@AEAV<lambda_698284760c8add0bfb0756c19673e34b>@@$$QEAV<lambda_dfb8eca1e75fef3034a8fb18dd509707>@@@Z 0000000180048c0c f i libucrt:per_thread_data.obj
 0001:00047e9c       __acrt_freeptd             0000000180048e9c f   libucrt:per_thread_data.obj
 0001:00047ee0       __acrt_getptd              0000000180048ee0 f   libucrt:per_thread_data.obj
 0001:00047f74       __acrt_getptd_noexit       0000000180048f74 f   libucrt:per_thread_data.obj
 0001:00048014       __acrt_initialize_ptd      0000000180049014 f   libucrt:per_thread_data.obj
 0001:00048050       __acrt_uninitialize_ptd    0000000180049050 f   libucrt:per_thread_data.obj
 0001:00048074       __acrt_update_locale_info  0000000180049074 f   libucrt:locale_update.obj
 0001:000480a8       __acrt_update_multibyte_info 00000001800490a8 f   libucrt:locale_update.obj
 0001:000480dc       ?__acrt_fp_classify@@YA?AW4__acrt_fp_class@@AEBN@Z 00000001800490dc f i libucrt:cvt.obj
 0001:00048b14       __acrt_fp_format           0000000180049b14 f   libucrt:cvt.obj
 0001:00048d58       _fputwc_nolock             0000000180049d58 f   libucrt:fputwc.obj
 0001:00048ed4       _fileno                    0000000180049ed4 f   libucrt:fileno.obj
 0001:00048efc       __acrt_initialize_stdio    0000000180049efc f   libucrt:_file.obj
 0001:0004901c       __acrt_iob_func            000000018004a01c f   libucrt:_file.obj
 0001:00049030       __acrt_uninitialize_stdio  000000018004a030 f   libucrt:_file.obj
 0001:0004908c       _lock_file                 000000018004a08c f   libucrt:_file.obj
 0001:00049098       _unlock_file               000000018004a098 f   libucrt:_file.obj
 0001:000490a4       _fputc_nolock              000000018004a0a4 f   libucrt:fputc.obj
 0001:000490bc       _get_printf_count_output   000000018004a0bc f   libucrt:printf_count_output.obj
 0001:000490d4       __acrt_stdio_begin_temporary_buffering_nolock 000000018004a0d4 f   libucrt:_sftbuf.obj
 0001:000491a4       __acrt_stdio_end_temporary_buffering_nolock 000000018004a1a4 f   libucrt:_sftbuf.obj
 0001:000491e0       __acrt_set_locale_changed  000000018004a1e0 f   libucrt:wsetlocale.obj
 0001:000491ec       __acrt_uninitialize_locale 000000018004a1ec f   libucrt:wsetlocale.obj
 0001:0004941c       __acrt_initialize_lowio    000000018004a41c f   libucrt:ioinit.obj
 0001:00049458       __acrt_uninitialize_lowio  000000018004a458 f   libucrt:ioinit.obj
 0001:00049498       _realloc_base              000000018004a498 f   libucrt:realloc_base.obj
 0001:0004951c       _query_app_type            000000018004a51c f   libucrt:report_runtime_error.obj
 0001:0004964c       _itow_s                    000000018004a64c f   libucrt:xtoa.obj
 0001:0004966c       _set_error_mode            000000018004a66c f   libucrt:set_error_mode.obj
 0001:000496ac       wcscat_s                   000000018004a6ac f   libucrt:wcscat_s.obj
 0001:0004972c       wcscpy_s                   000000018004a72c f   libucrt:wcscpy_s.obj
 0001:00049794       wcsncat_s                  000000018004a794 f   libucrt:wcsncat_s.obj
 0001:000498bc       __acrt_show_wide_message_box 000000018004a8bc f   libucrt:crtmbox.obj
 0001:000499d8       __acrt_stdio_flush_nolock  000000018004a9d8 f   libucrt:fflush.obj
 0001:00049a50       _fflush_nolock             000000018004aa50 f   libucrt:fflush.obj
 0001:00049a9c       _flushall                  000000018004aa9c f   libucrt:fflush.obj
 0001:00049b8c       fflush                     000000018004ab8c f   libucrt:fflush.obj
 0001:00049bd0       ??$?RV<lambda_7a5ef57ff966f610505f1d28a3d40618>@@AEAV<lambda_b721fa326cdb32351d23dfa67958c160>@@V<lambda_5e0fb27672408a07956fe59e48ccb2aa>@@@?$__crt_seh_guarded_call@H@@QEAAH$$QEAV<lambda_7a5ef57ff966f610505f1d28a3d40618>@@AEAV<lambda_b721fa326cdb32351d23dfa67958c160>@@$$QEAV<lambda_5e0fb27672408a07956fe59e48ccb2aa>@@@Z 000000018004abd0 f i libucrt:setvbuf.obj
 0001:00049d00       setvbuf                    000000018004ad00 f   libucrt:setvbuf.obj
 0001:00049da0       ??$?RV<lambda_c36588078e9f5dfd39652860aa6b3aaf>@@AEAV<lambda_ec61778202f4f5fc7e7711acc23c3bca>@@V<lambda_dc9d2797ccde5d239b4a0efae8ebd7db>@@@?$__crt_seh_guarded_call@P6AXH@Z@@QEAAP6AXH@Z$$QEAV<lambda_c36588078e9f5dfd39652860aa6b3aaf>@@AEAV<lambda_ec61778202f4f5fc7e7711acc23c3bca>@@$$QEAV<lambda_dc9d2797ccde5d239b4a0efae8ebd7db>@@@Z 000000018004ada0 f i libucrt:signal.obj
 0001:00049de8       __acrt_get_sigabrt_handler 000000018004ade8 f   libucrt:signal.obj
 0001:00049e18       __acrt_initialize_signal_handlers 000000018004ae18 f   libucrt:signal.obj
 0001:00049e38       raise                      000000018004ae38 f   libucrt:signal.obj
 0001:0004a0d4       __acrt_initialize_locks    000000018004b0d4 f   libucrt:locks.obj
 0001:0004a11c       __acrt_lock                000000018004b11c f   libucrt:locks.obj
 0001:0004a138       __acrt_uninitialize_locks  000000018004b138 f   libucrt:locks.obj
 0001:0004a170       __acrt_unlock              000000018004b170 f   libucrt:locks.obj
 0001:0004a32c       __acrt_FlsAlloc            000000018004b32c f   libucrt:winapi_thunks.obj
 0001:0004a384       __acrt_FlsFree             000000018004b384 f   libucrt:winapi_thunks.obj
 0001:0004a3dc       __acrt_FlsGetValue         000000018004b3dc f   libucrt:winapi_thunks.obj
 0001:0004a434       __acrt_FlsSetValue         000000018004b434 f   libucrt:winapi_thunks.obj
 0001:0004a49c       __acrt_InitializeCriticalSectionEx 000000018004b49c f   libucrt:winapi_thunks.obj
 0001:0004a514       __acrt_LCMapStringEx       000000018004b514 f   libucrt:winapi_thunks.obj
 0001:0004a604       __acrt_LocaleNameToLCID    000000018004b604 f   libucrt:winapi_thunks.obj
 0001:0004a66c       __acrt_MessageBoxW         000000018004b66c f   libucrt:winapi_thunks.obj
 0001:0004a6f4       __acrt_can_show_message_box 000000018004b6f4 f   libucrt:winapi_thunks.obj
 0001:0004a750       __acrt_get_parent_window   000000018004b750 f   libucrt:winapi_thunks.obj
 0001:0004a7e0       __acrt_initialize_winapi_thunks 000000018004b7e0 f   libucrt:winapi_thunks.obj
 0001:0004a818       __acrt_is_interactive      000000018004b818 f   libucrt:winapi_thunks.obj
 0001:0004a8ec       __acrt_is_packaged_app     000000018004b8ec f   libucrt:winapi_thunks.obj
 0001:0004a974       __acrt_uninitialize_winapi_thunks 000000018004b974 f   libucrt:winapi_thunks.obj
 0001:0004ae94       ?expand_if_necessary@?$argument_list@D@?A0xca0879c4@@AEAAHXZ 000000018004be94 f i libucrt:argv_wildcards.obj
 0001:0004af5c       __acrt_expand_narrow_argv_wildcards 000000018004bf5c f   libucrt:argv_wildcards.obj
 0001:0004af64       ??$?RV<lambda_99476a1ad63dd22509b5d3e65b0ffc95>@@AEAV<lambda_ad1ced32f4ac17aa236e5ef05d6b3b7c>@@V<lambda_f7424dd8d45958661754dc4f2697e9c3>@@@?$__crt_seh_guarded_call@X@@QEAAX$$QEAV<lambda_99476a1ad63dd22509b5d3e65b0ffc95>@@AEAV<lambda_ad1ced32f4ac17aa236e5ef05d6b3b7c>@@$$QEAV<lambda_f7424dd8d45958661754dc4f2697e9c3>@@@Z 000000018004bf64 f i libucrt:mbctype.obj
 0001:0004b660       __acrt_initialize_multibyte 000000018004c660 f   libucrt:mbctype.obj
 0001:0004b688       __acrt_update_thread_multibyte_data 000000018004c688 f   libucrt:mbctype.obj
 0001:0004b748       _setmbcp_nolock            000000018004c748 f   libucrt:mbctype.obj
 0001:0004ba68       _ismbblead                 000000018004ca68 f   libucrt:ismbbyte.obj
 0001:0004ba7c       __acrt_initialize_command_line 000000018004ca7c f   libucrt:argv_data.obj
 0001:0004baa4       __dcrt_get_narrow_environment_from_os 000000018004caa4 f   libucrt:get_environment_from_os.obj
 0001:0004bba8       _recalloc                  000000018004cba8 f   libucrt:recalloc.obj
 0001:0004bbb0       _recalloc_base             000000018004cbb0 f   libucrt:recalloc.obj
 0001:0004bc48       __acrt_initialize_heap     000000018004cc48 f   libucrt:heap_handle.obj
 0001:0004bc64       __acrt_uninitialize_heap   000000018004cc64 f   libucrt:heap_handle.obj
 0001:0004bc70       __acrt_execute_initializers 000000018004cc70 f   libucrt:shared_initialization.obj
 0001:0004bd04       __acrt_execute_uninitializers 000000018004cd04 f   libucrt:shared_initialization.obj
 0001:0004bd54       __acrt_has_user_matherr    000000018004cd54 f   libucrt:matherr.obj
 0001:0004bd74       __acrt_initialize_user_matherr 000000018004cd74 f   libucrt:matherr.obj
 0001:0004bd7c       __acrt_invoke_user_matherr 000000018004cd7c f   libucrt:matherr.obj
 0001:0004bdc4       _query_new_mode            000000018004cdc4 f   libucrt:new_mode.obj
 0001:0004bdcc       __pctype_func              000000018004cdcc f   libucrt:ctype.obj
 0001:0004bdfc       iswctype                   000000018004cdfc f   libucrt:iswctype.obj
 0001:0004be6c       _isctype_l                 000000018004ce6c f   libucrt:isctype.obj
 0001:0004bf7c       _isleadbyte_l              000000018004cf7c f i libucrt:_wctype.obj
 0001:0004c318       __acrt_LCMapStringA        000000018004d318 f   libucrt:lcmapstringa.obj
 0001:0004c3b0       __acrt_add_locale_ref      000000018004d3b0 f   libucrt:locale_refcounting.obj
 0001:0004c43c       __acrt_free_locale         000000018004d43c f   libucrt:locale_refcounting.obj
 0001:0004c5b4       __acrt_locale_add_lc_time_reference 000000018004d5b4 f   libucrt:locale_refcounting.obj
 0001:0004c5dc       __acrt_locale_free_lc_time_if_unreferenced 000000018004d5dc f   libucrt:locale_refcounting.obj
 0001:0004c614       __acrt_locale_release_lc_time_reference 000000018004d614 f   libucrt:locale_refcounting.obj
 0001:0004c63c       __acrt_release_locale_ref  000000018004d63c f   libucrt:locale_refcounting.obj
 0001:0004c6e4       __acrt_update_thread_locale_data 000000018004d6e4 f   libucrt:locale_refcounting.obj
 0001:0004c754       _updatetlocinfoEx_nolock   000000018004d754 f   libucrt:locale_refcounting.obj
 0001:0004c7bc       __acrt_fp_strflt_to_string 000000018004d7bc f   libucrt:_fptostr.obj
 0001:0004c880       ?divide@__crt_strtox@@YA_KAEAUbig_integer@1@AEBU21@@Z 000000018004d880 f i libucrt:cfout.obj
 0001:0004cd50       __acrt_fltout              000000018004dd50 f   libucrt:cfout.obj
 0001:0004e354       __acrt_stdio_flush_and_write_narrow_nolock 000000018004f354 f   libucrt:_flsbuf.obj
 0001:0004e43c       __acrt_stdio_flush_and_write_wide_nolock 000000018004f43c f   libucrt:_flsbuf.obj
 0001:0004e528       _fcloseall                 000000018004f528 f   libucrt:closeall.obj
 0001:0004e5dc       __acrt_stdio_free_buffer_nolock 000000018004f5dc f   libucrt:_freebuf.obj
 0001:0004e61c       _isatty                    000000018004f61c f   libucrt:isatty.obj
 0001:0004e67c       __acrt_locale_free_monetary 000000018004f67c f   libucrt:initmon.obj
 0001:0004e788       __acrt_locale_free_numeric 000000018004f788 f   libucrt:initnum.obj
 0001:0004e84c       __acrt_locale_free_time    000000018004f84c f   libucrt:inittime.obj
 0001:0004e954       __acrt_GetStringTypeA      000000018004f954 f   libucrt:getstringtypea.obj
 0001:0004eb08       __acrt_lowio_create_handle_array 000000018004fb08 f   libucrt:osfinfo.obj
 0001:0004eba0       __acrt_lowio_destroy_handle_array 000000018004fba0 f   libucrt:osfinfo.obj
 0001:0004ebf0       __acrt_lowio_ensure_fh_exists 000000018004fbf0 f   libucrt:osfinfo.obj
 0001:0004eca8       __acrt_lowio_lock_fh       000000018004fca8 f   libucrt:osfinfo.obj
 0001:0004eccc       __acrt_lowio_unlock_fh     000000018004fccc f   libucrt:osfinfo.obj
 0001:0004ecf0       _free_osfhnd               000000018004fcf0 f   libucrt:osfinfo.obj
 0001:0004edac       _get_osfhandle             000000018004fdac f   libucrt:osfinfo.obj
 0001:0004ee24       ??$?RV<lambda_b521505b218e5242e90febf6bfebc422>@@AEAV<lambda_6978c1fb23f02e42e1d9e99668cc68aa>@@V<lambda_314360699dd331753a4119843814e9a7>@@@?$__crt_seh_guarded_call@H@@QEAAH$$QEAV<lambda_b521505b218e5242e90febf6bfebc422>@@AEAV<lambda_6978c1fb23f02e42e1d9e99668cc68aa>@@$$QEAV<lambda_314360699dd331753a4119843814e9a7>@@@Z 000000018004fe24 f i libucrt:commit.obj
 0001:0004eeb0       _commit                    000000018004feb0 f   libucrt:commit.obj
 0001:0004f4e4       _write                     00000001800504e4 f   libucrt:write.obj
 0001:0004f5d0       _write_nolock              00000001800505d0 f   libucrt:write.obj
 0001:0004f97c       __acrt_DownlevelLocaleNameToLCID 000000018005097c f   libucrt:lcidtoname_downlevel.obj
 0001:0004fa80       qsort                      0000000180050a80 f   libucrt:qsort.obj
 0001:0004fdb4       strncpy_s                  0000000180050db4 f   libucrt:strncpy_s.obj
 0001:0004fe88       strpbrk                    0000000180050e88 f   libucrt:strpbrk.obj
 0001:0004ff28       _mbsdec                    0000000180050f28 f   libucrt:mbsdec.obj
 0001:0004ff30       _mbsdec_l                  0000000180050f30 f   libucrt:mbsdec.obj
 0001:0004ffe0       _msize                     0000000180050fe0 f   libucrt:msize.obj
 0001:0005001c       __strncnt                  000000018005101c f   libucrt:strncnt.obj
 0001:00050034       fegetenv                   0000000180051034 f   libucrt:fegetenv.obj
 0001:00050054       fesetenv                   0000000180051054 f   libucrt:fesetenv.obj
 0001:000500a0       feholdexcept               00000001800510a0 f   libucrt:feholdexcept.obj
 0001:000500f0       ceil                       00000001800510f0 f   libucrt:ceil.obj
 0001:000501c0       log10                      00000001800511c0 f   libucrt:log10.obj
 0001:000508f8       _lseeki64                  00000001800518f8 f   libucrt:lseek.obj
 0001:00050900       _lseeki64_nolock           0000000180051900 f   libucrt:lseek.obj
 0001:00050908       __acrt_stdio_allocate_buffer_nolock 0000000180051908 f   libucrt:_getbuf.obj
 0001:0005096c       _fclose_nolock             000000018005196c f   libucrt:fclose.obj
 0001:000509f0       fclose                     00000001800519f0 f   libucrt:fclose.obj
 0001:00050a5c       _putwch_nolock             0000000180051a5c f   libucrt:putwch.obj
 0001:00050ab8       _getfpcontrolword          0000000180051ab8 f   libucrt:_fenvutils.obj
 0001:00050ad0       _getfpstatusword           0000000180051ad0 f   libucrt:_fenvutils.obj
 0001:00050ae4       _setfpcontrolword          0000000180051ae4 f   libucrt:_fenvutils.obj
 0001:00050af0       _setfpstatusword           0000000180051af0 f   libucrt:_fenvutils.obj
 0001:00050b40       _clearfp                   0000000180051b40 f   libucrt:ieee.obj
 0001:00050b94       _controlfp                 0000000180051b94 f   libucrt:ieee.obj
 0001:00050ba0       _statusfp                  0000000180051ba0 f   libucrt:ieee.obj
 0001:00050fa4       _handle_error              0000000180051fa4 f   libucrt:libm_error.obj
 0001:000510cc       _handle_nan                00000001800520cc f   libucrt:libm_error.obj
 0001:000510f0       __acrt_initialize_fma3     00000001800520f0 f   libucrt:fma3_available.obj
 0001:00051160       _log10_special             0000000180052160 f   libucrt:log_special.obj
 0001:00051218       ??$?RV<lambda_bfedae4ebbf01fab1bb6dcc6a9e276e0>@@AEAV<lambda_2fe9b910cf3cbf4a0ab98a02ba45b3ec>@@V<lambda_237c231691f317818eb88cc1d5d642d6>@@@?$__crt_seh_guarded_call@H@@QEAAH$$QEAV<lambda_bfedae4ebbf01fab1bb6dcc6a9e276e0>@@AEAV<lambda_2fe9b910cf3cbf4a0ab98a02ba45b3ec>@@$$QEAV<lambda_237c231691f317818eb88cc1d5d642d6>@@@Z 0000000180052218 f i libucrt:close.obj
 0001:0005128c       _close                     000000018005228c f   libucrt:close.obj
 0001:00051330       _close_nolock              0000000180052330 f   libucrt:close.obj
 0001:000513ec       ?__acrt_stdio_free_stream@@YAXV__crt_stdio_stream@@@Z 00000001800523ec f   libucrt:stream.obj
 0001:00051430       __dcrt_lowio_initialize_console_output 0000000180052430 f   libucrt:initcon.obj
 0001:0005146c       __dcrt_terminate_console_output 000000018005246c f   libucrt:initcon.obj
 0001:000514a0       _get_fpsr                  00000001800524a0 f   libucrt:fpsr.obj
 0001:000514b0       _set_fpsr                  00000001800524b0 f   libucrt:fpsr.obj
 0001:000514ba       _fclrf                     00000001800524ba f   libucrt:fpsr.obj
 0001:000514ce       _frnd                      00000001800524ce f   libucrt:fpsr.obj
 0001:000514f0       _raise_exc                 00000001800524f0 f   libucrt:fpexcept.obj
 0001:00051518       _raise_exc_ex              0000000180052518 f   libucrt:fpexcept.obj
 0001:00051820       _set_errno_from_matherr    0000000180052820 f   libucrt:fpexcept.obj
 0001:00051850       _clrfp                     0000000180052850 f   libucrt:fpctrl.obj
 0001:00051870       _ctrlfp                    0000000180052870 f   libucrt:fpctrl.obj
 0001:000518ec       _set_statfp                00000001800528ec f   libucrt:fpctrl.obj
 0001:0005190c       _statfp                    000000018005290c f   libucrt:fpctrl.obj
 0001:0005191e       IsProcessorFeaturePresent  000000018005291e f   kernel32:KERNEL32.dll
 0001:00051924       RtlUnwindEx                0000000180052924 f   kernel32:KERNEL32.dll
 0001:0005192c       ?DloadAcquireSectionWriteAccess@@YAXXZ 000000018005292c f i DelayImp:delayhlp.obj
 0001:000519e8       ?DloadGetSRWLockFunctionPointers@@YAEXZ 00000001800529e8 f i DelayImp:delayhlp.obj
 0001:00051a84       ?DloadMakePermanentImageCommit@@YAXPEAX_K@Z 0000000180052a84 f i DelayImp:delayhlp.obj
 0001:00051b1c       ?DloadObtainSection@@YAPEAXPEAK0@Z 0000000180052b1c f i DelayImp:delayhlp.obj
 0001:00051bb4       ?DloadProtectSection@@YAXKPEAK@Z 0000000180052bb4 f i DelayImp:delayhlp.obj
 0001:00051c44       ?DloadReleaseSectionWriteAccess@@YAXXZ 0000000180052c44 f i DelayImp:delayhlp.obj
 0001:00051ce8       __delayLoadHelper2         0000000180052ce8 f   DelayImp:delayhlp.obj
 0001:00051ff0       _FindPESection             0000000180052ff0 f   LIBCMT:pesect.obj
 0001:00052040       _IsNonwritableInCurrentImage 0000000180053040 f   LIBCMT:pesect.obj
 0001:00052090       _ValidateImageBase         0000000180053090 f   LIBCMT:pesect.obj
 0001:000520c0       __GSHandlerCheck           00000001800530c0 f   LIBCMT:_gshandler_.obj
 0001:000520e0       __GSHandlerCheckCommon     00000001800530e0 f   LIBCMT:_gshandler_.obj
 0001:00052150       _alloca_probe              0000000180053150 f   LIBCMT:_chkstk_.obj
 0001:00052150       __chkstk                   0000000180053150 f   LIBCMT:_chkstk_.obj
 0001:000521a4       strrchr                    00000001800531a4 f   libvcruntime:strrchr.obj
 0001:00052300       memcmp                     0000000180053300 f   libvcruntime:memcmp.obj
 0001:000523c8       __GSHandlerCheck_EH        00000001800533c8 f   LIBCMT:gshandlereh.obj
 0001:00052460       _guard_dispatch_icall_nop  0000000180053460 f   LIBCMT:_guard_dispatch_.obj
 0001:00060ef0       ??__Fmy_constructor@?1??constructor@WPKCS11@@KAAEAV?$Persistent@VFunction@v8@@V?$NonCopyablePersistentTraits@VFunction@v8@@@2@@Nan@@XZ@YAXXZ 0000000180061ef0 f i node.obj
 0002:00000000       __imp_SetLastError         0000000180062000     kernel32:KERNEL32.dll
 0002:00000008       __imp_SetErrorMode         0000000180062008     kernel32:KERNEL32.dll
 0002:00000010       __imp_GetModuleHandleA     0000000180062010     kernel32:KERNEL32.dll
 0002:00000018       __imp_MultiByteToWideChar  0000000180062018     kernel32:KERNEL32.dll
 0002:00000020       __imp_GetLastError         0000000180062020     kernel32:KERNEL32.dll
 0002:00000028       __imp_LoadLibraryW         0000000180062028     kernel32:KERNEL32.dll
 0002:00000030       __imp_GetProcAddress       0000000180062030     kernel32:KERNEL32.dll
 0002:00000038       __imp_FreeLibrary          0000000180062038     kernel32:KERNEL32.dll
 0002:00000040       __imp_CloseHandle          0000000180062040     kernel32:KERNEL32.dll
 0002:00000048       __imp_EnterCriticalSection 0000000180062048     kernel32:KERNEL32.dll
 0002:00000050       __imp_LeaveCriticalSection 0000000180062050     kernel32:KERNEL32.dll
 0002:00000058       __imp_DeleteCriticalSection 0000000180062058     kernel32:KERNEL32.dll
 0002:00000060       __imp_SetEvent             0000000180062060     kernel32:KERNEL32.dll
 0002:00000068       __imp_ResetEvent           0000000180062068     kernel32:KERNEL32.dll
 0002:00000070       __imp_WaitForSingleObjectEx 0000000180062070     kernel32:KERNEL32.dll
 0002:00000078       __imp_CreateEventW         0000000180062078     kernel32:KERNEL32.dll
 0002:00000080       __imp_GetModuleHandleW     0000000180062080     kernel32:KERNEL32.dll
 0002:00000088       __imp_RtlCaptureContext    0000000180062088     kernel32:KERNEL32.dll
 0002:00000090       __imp_RtlLookupFunctionEntry 0000000180062090     kernel32:KERNEL32.dll
 0002:00000098       __imp_RtlVirtualUnwind     0000000180062098     kernel32:KERNEL32.dll
 0002:000000a0       __imp_UnhandledExceptionFilter 00000001800620a0     kernel32:KERNEL32.dll
 0002:000000a8       __imp_SetUnhandledExceptionFilter 00000001800620a8     kernel32:KERNEL32.dll
 0002:000000b0       __imp_GetCurrentProcess    00000001800620b0     kernel32:KERNEL32.dll
 0002:000000b8       __imp_TerminateProcess     00000001800620b8     kernel32:KERNEL32.dll
 0002:000000c0       __imp_IsProcessorFeaturePresent 00000001800620c0     kernel32:KERNEL32.dll
 0002:000000c8       __imp_IsDebuggerPresent    00000001800620c8     kernel32:KERNEL32.dll
 0002:000000d0       __imp_GetStartupInfoW      00000001800620d0     kernel32:KERNEL32.dll
 0002:000000d8       __imp_QueryPerformanceCounter 00000001800620d8     kernel32:KERNEL32.dll
 0002:000000e0       __imp_GetCurrentProcessId  00000001800620e0     kernel32:KERNEL32.dll
 0002:000000e8       __imp_GetCurrentThreadId   00000001800620e8     kernel32:KERNEL32.dll
 0002:000000f0       __imp_GetSystemTimeAsFileTime 00000001800620f0     kernel32:KERNEL32.dll
 0002:000000f8       __imp_InitializeSListHead  00000001800620f8     kernel32:KERNEL32.dll
 0002:00000100       __imp_RtlPcToFileHeader    0000000180062100     kernel32:KERNEL32.dll
 0002:00000108       __imp_EncodePointer        0000000180062108     kernel32:KERNEL32.dll
 0002:00000110       __imp_RaiseException       0000000180062110     kernel32:KERNEL32.dll
 0002:00000118       __imp_InitializeCriticalSectionAndSpinCount 0000000180062118     kernel32:KERNEL32.dll
 0002:00000120       __imp_TlsAlloc             0000000180062120     kernel32:KERNEL32.dll
 0002:00000128       __imp_TlsGetValue          0000000180062128     kernel32:KERNEL32.dll
 0002:00000130       __imp_TlsSetValue          0000000180062130     kernel32:KERNEL32.dll
 0002:00000138       __imp_TlsFree              0000000180062138     kernel32:KERNEL32.dll
 0002:00000140       __imp_LoadLibraryExW       0000000180062140     kernel32:KERNEL32.dll
 0002:00000148       __imp_RtlUnwindEx          0000000180062148     kernel32:KERNEL32.dll
 0002:00000150       __imp_InterlockedFlushSList 0000000180062150     kernel32:KERNEL32.dll
 0002:00000158       __imp_GetStdHandle         0000000180062158     kernel32:KERNEL32.dll
 0002:00000160       __imp_GetFileType          0000000180062160     kernel32:KERNEL32.dll
 0002:00000168       __imp_GetModuleFileNameA   0000000180062168     kernel32:KERNEL32.dll
 0002:00000170       __imp_GetModuleFileNameW   0000000180062170     kernel32:KERNEL32.dll
 0002:00000178       __imp_GetModuleHandleExW   0000000180062178     kernel32:KERNEL32.dll
 0002:00000180       __imp_WriteConsoleW        0000000180062180     kernel32:KERNEL32.dll
 0002:00000188       __imp_ExitProcess          0000000180062188     kernel32:KERNEL32.dll
 0002:00000190       __imp_WideCharToMultiByte  0000000180062190     kernel32:KERNEL32.dll
 0002:00000198       __imp_HeapFree             0000000180062198     kernel32:KERNEL32.dll
 0002:000001a0       __imp_HeapAlloc            00000001800621a0     kernel32:KERNEL32.dll
 0002:000001a8       __imp_GetACP               00000001800621a8     kernel32:KERNEL32.dll
 0002:000001b0       __imp_HeapReAlloc          00000001800621b0     kernel32:KERNEL32.dll
 0002:000001b8       __imp_WriteFile            00000001800621b8     kernel32:KERNEL32.dll
 0002:000001c0       __imp_OutputDebugStringW   00000001800621c0     kernel32:KERNEL32.dll
 0002:000001c8       __imp_CreateThread         00000001800621c8     kernel32:KERNEL32.dll
 0002:000001d0       __imp_LCMapStringW         00000001800621d0     kernel32:KERNEL32.dll
 0002:000001d8       __imp_FindClose            00000001800621d8     kernel32:KERNEL32.dll
 0002:000001e0       __imp_FindFirstFileExA     00000001800621e0     kernel32:KERNEL32.dll
 0002:000001e8       __imp_FindNextFileA        00000001800621e8     kernel32:KERNEL32.dll
 0002:000001f0       __imp_IsValidCodePage      00000001800621f0     kernel32:KERNEL32.dll
 0002:000001f8       __imp_GetOEMCP             00000001800621f8     kernel32:KERNEL32.dll
 0002:00000200       __imp_GetCPInfo            0000000180062200     kernel32:KERNEL32.dll
 0002:00000208       __imp_GetCommandLineA      0000000180062208     kernel32:KERNEL32.dll
 0002:00000210       __imp_GetCommandLineW      0000000180062210     kernel32:KERNEL32.dll
 0002:00000218       __imp_GetEnvironmentStringsW 0000000180062218     kernel32:KERNEL32.dll
 0002:00000220       __imp_FreeEnvironmentStringsW 0000000180062220     kernel32:KERNEL32.dll
 0002:00000228       __imp_GetProcessHeap       0000000180062228     kernel32:KERNEL32.dll
 0002:00000230       __imp_GetStringTypeW       0000000180062230     kernel32:KERNEL32.dll
 0002:00000238       __imp_SetStdHandle         0000000180062238     kernel32:KERNEL32.dll
 0002:00000240       __imp_FlushFileBuffers     0000000180062240     kernel32:KERNEL32.dll
 0002:00000248       __imp_GetConsoleCP         0000000180062248     kernel32:KERNEL32.dll
 0002:00000250       __imp_GetConsoleMode       0000000180062250     kernel32:KERNEL32.dll
 0002:00000258       __imp_HeapSize             0000000180062258     kernel32:KERNEL32.dll
 0002:00000260       __imp_SetFilePointerEx     0000000180062260     kernel32:KERNEL32.dll
 0002:00000268       __imp_CreateFileW          0000000180062268     kernel32:KERNEL32.dll
 0002:00000270       __imp_GetSystemInfo        0000000180062270     kernel32:KERNEL32.dll
 0002:00000278       __imp_VirtualProtect       0000000180062278     kernel32:KERNEL32.dll
 0002:00000280       __imp_VirtualQuery         0000000180062280     kernel32:KERNEL32.dll
 0002:00000288       __imp_LoadLibraryExA       0000000180062288     kernel32:KERNEL32.dll
 0002:00000290       \177KERNEL32_NULL_THUNK_DATA 0000000180062290     kernel32:KERNEL32.dll
 0002:00000298       __guard_check_icall_fptr   0000000180062298     LIBCMT:guard_support.obj
 0002:000002a0       __guard_dispatch_icall_fptr 00000001800622a0     LIBCMT:guard_support.obj
 0002:000002a8       __xc_a                     00000001800622a8     LIBCMT:initializers.obj
 0002:000002b0       _register_pkcs11_          00000001800622b0     main.obj
 0002:000002b8       __xc_z                     00000001800622b8     LIBCMT:initializers.obj
 0002:000002c0       __xi_a                     00000001800622c0     LIBCMT:initializers.obj
 0002:000002d0       __acrt_stdio_initializer   00000001800622d0     libucrt:stdio_initializer.obj
 0002:000002d8       __acrt_multibyte_initializer 00000001800622d8     libucrt:multibyte_initializer.obj
 0002:000002e0       __acrt_tran_fma3_initializer 00000001800622e0     libucrt:fma3_initializer.obj
 0002:000002e8       __xi_z                     00000001800622e8     LIBCMT:initializers.obj
 0002:000002f0       __xl_a                     00000001800622f0     LIBCMT:tlssup.obj
 0002:000002f8       __xl_z                     00000001800622f8     LIBCMT:tlssup.obj
 0002:00000300       __xp_a                     0000000180062300     LIBCMT:initializers.obj
 0002:00000308       __acrt_locale_terminator   0000000180062308     libucrt:locale_initializer.obj
 0002:00000310       __dcrt_console_output_terminator 0000000180062310     libucrt:console_output_initializer.obj
 0002:00000318       __acrt_stdio_terminator    0000000180062318     libucrt:stdio_initializer.obj
 0002:00000320       __xp_z                     0000000180062320     LIBCMT:initializers.obj
 0002:00000328       __xt_a                     0000000180062328     LIBCMT:initializers.obj
 0002:00000330       __xt_z                     0000000180062330     LIBCMT:initializers.obj
 0002:00000340       __sz_node_exe              0000000180062340     node:node.exe
 0002:00000358       ??_7exception@std@@6B@     0000000180062358     libcpmt:xthrow.obj
 0002:00000368       ??_C@_0BC@EOODALEL@Unknown?5exception?$AA@ 0000000180062368     libcpmt:xthrow.obj
 0002:00000388       ??_7bad_alloc@std@@6B@     0000000180062388     libcpmt:xthrow.obj
 0002:00000398       ??_C@_0P@GHFPNOJB@bad?5allocation?$AA@ 0000000180062398     libcpmt:xthrow.obj
 0002:000003b0       ??_7logic_error@std@@6B@   00000001800623b0     libcpmt:xthrow.obj
 0002:000003c8       ??_7length_error@std@@6B@  00000001800623c8     libcpmt:xthrow.obj
 0002:000003e0       ??_7out_of_range@std@@6B@  00000001800623e0     libcpmt:xthrow.obj
 0002:000003f8       ??_7type_info@@6B@         00000001800623f8     LIBCMT:std_type_info_static.obj
 0002:00000400       ??_C@_1BK@MGMFAEKH@?$AAk?$AAe?$AAr?$AAn?$AAe?$AAl?$AA3?$AA2?$AA?4?$AAd?$AAl?$AAl?$AA?$AA@ 0000000180062400     LIBCMT:thread_safe_statics.obj
 0002:00000420       ??_C@_0BM@HLJJNPAH@InitializeConditionVariable?$AA@ 0000000180062420     LIBCMT:thread_safe_statics.obj
 0002:00000440       ??_C@_0BJ@JEBJOJFJ@SleepConditionVariableCS?$AA@ 0000000180062440     LIBCMT:thread_safe_statics.obj
 0002:00000460       ??_C@_0BJ@PGPPEPCC@WakeAllConditionVariable?$AA@ 0000000180062460     LIBCMT:thread_safe_statics.obj
 0002:00000480       _pDefaultRawDllMain        0000000180062480     LIBCMT:dll_dllmain.obj
 0002:00000480       _pRawDllMain               0000000180062480     LIBCMT:dll_dllmain.obj
 0002:000004a0       ??_7bad_array_new_length@std@@6B@ 00000001800624a0     LIBCMT:throw_bad_alloc.obj
 0002:000004b0       ??_C@_0BF@KINCDENJ@bad?5array?5new?5length?$AA@ 00000001800624b0     LIBCMT:throw_bad_alloc.obj
 0002:000004c8       _pDestructExceptionObject  00000001800624c8     libvcruntime:frame.obj
 0002:000004d8       ??_7bad_exception@std@@6B@ 00000001800624d8     libvcruntime:frame.obj
 0002:000004e8       ??_C@_0O@DPKOEFFH@bad?5exception?$AA@ 00000001800624e8     libvcruntime:frame.obj
 0002:00000560       ??_C@_1BC@DNHGCMLG@?$AAa?$AAd?$AAv?$AAa?$AAp?$AAi?$AA3?$AA2?$AA?$AA@ 0000000180062560     libvcruntime:winapi_downlevel.obj
 0002:00000578       ??_C@_1DM@KHCHBNEB@?$AAa?$AAp?$AAi?$AA?9?$AAm?$AAs?$AA?9?$AAw?$AAi?$AAn?$AA?9?$AAc?$AAo?$AAr?$AAe?$AA?9?$AAf?$AAi?$AAb?$AAe?$AAr?$AAs?$AA?9?$AAl?$AA1?$AA?9?$AA1?$AA?9?$AA1?$AA?$AA@ 0000000180062578     libvcruntime:winapi_downlevel.obj
 0002:000005b8       ??_C@_1DK@LPPGFMPP@?$AAa?$AAp?$AAi?$AA?9?$AAm?$AAs?$AA?9?$AAw?$AAi?$AAn?$AA?9?$AAc?$AAo?$AAr?$AAe?$AA?9?$AAs?$AAy?$AAn?$AAc?$AAh?$AA?9?$AAl?$AA1?$AA?9?$AA2?$AA?9?$AA0?$AA?$AA@ 00000001800625b8     libvcruntime:winapi_downlevel.obj
 0002:000005f8       ??_C@_1BC@GDMECMAK@?$AAk?$AAe?$AAr?$AAn?$AAe?$AAl?$AA3?$AA2?$AA?$AA@ 00000001800625f8     libvcruntime:winapi_downlevel.obj
 0002:00000618       ??_C@_08KNHFBNJ@FlsAlloc?$AA@ 0000000180062618     libvcruntime:winapi_downlevel.obj
 0002:00000630       ??_C@_07PEJMOBNF@FlsFree?$AA@ 0000000180062630     libvcruntime:winapi_downlevel.obj
 0002:00000640       ??_C@_0M@GDNOONDI@FlsGetValue?$AA@ 0000000180062640     libvcruntime:winapi_downlevel.obj
 0002:00000658       ??_C@_0M@JCPCPOEF@FlsSetValue?$AA@ 0000000180062658     libvcruntime:winapi_downlevel.obj
 0002:00000670       ??_C@_0BM@HCFOFFN@InitializeCriticalSectionEx?$AA@ 0000000180062670     libvcruntime:winapi_downlevel.obj
 0002:00000a50       ??_C@_08EHJDFFNH@__based?$CI?$AA@ 0000000180062a50     libvcruntime:undname.obj
 0002:00000a60       ??_C@_07KOLFKCDI@__cdecl?$AA@ 0000000180062a60     libvcruntime:undname.obj
 0002:00000a68       ??_C@_08GHMPAG@__pascal?$AA@ 0000000180062a68     libvcruntime:undname.obj
 0002:00000a78       ??_C@_09IFJBGAPI@__stdcall?$AA@ 0000000180062a78     libvcruntime:undname.obj
 0002:00000a88       ??_C@_0L@NPHFGOKO@__thiscall?$AA@ 0000000180062a88     libvcruntime:undname.obj
 0002:00000a98       ??_C@_0L@JMKHOMEK@__fastcall?$AA@ 0000000180062a98     libvcruntime:undname.obj
 0002:00000aa8       ??_C@_0N@BCKKPABJ@__vectorcall?$AA@ 0000000180062aa8     libvcruntime:undname.obj
 0002:00000ab8       ??_C@_09HIJEGCPM@__clrcall?$AA@ 0000000180062ab8     libvcruntime:undname.obj
 0002:00000ac4       ??_C@_06GHPCKEAG@__eabi?$AA@ 0000000180062ac4     libvcruntime:undname.obj
 0002:00000ad0       ??_C@_07JOMMBBKO@__ptr64?$AA@ 0000000180062ad0     libvcruntime:undname.obj
 0002:00000ad8       ??_C@_0L@PILCLIHE@__restrict?$AA@ 0000000180062ad8     libvcruntime:undname.obj
 0002:00000ae8       ??_C@_0M@GFIIJFMG@__unaligned?$AA@ 0000000180062ae8     libvcruntime:undname.obj
 0002:00000af8       ??_C@_09DHDLOLLB@restrict?$CI?$AA@ 0000000180062af8     libvcruntime:undname.obj
 0002:00000b04       ??_C@_04NIHEBCM@?5new?$AA@ 0000000180062b04     libvcruntime:undname.obj
 0002:00000b10       ??_C@_07FPCDHGMM@?5delete?$AA@ 0000000180062b10     libvcruntime:undname.obj
 0002:00000b18       ??_C@_01NEMOKFLO@?$DN?$AA@ 0000000180062b18     libvcruntime:undname.obj
 0002:00000b1c       ??_C@_02GPIOPFAK@?$DO?$DO?$AA@ 0000000180062b1c     libvcruntime:undname.obj
 0002:00000b20       ??_C@_02FODMEDOG@?$DM?$DM?$AA@ 0000000180062b20     libvcruntime:undname.obj
 0002:00000b24       ??_C@_01DCLJPIOD@?$CB?$AA@ 0000000180062b24     libvcruntime:undname.obj
 0002:00000b28       ??_C@_02EGOFBIJA@?$DN?$DN?$AA@ 0000000180062b28     libvcruntime:undname.obj
 0002:00000b2c       ??_C@_02FDNJECIE@?$CB?$DN?$AA@ 0000000180062b2c     libvcruntime:undname.obj
 0002:00000b30       ??_C@_02GPECMEKF@?$FL?$FN?$AA@ 0000000180062b30     libvcruntime:undname.obj
 0002:00000b38       ??_C@_08LHJFAFGD@operator?$AA@ 0000000180062b38     libvcruntime:undname.obj
 0002:00000b44       ??_C@_02HBOOOICD@?9?$DO?$AA@ 0000000180062b44     libvcruntime:undname.obj
 0002:00000b48       ??_C@_01NBENCBCI@?$CK?$AA@ 0000000180062b48     libvcruntime:undname.obj
 0002:00000b4c       ??_C@_02ECNGHCIF@?$CL?$CL?$AA@ 0000000180062b4c     libvcruntime:undname.obj
 0002:00000b50       ??_C@_02BAABKJLB@?9?9?$AA@ 0000000180062b50     libvcruntime:undname.obj
 0002:00000b54       ??_C@_01JOAMLHOP@?9?$AA@   0000000180062b54     libvcruntime:undname.obj
 0002:00000b58       ??_C@_01MIFGBAGJ@?$CL?$AA@ 0000000180062b58     libvcruntime:undname.obj
 0002:00000b5c       ??_C@_01HNPIGOCE@?$CG?$AA@ 0000000180062b5c     libvcruntime:undname.obj
 0002:00000b60       ??_C@_03MNHNFDLC@?9?$DO?$CK?$AA@ 0000000180062b60     libvcruntime:undname.obj
 0002:00000b64       ??_C@_01KMDKNFGN@?1?$AA@   0000000180062b64     libvcruntime:undname.obj
 0002:00000b68       ??_C@_01FGNFDNOH@?$CF?$AA@ 0000000180062b68     libvcruntime:undname.obj
 0002:00000b6c       ??_C@_01MNNFJEPP@?$DM?$AA@ 0000000180062b6c     libvcruntime:undname.obj
 0002:00000b70       ??_C@_02EHCHHCKH@?$DM?$DN?$AA@ 0000000180062b70     libvcruntime:undname.obj
 0002:00000b74       ??_C@_01PPODPGHN@?$DO?$AA@ 0000000180062b74     libvcruntime:undname.obj
 0002:00000b78       ??_C@_02EEKDKGMJ@?$DO?$DN?$AA@ 0000000180062b78     libvcruntime:undname.obj
 0002:00000b7c       ??_C@_01IHBHIGKO@?0?$AA@   0000000180062b7c     libvcruntime:undname.obj
 0002:00000b80       ??_C@_02HCKGKOFO@?$CI?$CJ?$AA@ 0000000180062b80     libvcruntime:undname.obj
 0002:00000b84       ??_C@_01PJKLJHI@?$HO?$AA@  0000000180062b84     libvcruntime:undname.obj
 0002:00000b88       ??_C@_01JKBOJNNK@?$FO?$AA@ 0000000180062b88     libvcruntime:undname.obj
 0002:00000b8c       ??_C@_01DNKMNLPK@?$HM?$AA@ 0000000180062b8c     libvcruntime:undname.obj
 0002:00000b90       ??_C@_02PPKAJPJL@?$CG?$CG?$AA@ 0000000180062b90     libvcruntime:undname.obj
 0002:00000b94       ??_C@_02NONPIBCD@?$HM?$HM?$AA@ 0000000180062b94     libvcruntime:undname.obj
 0002:00000b98       ??_C@_02FPIMKNGF@?$CK?$DN?$AA@ 0000000180062b98     libvcruntime:undname.obj
 0002:00000b9c       ??_C@_02FOEOMHFC@?$CL?$DN?$AA@ 0000000180062b9c     libvcruntime:undname.obj
 0002:00000ba0       ??_C@_02FKMDLLOA@?9?$DN?$AA@ 0000000180062ba0     libvcruntime:undname.obj
 0002:00000ba4       ??_C@_02FJEHGPIO@?1?$DN?$AA@ 0000000180062ba4     libvcruntime:undname.obj
 0002:00000ba8       ??_C@_02FENAOKFI@?$CF?$DN?$AA@ 0000000180062ba8     libvcruntime:undname.obj
 0002:00000bac       ??_C@_03IKFCCPFF@?$DO?$DO?$DN?$AA@ 0000000180062bac     libvcruntime:undname.obj
 0002:00000bb0       ??_C@_03CDNPDDLA@?$DM?$DM?$DN?$AA@ 0000000180062bb0     libvcruntime:undname.obj
 0002:00000bb4       ??_C@_02FGJGFEAB@?$CG?$DN?$AA@ 0000000180062bb4     libvcruntime:undname.obj
 0002:00000bb8       ??_C@_02DHLNPPGH@?$HM?$DN?$AA@ 0000000180062bb8     libvcruntime:undname.obj
 0002:00000bbc       ??_C@_02MHEGNOJ@?$FO?$DN?$AA@ 0000000180062bbc     libvcruntime:undname.obj
 0002:00000bc0       ??_C@_09IFPLHPGF@?$GAvftable?8?$AA@ 0000000180062bc0     libvcruntime:undname.obj
 0002:00000bd0       ??_C@_09BLBHBJP@?$GAvbtable?8?$AA@ 0000000180062bd0     libvcruntime:undname.obj
 0002:00000be0       ??_C@_07FEEIOKP@?$GAvcall?8?$AA@ 0000000180062be0     libvcruntime:undname.obj
 0002:00000be8       ??_C@_08LLFFHHDJ@?$GAtypeof?8?$AA@ 0000000180062be8     libvcruntime:undname.obj
 0002:00000bf8       ??_C@_0BF@KDPPACIK@?$GAlocal?5static?5guard?8?$AA@ 0000000180062bf8     libvcruntime:undname.obj
 0002:00000c10       ??_C@_08OBABFOLI@?$GAstring?8?$AA@ 0000000180062c10     libvcruntime:undname.obj
 0002:00000c20       ??_C@_0BD@JDLKDPAB@?$GAvbase?5destructor?8?$AA@ 0000000180062c20     libvcruntime:undname.obj
 0002:00000c38       ??_C@_0BN@DEGPLNFK@?$GAvector?5deleting?5destructor?8?$AA@ 0000000180062c38     libvcruntime:undname.obj
 0002:00000c58       ??_C@_0BO@OBMKPJIG@?$GAdefault?5constructor?5closure?8?$AA@ 0000000180062c58     libvcruntime:undname.obj
 0002:00000c78       ??_C@_0BN@IMDCHIKM@?$GAscalar?5deleting?5destructor?8?$AA@ 0000000180062c78     libvcruntime:undname.obj
 0002:00000c98       ??_C@_0BO@PFGOCPJJ@?$GAvector?5constructor?5iterator?8?$AA@ 0000000180062c98     libvcruntime:undname.obj
 0002:00000cb8       ??_C@_0BN@LFPFMEDL@?$GAvector?5destructor?5iterator?8?$AA@ 0000000180062cb8     libvcruntime:undname.obj
 0002:00000cd8       ??_C@_0CE@IKBNEHA@?$GAvector?5vbase?5constructor?5iterat@ 0000000180062cd8     libvcruntime:undname.obj
 0002:00000d00       ??_C@_0BL@NILFHHPC@?$GAvirtual?5displacement?5map?8?$AA@ 0000000180062d00     libvcruntime:undname.obj
 0002:00000d20       ??_C@_0CB@JONCMFFK@?$GAeh?5vector?5constructor?5iterator?8@ 0000000180062d20     libvcruntime:undname.obj
 0002:00000d48       ??_C@_0CA@GCEOPDGL@?$GAeh?5vector?5destructor?5iterator?8?$AA@ 0000000180062d48     libvcruntime:undname.obj
 0002:00000d68       ??_C@_0CH@OOJPLCPH@?$GAeh?5vector?5vbase?5constructor?5ite@ 0000000180062d68     libvcruntime:undname.obj
 0002:00000d90       ??_C@_0BL@LLKPOHJI@?$GAcopy?5constructor?5closure?8?$AA@ 0000000180062d90     libvcruntime:undname.obj
 0002:00000db0       ??_C@_0BA@KBCDOMBN@?$GAudt?5returning?8?$AA@ 0000000180062db0     libvcruntime:undname.obj
 0002:00000dc0       ??_C@_03KLGMFNMG@?$GAEH?$AA@ 0000000180062dc0     libvcruntime:undname.obj
 0002:00000dc4       ??_C@_05KHLCHHI@?$GARTTI?$AA@ 0000000180062dc4     libvcruntime:undname.obj
 0002:00000dd0       ??_C@_0BA@KKLDJDLB@?$GAlocal?5vftable?8?$AA@ 0000000180062dd0     libvcruntime:undname.obj
 0002:00000de0       ??_C@_0CE@IIHCMGGL@?$GAlocal?5vftable?5constructor?5closu@ 0000000180062de0     libvcruntime:undname.obj
 0002:00000e04       ??_C@_06FHBGPFGH@?5new?$FL?$FN?$AA@ 0000000180062e04     libvcruntime:undname.obj
 0002:00000e10       ??_C@_09LBNFPBCA@?5delete?$FL?$FN?$AA@ 0000000180062e10     libvcruntime:undname.obj
 0002:00000e20       ??_C@_0P@HJKNJFNN@?$GAomni?5callsig?8?$AA@ 0000000180062e20     libvcruntime:undname.obj
 0002:00000e30       ??_C@_0BL@CNOONJFP@?$GAplacement?5delete?5closure?8?$AA@ 0000000180062e30     libvcruntime:undname.obj
 0002:00000e50       ??_C@_0BN@CKNJLHMB@?$GAplacement?5delete?$FL?$FN?5closure?8?$AA@ 0000000180062e50     libvcruntime:undname.obj
 0002:00000e70       ??_C@_0CG@CFDHKGGD@?$GAmanaged?5vector?5constructor?5iter@ 0000000180062e70     libvcruntime:undname.obj
 0002:00000e98       ??_C@_0CF@IMGKMJNO@?$GAmanaged?5vector?5destructor?5itera@ 0000000180062e98     libvcruntime:undname.obj
 0002:00000ec0       ??_C@_0CG@HLDDJMAG@?$GAeh?5vector?5copy?5constructor?5iter@ 0000000180062ec0     libvcruntime:undname.obj
 0002:00000ee8       ??_C@_0CM@FCBBDIGB@?$GAeh?5vector?5vbase?5copy?5constructo@ 0000000180062ee8     libvcruntime:undname.obj
 0002:00000f18       ??_C@_0BL@CLIPGLGB@?$GAdynamic?5initializer?5for?5?8?$AA@ 0000000180062f18     libvcruntime:undname.obj
 0002:00000f38       ??_C@_0CB@PDBIFEP@?$GAdynamic?5atexit?5destructor?5for?5?8@ 0000000180062f38     libvcruntime:undname.obj
 0002:00000f60       ??_C@_0CD@CGAJBKEJ@?$GAvector?5copy?5constructor?5iterato@ 0000000180062f60     libvcruntime:undname.obj
 0002:00000f88       ??_C@_0CJ@GJELGAMM@?$GAvector?5vbase?5copy?5constructor?5i@ 0000000180062f88     libvcruntime:undname.obj
 0002:00000fb8       ??_C@_0CL@FGIJHLCE@?$GAmanaged?5vector?5copy?5constructor@ 0000000180062fb8     libvcruntime:undname.obj
 0002:00000fe8       ??_C@_0BM@PMGGMLDN@?$GAlocal?5static?5thread?5guard?8?$AA@ 0000000180062fe8     libvcruntime:undname.obj
 0002:00001008       ??_C@_0N@BDNMDMOL@operator?5?$CC?$CC?5?$AA@ 0000000180063008     libvcruntime:undname.obj
 0002:00001018       ??_C@_0BC@DAFEJGAK@?5Type?5Descriptor?8?$AA@ 0000000180063018     libvcruntime:undname.obj
 0002:00001030       ??_C@_0BM@LDKODKLH@?5Base?5Class?5Descriptor?5at?5?$CI?$AA@ 0000000180063030     libvcruntime:undname.obj
 0002:00001050       ??_C@_0BD@LGICGFMM@?5Base?5Class?5Array?8?$AA@ 0000000180063050     libvcruntime:undname.obj
 0002:00001068       ??_C@_0BN@MECKDCOJ@?5Class?5Hierarchy?5Descriptor?8?$AA@ 0000000180063068     libvcruntime:undname.obj
 0002:00001088       ??_C@_0BK@CFCOFLF@?5Complete?5Object?5Locator?8?$AA@ 0000000180063088     libvcruntime:undname.obj
 0002:000010b0       standard_lookup_table      00000001800630b0     libucrt:output.obj
 0002:0000110c       ??_C@_06OJHGLDPL@?$CInull?$CJ?$AA@ 000000018006310c     libucrt:output.obj
 0002:00001118       ??_C@_1O@CEDCILHN@?$AA?$CI?$AAn?$AAu?$AAl?$AAl?$AA?$CJ?$AA?$AA@ 0000000180063118     libucrt:output.obj
 0002:00001130       ??_C@_1EK@MBDPDCGA@?$AAM?$AAi?$AAc?$AAr?$AAo?$AAs?$AAo?$AAf?$AAt?$AA?5?$AAV?$AAi?$AAs?$AAu?$AAa?$AAl?$AA?5?$AAC?$AA?$CL?$AA?$CL?$AA?5?$AAR?$AAu?$AAn?$AAt?$AAi?$AAm?$AAe?$AA?5?$AAL?$AAi?$AAb@ 0000000180063130     libucrt:assert.obj
 0002:00001180       ??_C@_1FE@LHBLIKM@?$AAA?$AAs?$AAs?$AAe?$AAr?$AAt?$AAi?$AAo?$AAn?$AA?5?$AAf?$AAa?$AAi?$AAl?$AAe?$AAd?$AA?3?$AA?5?$AA?$CF?$AAT?$AAs?$AA?0?$AA?5?$AAf?$AAi?$AAl?$AAe?$AA?5?$AA?$CF?$AAT?$AAs?$AA?0@ 0000000180063180     libucrt:assert.obj
 0002:000011d8       ??_C@_1CE@OJBNHDMO@?$AAA?$AAs?$AAs?$AAe?$AAr?$AAt?$AAi?$AAo?$AAn?$AA?5?$AAf?$AAa?$AAi?$AAl?$AAe?$AAd?$AA?$CB?$AA?$AA@ 00000001800631d8     libucrt:assert.obj
 0002:00001200       ??_C@_1BE@PHKBBGE@?$AAP?$AAr?$AAo?$AAg?$AAr?$AAa?$AAm?$AA?3?$AA?5?$AA?$AA@ 0000000180063200     libucrt:assert.obj
 0002:00001218       ??_C@_1O@HEMHKNDC@?$AAF?$AAi?$AAl?$AAe?$AA?3?$AA?5?$AA?$AA@ 0000000180063218     libucrt:assert.obj
 0002:00001228       ??_C@_1O@KCAFKHJE@?$AAL?$AAi?$AAn?$AAe?$AA?3?$AA?5?$AA?$AA@ 0000000180063228     libucrt:assert.obj
 0002:00001238       ??_C@_1BK@PEDCIPMA@?$AAE?$AAx?$AAp?$AAr?$AAe?$AAs?$AAs?$AAi?$AAo?$AAn?$AA?3?$AA?5?$AA?$AA@ 0000000180063238     libucrt:assert.obj
 0002:00001260       ??_C@_1OA@EGMLFBHJ@?$AAF?$AAo?$AAr?$AA?5?$AAi?$AAn?$AAf?$AAo?$AAr?$AAm?$AAa?$AAt?$AAi?$AAo?$AAn?$AA?5?$AAo?$AAn?$AA?5?$AAh?$AAo?$AAw?$AA?5?$AAy?$AAo?$AAu?$AAr?$AA?5?$AAp?$AAr?$AAo?$AAg@ 0000000180063260     libucrt:assert.obj
 0002:00001340       ??_C@_1HK@POCJMFGK@?$AA?$CI?$AAP?$AAr?$AAe?$AAs?$AAs?$AA?5?$AAR?$AAe?$AAt?$AAr?$AAy?$AA?5?$AAt?$AAo?$AA?5?$AAd?$AAe?$AAb?$AAu?$AAg?$AA?5?$AAt?$AAh?$AAe?$AA?5?$AAa?$AAp?$AAp?$AAl?$AAi?$AAc@ 0000000180063340     libucrt:assert.obj
 0002:000013c0       ??_C@_17LGKOMLJ@?$AA?4?$AA?4?$AA?4?$AA?$AA@ 00000001800633c0     libucrt:assert.obj
 0002:000013c8       ??_C@_13LBAGMAIH@?$AA?6?$AA?$AA@ 00000001800633c8     libucrt:assert.obj
 0002:000013cc       ??_C@_15IABLJNFO@?$AA?6?$AA?6?$AA?$AA@ 00000001800633cc     libucrt:assert.obj
 0002:000013d8       ??_C@_1CO@EAEJAADC@?$AA?$DM?$AAp?$AAr?$AAo?$AAg?$AAr?$AAa?$AAm?$AA?5?$AAn?$AAa?$AAm?$AAe?$AA?5?$AAu?$AAn?$AAk?$AAn?$AAo?$AAw?$AAn?$AA?$DO?$AA?$AA@ 00000001800633d8     libucrt:assert.obj
 0002:00001410       __acrt_exception_action_table 0000000180063410     libucrt:exception_filter.obj
 0002:000014d0       __acrt_signal_action_table_count 00000001800634d0     libucrt:exception_filter.obj
 0002:000014d8       __acrt_signal_action_first_fpe_index 00000001800634d8     libucrt:exception_filter.obj
 0002:000014e0       __acrt_signal_action_fpe_count 00000001800634e0     libucrt:exception_filter.obj
 0002:000014e8       ??_C@_1BI@BGOHAHKC@?$AAm?$AAs?$AAc?$AAo?$AAr?$AAe?$AAe?$AA?4?$AAd?$AAl?$AAl?$AA?$AA@ 00000001800634e8     libucrt:exit.obj
 0002:00001500       ??_C@_0P@MIGLKIOC@CorExitProcess?$AA@ 0000000180063500     libucrt:exit.obj
 0002:00001768       ??_C@_03OEIAHPBN@INF?$AA@  0000000180063768     libucrt:cvt.obj
 0002:0000176c       ??_C@_03OJHLLCGB@inf?$AA@  000000018006376c     libucrt:cvt.obj
 0002:00001770       ??_C@_03LKNCIKJB@NAN?$AA@  0000000180063770     libucrt:cvt.obj
 0002:00001774       ??_C@_03LHCJEHON@nan?$AA@  0000000180063774     libucrt:cvt.obj
 0002:00001778       ??_C@_09OFJJIMPC@NAN?$CISNAN?$CJ?$AA@ 0000000180063778     libucrt:cvt.obj
 0002:00001788       ??_C@_09IPFBKMDL@nan?$CIsnan?$CJ?$AA@ 0000000180063788     libucrt:cvt.obj
 0002:00001798       ??_C@_08IKHNHAJ@NAN?$CIIND?$CJ?$AA@ 0000000180063798     libucrt:cvt.obj
 0002:000017a8       ??_C@_08OFCDMILK@nan?$CIind?$CJ?$AA@ 00000001800637a8     libucrt:cvt.obj
 0002:000017b4       ??_C@_05KLBDPFGC@e?$CL000?$AA@ 00000001800637b4     libucrt:cvt.obj
 0002:000017c0       __lc_time_c                00000001800637c0     libucrt:nlsdata.obj
 0002:00001a80       ??_C@_03KOEHGMDN@Sun?$AA@  0000000180063a80     libucrt:nlsdata.obj
 0002:00001a84       ??_C@_03PDAGKDH@Mon?$AA@   0000000180063a84     libucrt:nlsdata.obj
 0002:00001a88       ??_C@_03NAGEINEP@Tue?$AA@  0000000180063a88     libucrt:nlsdata.obj
 0002:00001a8c       ??_C@_03MHOMLAJA@Wed?$AA@  0000000180063a8c     libucrt:nlsdata.obj
 0002:00001a90       ??_C@_03IOFIKPDN@Thu?$AA@  0000000180063a90     libucrt:nlsdata.obj
 0002:00001a94       ??_C@_03IDIOELNC@Fri?$AA@  0000000180063a94     libucrt:nlsdata.obj
 0002:00001a98       ??_C@_03FEFJNEK@Sat?$AA@   0000000180063a98     libucrt:nlsdata.obj
 0002:00001a9c       ??_C@_06OOPIFAJ@Sunday?$AA@ 0000000180063a9c     libucrt:nlsdata.obj
 0002:00001aa4       ??_C@_06JLEDEDGH@Monday?$AA@ 0000000180063aa4     libucrt:nlsdata.obj
 0002:00001ab0       ??_C@_07BAAGCFCM@Tuesday?$AA@ 0000000180063ab0     libucrt:nlsdata.obj
 0002:00001ab8       ??_C@_09DLIGFAKA@Wednesday?$AA@ 0000000180063ab8     libucrt:nlsdata.obj
 0002:00001ac8       ??_C@_08HACCIKIA@Thursday?$AA@ 0000000180063ac8     libucrt:nlsdata.obj
 0002:00001ad4       ??_C@_06JECMNKMI@Friday?$AA@ 0000000180063ad4     libucrt:nlsdata.obj
 0002:00001ae0       ??_C@_08INBOOONO@Saturday?$AA@ 0000000180063ae0     libucrt:nlsdata.obj
 0002:00001aec       ??_C@_03JIHJHPIE@Jan?$AA@  0000000180063aec     libucrt:nlsdata.obj
 0002:00001af0       ??_C@_03HJBDCHOM@Feb?$AA@  0000000180063af0     libucrt:nlsdata.obj
 0002:00001af4       ??_C@_03ODNJBKGA@Mar?$AA@  0000000180063af4     libucrt:nlsdata.obj
 0002:00001af8       ??_C@_03LEOLGMJP@Apr?$AA@  0000000180063af8     libucrt:nlsdata.obj
 0002:00001afc       ??_C@_03CNMDKL@May?$AA@    0000000180063afc     libucrt:nlsdata.obj
 0002:00001b00       ??_C@_03IDFGHECI@Jun?$AA@  0000000180063b00     libucrt:nlsdata.obj
 0002:00001b04       ??_C@_03LBGABGKK@Jul?$AA@  0000000180063b04     libucrt:nlsdata.obj
 0002:00001b08       ??_C@_03IFJFEIGA@Aug?$AA@  0000000180063b08     libucrt:nlsdata.obj
 0002:00001b0c       ??_C@_03GGCAPAJC@Sep?$AA@  0000000180063b0c     libucrt:nlsdata.obj
 0002:00001b10       ??_C@_03BMAOKBAD@Oct?$AA@  0000000180063b10     libucrt:nlsdata.obj
 0002:00001b14       ??_C@_03JPJOFNIA@Nov?$AA@  0000000180063b14     libucrt:nlsdata.obj
 0002:00001b18       ??_C@_03MKABNOCG@Dec?$AA@  0000000180063b18     libucrt:nlsdata.obj
 0002:00001b20       ??_C@_07CGJPFGJA@January?$AA@ 0000000180063b20     libucrt:nlsdata.obj
 0002:00001b28       ??_C@_08GNJGEPFN@February?$AA@ 0000000180063b28     libucrt:nlsdata.obj
 0002:00001b34       ??_C@_05HPCKOFNC@March?$AA@ 0000000180063b34     libucrt:nlsdata.obj
 0002:00001b3c       ??_C@_05DMJDNLEJ@April?$AA@ 0000000180063b3c     libucrt:nlsdata.obj
 0002:00001b44       ??_C@_04CNLMGBGM@June?$AA@ 0000000180063b44     libucrt:nlsdata.obj
 0002:00001b4c       ??_C@_04MIEPOIFP@July?$AA@ 0000000180063b4c     libucrt:nlsdata.obj
 0002:00001b54       ??_C@_06LBBHFDDG@August?$AA@ 0000000180063b54     libucrt:nlsdata.obj
 0002:00001b60       ??_C@_09BHHEALKD@September?$AA@ 0000000180063b60     libucrt:nlsdata.obj
 0002:00001b70       ??_C@_07JJNFCEND@October?$AA@ 0000000180063b70     libucrt:nlsdata.obj
 0002:00001b78       ??_C@_08HCHEGEOA@November?$AA@ 0000000180063b78     libucrt:nlsdata.obj
 0002:00001b88       ??_C@_08EDHMEBNP@December?$AA@ 0000000180063b88     libucrt:nlsdata.obj
 0002:00001b94       ??_C@_02DEDBPAFC@AM?$AA@   0000000180063b94     libucrt:nlsdata.obj
 0002:00001b98       ??_C@_02CJNFDJBF@PM?$AA@   0000000180063b98     libucrt:nlsdata.obj
 0002:00001ba0       ??_C@_08BPBNCDIB@MM?1dd?1yy?$AA@ 0000000180063ba0     libucrt:nlsdata.obj
 0002:00001bb0       ??_C@_0BE@CKGJFCPC@dddd?0?5MMMM?5dd?0?5yyyy?$AA@ 0000000180063bb0     libucrt:nlsdata.obj
 0002:00001bc8       ??_C@_08JCCMCCIL@HH?3mm?3ss?$AA@ 0000000180063bc8     libucrt:nlsdata.obj
 0002:00001bd8       ??_C@_17MBGCMIPB@?$AAS?$AAu?$AAn?$AA?$AA@ 0000000180063bd8     libucrt:nlsdata.obj
 0002:00001be0       ??_C@_17KBOMKBF@?$AAM?$AAo?$AAn?$AA?$AA@ 0000000180063be0     libucrt:nlsdata.obj
 0002:00001be8       ??_C@_17BMKGEGOJ@?$AAT?$AAu?$AAe?$AA?$AA@ 0000000180063be8     libucrt:nlsdata.obj
 0002:00001bf0       ??_C@_17CJEDCEPE@?$AAW?$AAe?$AAd?$AA?$AA@ 0000000180063bf0     libucrt:nlsdata.obj
 0002:00001bf8       ??_C@_17PDPHAADD@?$AAT?$AAh?$AAu?$AA?$AA@ 0000000180063bf8     libucrt:nlsdata.obj
 0002:00001c00       ??_C@_17HFOLPPLP@?$AAF?$AAr?$AAi?$AA?$AA@ 0000000180063c00     libucrt:nlsdata.obj
 0002:00001c08       ??_C@_17GGIBDPIH@?$AAS?$AAa?$AAt?$AA?$AA@ 0000000180063c08     libucrt:nlsdata.obj
 0002:00001c10       ??_C@_1O@IHNHDHPB@?$AAS?$AAu?$AAn?$AAd?$AAa?$AAy?$AA?$AA@ 0000000180063c10     libucrt:nlsdata.obj
 0002:00001c20       ??_C@_1O@MMNBFLIA@?$AAM?$AAo?$AAn?$AAd?$AAa?$AAy?$AA?$AA@ 0000000180063c20     libucrt:nlsdata.obj
 0002:00001c30       ??_C@_1BA@ENFBFFEK@?$AAT?$AAu?$AAe?$AAs?$AAd?$AAa?$AAy?$AA?$AA@ 0000000180063c30     libucrt:nlsdata.obj
 0002:00001c40       ??_C@_1BE@EBOGMDOH@?$AAW?$AAe?$AAd?$AAn?$AAe?$AAs?$AAd?$AAa?$AAy?$AA?$AA@ 0000000180063c40     libucrt:nlsdata.obj
 0002:00001c58       ??_C@_1BC@HHMNLIHE@?$AAT?$AAh?$AAu?$AAr?$AAs?$AAd?$AAa?$AAy?$AA?$AA@ 0000000180063c58     libucrt:nlsdata.obj
 0002:00001c70       ??_C@_1O@PDICJHAG@?$AAF?$AAr?$AAi?$AAd?$AAa?$AAy?$AA?$AA@ 0000000180063c70     libucrt:nlsdata.obj
 0002:00001c80       ??_C@_1BC@ENMNNPAJ@?$AAS?$AAa?$AAt?$AAu?$AAr?$AAd?$AAa?$AAy?$AA?$AA@ 0000000180063c80     libucrt:nlsdata.obj
 0002:00001c98       ??_C@_17DKNBKCHM@?$AAJ?$AAa?$AAn?$AA?$AA@ 0000000180063c98     libucrt:nlsdata.obj
 0002:00001ca0       ??_C@_17LMDJEKJN@?$AAF?$AAe?$AAb?$AA?$AA@ 0000000180063ca0     libucrt:nlsdata.obj
 0002:00001ca8       ??_C@_17CKNLEDEC@?$AAM?$AAa?$AAr?$AA?$AA@ 0000000180063ca8     libucrt:nlsdata.obj
 0002:00001cb0       ??_C@_17LFPOIHDD@?$AAA?$AAp?$AAr?$AA?$AA@ 0000000180063cb0     libucrt:nlsdata.obj
 0002:00001cb8       ??_C@_17PNNKMEED@?$AAM?$AAa?$AAy?$AA?$AA@ 0000000180063cb8     libucrt:nlsdata.obj
 0002:00001cc0       ??_C@_17KCJGOCPB@?$AAJ?$AAu?$AAn?$AA?$AA@ 0000000180063cc0     libucrt:nlsdata.obj
 0002:00001cc8       ??_C@_17IJPCKHK@?$AAJ?$AAu?$AAl?$AA?$AA@ 0000000180063cc8     libucrt:nlsdata.obj
 0002:00001cd0       ??_C@_17ICPELBCN@?$AAA?$AAu?$AAg?$AA?$AA@ 0000000180063cd0     libucrt:nlsdata.obj
 0002:00001cd8       ??_C@_17HCHCOKMG@?$AAS?$AAe?$AAp?$AA?$AA@ 0000000180063cd8     libucrt:nlsdata.obj
 0002:00001ce0       ??_C@_17FNLKOI@?$AAO?$AAc?$AAt?$AA?$AA@ 0000000180063ce0     libucrt:nlsdata.obj
 0002:00001ce8       ??_C@_17BBDMLCIG@?$AAN?$AAo?$AAv?$AA?$AA@ 0000000180063ce8     libucrt:nlsdata.obj
 0002:00001cf0       ??_C@_17EGKACKIF@?$AAD?$AAe?$AAc?$AA?$AA@ 0000000180063cf0     libucrt:nlsdata.obj
 0002:00001cf8       ??_C@_1BA@EFMEIEBA@?$AAJ?$AAa?$AAn?$AAu?$AAa?$AAr?$AAy?$AA?$AA@ 0000000180063cf8     libucrt:nlsdata.obj
 0002:00001d08       ??_C@_1BC@JGDDFFAM@?$AAF?$AAe?$AAb?$AAr?$AAu?$AAa?$AAr?$AAy?$AA?$AA@ 0000000180063d08     libucrt:nlsdata.obj
 0002:00001d20       ??_C@_1M@IKEENEDF@?$AAM?$AAa?$AAr?$AAc?$AAh?$AA?$AA@ 0000000180063d20     libucrt:nlsdata.obj
 0002:00001d30       ??_C@_1M@GJNLMHFD@?$AAA?$AAp?$AAr?$AAi?$AAl?$AA?$AA@ 0000000180063d30     libucrt:nlsdata.obj
 0002:00001d40       ??_C@_19EPFLPGAP@?$AAJ?$AAu?$AAn?$AAe?$AA?$AA@ 0000000180063d40     libucrt:nlsdata.obj
 0002:00001d50       ??_C@_19BIFMLPCD@?$AAJ?$AAu?$AAl?$AAy?$AA?$AA@ 0000000180063d50     libucrt:nlsdata.obj
 0002:00001d60       ??_C@_1O@PAHLKOAC@?$AAA?$AAu?$AAg?$AAu?$AAs?$AAt?$AA?$AA@ 0000000180063d60     libucrt:nlsdata.obj
 0002:00001d70       ??_C@_1BE@DKAAMBJL@?$AAS?$AAe?$AAp?$AAt?$AAe?$AAm?$AAb?$AAe?$AAr?$AA?$AA@ 0000000180063d70     libucrt:nlsdata.obj
 0002:00001d88       ??_C@_1BA@EPANDLNG@?$AAO?$AAc?$AAt?$AAo?$AAb?$AAe?$AAr?$AA?$AA@ 0000000180063d88     libucrt:nlsdata.obj
 0002:00001d98       ??_C@_1BC@BGLIFPF@?$AAN?$AAo?$AAv?$AAe?$AAm?$AAb?$AAe?$AAr?$AA?$AA@ 0000000180063d98     libucrt:nlsdata.obj
 0002:00001db0       ??_C@_1BC@FEMKIFH@?$AAD?$AAe?$AAc?$AAe?$AAm?$AAb?$AAe?$AAr?$AA?$AA@ 0000000180063db0     libucrt:nlsdata.obj
 0002:00001dc4       ??_C@_15ODEHAHHF@?$AAA?$AAM?$AA?$AA@ 0000000180063dc4     libucrt:nlsdata.obj
 0002:00001dcc       ??_C@_15CLMNNGEL@?$AAP?$AAM?$AA?$AA@ 0000000180063dcc     libucrt:nlsdata.obj
 0002:00001dd8       ??_C@_1BC@IEBCMHCM@?$AAM?$AAM?$AA?1?$AAd?$AAd?$AA?1?$AAy?$AAy?$AA?$AA@ 0000000180063dd8     libucrt:nlsdata.obj
 0002:00001df0       ??_C@_1CI@KNAKOEBC@?$AAd?$AAd?$AAd?$AAd?$AA?0?$AA?5?$AAM?$AAM?$AAM?$AAM?$AA?5?$AAd?$AAd?$AA?0?$AA?5?$AAy?$AAy?$AAy?$AAy?$AA?$AA@ 0000000180063df0     libucrt:nlsdata.obj
 0002:00001e18       ??_C@_1BC@GDGBMEMK@?$AAH?$AAH?$AA?3?$AAm?$AAm?$AA?3?$AAs?$AAs?$AA?$AA@ 0000000180063e18     libucrt:nlsdata.obj
 0002:00001e30       ??_C@_1M@BMHNFIME@?$AAe?$AAn?$AA?9?$AAU?$AAS?$AA?$AA@ 0000000180063e30     libucrt:nlsdata.obj
 0002:00001ee0       ??_C@_1EG@CNNIPFIM@?$AAa?$AAp?$AAi?$AA?9?$AAm?$AAs?$AA?9?$AAw?$AAi?$AAn?$AA?9?$AAa?$AAp?$AAp?$AAm?$AAo?$AAd?$AAe?$AAl?$AA?9?$AAr?$AAu?$AAn?$AAt?$AAi?$AAm?$AAe?$AA?9?$AAl?$AA1?$AA?9?$AA1@ 0000000180063ee0     libucrt:winapi_thunks.obj
 0002:00001f30       ??_C@_1EA@JGEFHKEI@?$AAa?$AAp?$AAi?$AA?9?$AAm?$AAs?$AA?9?$AAw?$AAi?$AAn?$AA?9?$AAc?$AAo?$AAr?$AAe?$AA?9?$AAd?$AAa?$AAt?$AAe?$AAt?$AAi?$AAm?$AAe?$AA?9?$AAl?$AA1?$AA?9?$AA1?$AA?9?$AA1?$AA?$AA@ 0000000180063f30     libucrt:winapi_thunks.obj
 0002:00001f70       ??_C@_1DI@GCIAAENM@?$AAa?$AAp?$AAi?$AA?9?$AAm?$AAs?$AA?9?$AAw?$AAi?$AAn?$AA?9?$AAc?$AAo?$AAr?$AAe?$AA?9?$AAf?$AAi?$AAl?$AAe?$AA?9?$AAl?$AA2?$AA?9?$AA1?$AA?9?$AA1?$AA?$AA@ 0000000180063f70     libucrt:winapi_thunks.obj
 0002:00001fb0       ??_C@_1EI@MPIAOHOC@?$AAa?$AAp?$AAi?$AA?9?$AAm?$AAs?$AA?9?$AAw?$AAi?$AAn?$AA?9?$AAc?$AAo?$AAr?$AAe?$AA?9?$AAl?$AAo?$AAc?$AAa?$AAl?$AAi?$AAz?$AAa?$AAt?$AAi?$AAo?$AAn?$AA?9?$AAl?$AA1?$AA?9@ 0000000180063fb0     libucrt:winapi_thunks.obj
 0002:00002000       ??_C@_1FK@FPHCKFIE@?$AAa?$AAp?$AAi?$AA?9?$AAm?$AAs?$AA?9?$AAw?$AAi?$AAn?$AA?9?$AAc?$AAo?$AAr?$AAe?$AA?9?$AAl?$AAo?$AAc?$AAa?$AAl?$AAi?$AAz?$AAa?$AAt?$AAi?$AAo?$AAn?$AA?9?$AAo?$AAb?$AAs@ 0000000180064000     libucrt:winapi_thunks.obj
 0002:00002060       ??_C@_1EM@DILCGIIO@?$AAa?$AAp?$AAi?$AA?9?$AAm?$AAs?$AA?9?$AAw?$AAi?$AAn?$AA?9?$AAc?$AAo?$AAr?$AAe?$AA?9?$AAp?$AAr?$AAo?$AAc?$AAe?$AAs?$AAs?$AAt?$AAh?$AAr?$AAe?$AAa?$AAd?$AAs?$AA?9?$AAl@ 0000000180064060     libucrt:winapi_thunks.obj
 0002:000020b0       ??_C@_1DM@LNCGDDPN@?$AAa?$AAp?$AAi?$AA?9?$AAm?$AAs?$AA?9?$AAw?$AAi?$AAn?$AA?9?$AAc?$AAo?$AAr?$AAe?$AA?9?$AAs?$AAt?$AAr?$AAi?$AAn?$AAg?$AA?9?$AAl?$AA1?$AA?9?$AA1?$AA?9?$AA0?$AA?$AA@ 00000001800640b0     libucrt:winapi_thunks.obj
 0002:000020f0       ??_C@_1DO@FPAPJEMD@?$AAa?$AAp?$AAi?$AA?9?$AAm?$AAs?$AA?9?$AAw?$AAi?$AAn?$AA?9?$AAc?$AAo?$AAr?$AAe?$AA?9?$AAs?$AAy?$AAs?$AAi?$AAn?$AAf?$AAo?$AA?9?$AAl?$AA1?$AA?9?$AA2?$AA?9?$AA1?$AA?$AA@ 00000001800640f0     libucrt:winapi_thunks.obj
 0002:00002130       ??_C@_1DK@NDHNAHIO@?$AAa?$AAp?$AAi?$AA?9?$AAm?$AAs?$AA?9?$AAw?$AAi?$AAn?$AA?9?$AAc?$AAo?$AAr?$AAe?$AA?9?$AAw?$AAi?$AAn?$AAr?$AAt?$AA?9?$AAl?$AA1?$AA?9?$AA1?$AA?9?$AA0?$AA?$AA@ 0000000180064130     libucrt:winapi_thunks.obj
 0002:00002170       ??_C@_1DM@KGHDGBCM@?$AAa?$AAp?$AAi?$AA?9?$AAm?$AAs?$AA?9?$AAw?$AAi?$AAn?$AA?9?$AAc?$AAo?$AAr?$AAe?$AA?9?$AAx?$AAs?$AAt?$AAa?$AAt?$AAe?$AA?9?$AAl?$AA2?$AA?9?$AA1?$AA?9?$AA0?$AA?$AA@ 0000000180064170     libucrt:winapi_thunks.obj
 0002:000021b0       ??_C@_1EO@IJIOEFOH@?$AAa?$AAp?$AAi?$AA?9?$AAm?$AAs?$AA?9?$AAw?$AAi?$AAn?$AA?9?$AAr?$AAt?$AAc?$AAo?$AAr?$AAe?$AA?9?$AAn?$AAt?$AAu?$AAs?$AAe?$AAr?$AA?9?$AAw?$AAi?$AAn?$AAd?$AAo?$AAw?$AA?9@ 00000001800641b0     libucrt:winapi_thunks.obj
 0002:00002200       ??_C@_1FG@HHGEKANL@?$AAa?$AAp?$AAi?$AA?9?$AAm?$AAs?$AA?9?$AAw?$AAi?$AAn?$AA?9?$AAs?$AAe?$AAc?$AAu?$AAr?$AAi?$AAt?$AAy?$AA?9?$AAs?$AAy?$AAs?$AAt?$AAe?$AAm?$AAf?$AAu?$AAn?$AAc?$AAt?$AAi@ 0000000180064200     libucrt:winapi_thunks.obj
 0002:00002260       ??_C@_1FG@NCKKOLKO@?$AAe?$AAx?$AAt?$AA?9?$AAm?$AAs?$AA?9?$AAw?$AAi?$AAn?$AA?9?$AAk?$AAe?$AAr?$AAn?$AAe?$AAl?$AA3?$AA2?$AA?9?$AAp?$AAa?$AAc?$AAk?$AAa?$AAg?$AAe?$AA?9?$AAc?$AAu?$AAr?$AAr@ 0000000180064260     libucrt:winapi_thunks.obj
 0002:000022c0       ??_C@_1EG@DBIOJECG@?$AAe?$AAx?$AAt?$AA?9?$AAm?$AAs?$AA?9?$AAw?$AAi?$AAn?$AA?9?$AAn?$AAt?$AAu?$AAs?$AAe?$AAr?$AA?9?$AAd?$AAi?$AAa?$AAl?$AAo?$AAg?$AAb?$AAo?$AAx?$AA?9?$AAl?$AA1?$AA?9?$AA1@ 00000001800642c0     libucrt:winapi_thunks.obj
 0002:00002310       ??_C@_1EO@FIHMJCLF@?$AAe?$AAx?$AAt?$AA?9?$AAm?$AAs?$AA?9?$AAw?$AAi?$AAn?$AA?9?$AAn?$AAt?$AAu?$AAs?$AAe?$AAr?$AA?9?$AAw?$AAi?$AAn?$AAd?$AAo?$AAw?$AAs?$AAt?$AAa?$AAt?$AAi?$AAo?$AAn?$AA?9@ 0000000180064310     libucrt:winapi_thunks.obj
 0002:00002360       ??_C@_1O@BCCLBEOE@?$AAu?$AAs?$AAe?$AAr?$AA3?$AA2?$AA?$AA@ 0000000180064360     libucrt:winapi_thunks.obj
 0002:00002398       ??_C@_0BA@HNOPNCHB@GetActiveWindow?$AA@ 0000000180064398     libucrt:winapi_thunks.obj
 0002:000023b0       ??_C@_0BE@JOGNEJCI@GetCurrentPackageId?$AA@ 00000001800643b0     libucrt:winapi_thunks.obj
 0002:000023d0       ??_C@_0BD@HHGDFDBJ@GetLastActivePopup?$AA@ 00000001800643d0     libucrt:winapi_thunks.obj
 0002:000023f0       ??_C@_0BI@DFKBFLJE@GetProcessWindowStation?$AA@ 00000001800643f0     libucrt:winapi_thunks.obj
 0002:00002410       ??_C@_0BK@DEKFELLI@GetUserObjectInformationW?$AA@ 0000000180064410     libucrt:winapi_thunks.obj
 0002:00002440       ??_C@_0O@KKBNKAPF@LCMapStringEx?$AA@ 0000000180064440     libucrt:winapi_thunks.obj
 0002:00002458       ??_C@_0BB@HBDEELFH@LocaleNameToLCID?$AA@ 0000000180064458     libucrt:winapi_thunks.obj
 0002:00002478       ??_C@_0M@CHKKJDAI@MessageBoxA?$AA@ 0000000180064478     libucrt:winapi_thunks.obj
 0002:00002490       ??_C@_0M@DLDCCGNP@MessageBoxW?$AA@ 0000000180064490     libucrt:winapi_thunks.obj
 0002:000024c0       ??_C@_1M@HPNHIDJI@?$AAj?$AAa?$AA?9?$AAJ?$AAP?$AA?$AA@ 00000001800644c0     libucrt:mbctype.obj
 0002:000024d0       ??_C@_1M@BIBDDEMK@?$AAz?$AAh?$AA?9?$AAC?$AAN?$AA?$AA@ 00000001800644d0     libucrt:mbctype.obj
 0002:000024e0       ??_C@_1M@JLOOOEGK@?$AAk?$AAo?$AA?9?$AAK?$AAR?$AA?$AA@ 00000001800644e0     libucrt:mbctype.obj
 0002:000024f0       ??_C@_1M@CLNBBOPM@?$AAz?$AAh?$AA?9?$AAT?$AAW?$AA?$AA@ 00000001800644f0     libucrt:mbctype.obj
 0002:00002500       __newctype                 0000000180064500     libucrt:ctype.obj
 0002:00002800       __newclmap                 0000000180064800     libucrt:ctype.obj
 0002:00002980       __newcumap                 0000000180064980     libucrt:ctype.obj
 0002:00002b00       _wctype                    0000000180064b00     libucrt:ctype.obj
 0002:00002d10       ?large_power_data@?1??multiply_by_power_of_ten@__crt_strtox@@YA_NAEAUbig_integer@2@I@Z@4QBIB 0000000180064d10     libucrt:cfout.obj
 0002:00003620       ?large_power_indices@?1??multiply_by_power_of_ten@__crt_strtox@@YA_NAEAUbig_integer@2@I@Z@4QBUunpack_index@?1??12@YA_N0I@Z@B 0000000180065620     libucrt:cfout.obj
 0002:000036b8       ?small_powers_of_ten@?6??multiply_by_power_of_ten@__crt_strtox@@YA_NAEAUbig_integer@2@I@Z@4QBIB 00000001800656b8     libucrt:cfout.obj
 0002:000036dc       ??_C@_01GBGANLPD@0?$AA@    00000001800656dc     libucrt:cfout.obj
 0002:000036e0       ??_C@_05DNEBIAHO@1?$CDINF?$AA@ 00000001800656e0     libucrt:cfout.obj
 0002:000036e8       ??_C@_06IMKFLFPG@1?$CDQNAN?$AA@ 00000001800656e8     libucrt:cfout.obj
 0002:000036f0       ??_C@_06PGGFOGJG@1?$CDSNAN?$AA@ 00000001800656f0     libucrt:cfout.obj
 0002:000036f8       ??_C@_05PHHOCPM@1?$CDIND?$AA@ 00000001800656f8     libucrt:cfout.obj
 0002:00003700       ??_C@_15PJPFLCCM@?$AAu?$AAk?$AA?$AA@ 0000000180065700     libucrt:get_qualified_locale.obj
 0002:00004550       ??_C@_15EMKDOKLE@?$AAa?$AAr?$AA?$AA@ 0000000180066550     libucrt:lcidtoname_downlevel.obj
 0002:00004558       ??_C@_15KNPADPLH@?$AAb?$AAg?$AA?$AA@ 0000000180066558     libucrt:lcidtoname_downlevel.obj
 0002:00004560       ??_C@_15EDMHLDMO@?$AAc?$AAa?$AA?$AA@ 0000000180066560     libucrt:lcidtoname_downlevel.obj
 0002:00004568       ??_C@_1O@BPEAJADD@?$AAz?$AAh?$AA?9?$AAC?$AAH?$AAS?$AA?$AA@ 0000000180066568     libucrt:lcidtoname_downlevel.obj
 0002:00004578       ??_C@_15LJNHCMNK@?$AAc?$AAs?$AA?$AA@ 0000000180066578     libucrt:lcidtoname_downlevel.obj
 0002:00004580       ??_C@_15FOMCIDHG@?$AAd?$AAa?$AA?$AA@ 0000000180066580     libucrt:lcidtoname_downlevel.obj
 0002:00004588       ??_C@_15NBKABECB@?$AAd?$AAe?$AA?$AA@ 0000000180066588     libucrt:lcidtoname_downlevel.obj
 0002:00004590       ??_C@_15GHPEIIAO@?$AAe?$AAl?$AA?$AA@ 0000000180066590     libucrt:lcidtoname_downlevel.obj
 0002:00004598       ??_C@_15MNPNEAIF@?$AAe?$AAn?$AA?$AA@ 0000000180066598     libucrt:lcidtoname_downlevel.obj
 0002:000045a0       ??_C@_15GPIOMPMH@?$AAe?$AAs?$AA?$AA@ 00000001800665a0     libucrt:lcidtoname_downlevel.obj
 0002:000045a8       ??_C@_15NGLOAKJC@?$AAf?$AAi?$AA?$AA@ 00000001800665a8     libucrt:lcidtoname_downlevel.obj
 0002:000045b0       ??_C@_15FBKGNKAM@?$AAf?$AAr?$AA?$AA@ 00000001800665b0     libucrt:lcidtoname_downlevel.obj
 0002:000045b8       ??_C@_15KGGCNEFK@?$AAh?$AAe?$AA?$AA@ 00000001800665b8     libucrt:lcidtoname_downlevel.obj
 0002:000045c0       ??_C@_15PGHLIDMF@?$AAh?$AAu?$AA?$AA@ 00000001800665c0     libucrt:lcidtoname_downlevel.obj
 0002:000045c8       ??_C@_15BIEMAPLM@?$AAi?$AAs?$AA?$AA@ 00000001800665c8     libucrt:lcidtoname_downlevel.obj
 0002:000045d0       ??_C@_15IFJLDHAF@?$AAi?$AAt?$AA?$AA@ 00000001800665d0     libucrt:lcidtoname_downlevel.obj
 0002:000045d8       ??_C@_15GEMIOCAG@?$AAj?$AAa?$AA?$AA@ 00000001800665d8     libucrt:lcidtoname_downlevel.obj
 0002:000045e0       ??_C@_15EPELEGJA@?$AAk?$AAo?$AA?$AA@ 00000001800665e0     libucrt:lcidtoname_downlevel.obj
 0002:000045e8       ??_C@_15NDDHIMN@?$AAn?$AAl?$AA?$AA@ 00000001800665e8     libucrt:lcidtoname_downlevel.obj
 0002:000045f0       ??_C@_15BPIGNHCD@?$AAn?$AAo?$AA?$AA@ 00000001800665f0     libucrt:lcidtoname_downlevel.obj
 0002:000045f8       ??_C@_15DEOPBLCG@?$AAp?$AAl?$AA?$AA@ 00000001800665f8     libucrt:lcidtoname_downlevel.obj
 0002:00004600       ??_C@_15KBECGEFG@?$AAp?$AAt?$AA?$AA@ 0000000180066600     libucrt:lcidtoname_downlevel.obj
 0002:00004608       ??_C@_15GLJCBFMD@?$AAr?$AAo?$AA?$AA@ 0000000180066608     libucrt:lcidtoname_downlevel.obj
 0002:00004610       ??_C@_15FEDGKCDI@?$AAr?$AAu?$AA?$AA@ 0000000180066610     libucrt:lcidtoname_downlevel.obj
 0002:00004618       ??_C@_15GLKMLLHM@?$AAh?$AAr?$AA?$AA@ 0000000180066618     libucrt:lcidtoname_downlevel.obj
 0002:00004620       ??_C@_15CPKMFBDB@?$AAs?$AAk?$AA?$AA@ 0000000180066620     libucrt:lcidtoname_downlevel.obj
 0002:00004628       ??_C@_15BAAIOGMK@?$AAs?$AAq?$AA?$AA@ 0000000180066628     libucrt:lcidtoname_downlevel.obj
 0002:00004630       ??_C@_15INNPNOHD@?$AAs?$AAv?$AA?$AA@ 0000000180066630     libucrt:lcidtoname_downlevel.obj
 0002:00004638       ??_C@_15CABMMOGH@?$AAt?$AAh?$AA?$AA@ 0000000180066638     libucrt:lcidtoname_downlevel.obj
 0002:00004640       ??_C@_15BPLIHJJM@?$AAt?$AAr?$AA?$AA@ 0000000180066640     libucrt:lcidtoname_downlevel.obj
 0002:00004648       ??_C@_15NEOEKKDJ@?$AAu?$AAr?$AA?$AA@ 0000000180066648     libucrt:lcidtoname_downlevel.obj
 0002:00004650       ??_C@_15NFICGAJK@?$AAi?$AAd?$AA?$AA@ 0000000180066650     libucrt:lcidtoname_downlevel.obj
 0002:00004658       ??_C@_15HPJPHDM@?$AAb?$AAe?$AA?$AA@ 0000000180066658     libucrt:lcidtoname_downlevel.obj
 0002:00004660       ??_C@_15LCHLGJII@?$AAs?$AAl?$AA?$AA@ 0000000180066660     libucrt:lcidtoname_downlevel.obj
 0002:00004668       ??_C@_15PCFJPHHO@?$AAe?$AAt?$AA?$AA@ 0000000180066668     libucrt:lcidtoname_downlevel.obj
 0002:00004670       ??_C@_15HPFPGODN@?$AAl?$AAv?$AA?$AA@ 0000000180066670     libucrt:lcidtoname_downlevel.obj
 0002:00004678       ??_C@_15NFFGKGLG@?$AAl?$AAt?$AA?$AA@ 0000000180066678     libucrt:lcidtoname_downlevel.obj
 0002:00004680       ??_C@_15BDAKCCHN@?$AAf?$AAa?$AA?$AA@ 0000000180066680     libucrt:lcidtoname_downlevel.obj
 0002:00004688       ??_C@_15NFGIAIAJ@?$AAv?$AAi?$AA?$AA@ 0000000180066688     libucrt:lcidtoname_downlevel.obj
 0002:00004690       ??_C@_15LMKNDMHN@?$AAh?$AAy?$AA?$AA@ 0000000180066690     libucrt:lcidtoname_downlevel.obj
 0002:00004698       ??_C@_15IJBHMCFL@?$AAa?$AAz?$AA?$AA@ 0000000180066698     libucrt:lcidtoname_downlevel.obj
 0002:000046a0       ??_C@_15EKOFJABL@?$AAe?$AAu?$AA?$AA@ 00000001800666a0     libucrt:lcidtoname_downlevel.obj
 0002:000046a8       ??_C@_15BGHADCNK@?$AAm?$AAk?$AA?$AA@ 00000001800666a8     libucrt:lcidtoname_downlevel.obj
 0002:000046b0       ??_C@_15JDNICKHM@?$AAa?$AAf?$AA?$AA@ 00000001800666b0     libucrt:lcidtoname_downlevel.obj
 0002:000046b8       ??_C@_15KPJEDBKD@?$AAk?$AAa?$AA?$AA@ 00000001800666b8     libucrt:lcidtoname_downlevel.obj
 0002:000046c0       ??_C@_15PDNFFFEO@?$AAf?$AAo?$AA?$AA@ 00000001800666c0     libucrt:lcidtoname_downlevel.obj
 0002:000046c8       ??_C@_15OMLEGLOC@?$AAh?$AAi?$AA?$AA@ 00000001800666c8     libucrt:lcidtoname_downlevel.obj
 0002:000046d0       ??_C@_15IDNNENKK@?$AAm?$AAs?$AA?$AA@ 00000001800666d0     libucrt:lcidtoname_downlevel.obj
 0002:000046d8       ??_C@_15MACJNBMH@?$AAk?$AAk?$AA?$AA@ 00000001800666d8     libucrt:lcidtoname_downlevel.obj
 0002:000046e0       ??_C@_15DKDJEOND@?$AAk?$AAy?$AA?$AA@ 00000001800666e0     libucrt:lcidtoname_downlevel.obj
 0002:000046e8       ??_C@_15DFGDLJBG@?$AAs?$AAw?$AA?$AA@ 00000001800666e8     libucrt:lcidtoname_downlevel.obj
 0002:000046f0       ??_C@_15BBFAICNG@?$AAu?$AAz?$AA?$AA@ 00000001800666f0     libucrt:lcidtoname_downlevel.obj
 0002:000046f8       ??_C@_15DKNDCGEA@?$AAt?$AAt?$AA?$AA@ 00000001800666f8     libucrt:lcidtoname_downlevel.obj
 0002:00004700       ??_C@_15MGIFMDPL@?$AAp?$AAa?$AA?$AA@ 0000000180066700     libucrt:lcidtoname_downlevel.obj
 0002:00004708       ??_C@_15HCNDBBA@?$AAg?$AAu?$AA?$AA@ 0000000180066708     libucrt:lcidtoname_downlevel.obj
 0002:00004710       ??_C@_15FNBEIBON@?$AAt?$AAa?$AA?$AA@ 0000000180066710     libucrt:lcidtoname_downlevel.obj
 0002:00004718       ??_C@_15NCHGBGLK@?$AAt?$AAe?$AA?$AA@ 0000000180066718     libucrt:lcidtoname_downlevel.obj
 0002:00004720       ??_C@_15PHPHCBPF@?$AAk?$AAn?$AA?$AA@ 0000000180066720     libucrt:lcidtoname_downlevel.obj
 0002:00004728       ??_C@_15DLGBCKMP@?$AAm?$AAr?$AA?$AA@ 0000000180066728     libucrt:lcidtoname_downlevel.obj
 0002:00004730       ??_C@_15EABBLBFF@?$AAs?$AAa?$AA?$AA@ 0000000180066730     libucrt:lcidtoname_downlevel.obj
 0002:00004738       ??_C@_15CBKOMCOI@?$AAm?$AAn?$AA?$AA@ 0000000180066738     libucrt:lcidtoname_downlevel.obj
 0002:00004740       ??_C@_15CKDMCJAF@?$AAg?$AAl?$AA?$AA@ 0000000180066740     libucrt:lcidtoname_downlevel.obj
 0002:00004748       ??_C@_17CNJFBPG@?$AAk?$AAo?$AAk?$AA?$AA@ 0000000180066748     libucrt:lcidtoname_downlevel.obj
 0002:00004750       ??_C@_17FFBJICPL@?$AAs?$AAy?$AAr?$AA?$AA@ 0000000180066750     libucrt:lcidtoname_downlevel.obj
 0002:00004758       ??_C@_17KPNDCPAF@?$AAd?$AAi?$AAv?$AA?$AA@ 0000000180066758     libucrt:lcidtoname_downlevel.obj
 0002:00004760       ??_C@_11LOCGONAA@?$AA?$AA@ 0000000180066760     libucrt:lcidtoname_downlevel.obj
 0002:00004768       ??_C@_1M@OKAHONE@?$AAa?$AAr?$AA?9?$AAS?$AAA?$AA?$AA@ 0000000180066768     libucrt:lcidtoname_downlevel.obj
 0002:00004778       ??_C@_1M@FFFIGIGK@?$AAb?$AAg?$AA?9?$AAB?$AAG?$AA?$AA@ 0000000180066778     libucrt:lcidtoname_downlevel.obj
 0002:00004788       ??_C@_1M@BJNKEDC@?$AAc?$AAa?$AA?9?$AAE?$AAS?$AA?$AA@ 0000000180066788     libucrt:lcidtoname_downlevel.obj
 0002:00004798       ??_C@_1M@IJJHFJHA@?$AAc?$AAs?$AA?9?$AAC?$AAZ?$AA?$AA@ 0000000180066798     libucrt:lcidtoname_downlevel.obj
 0002:000047a8       ??_C@_1M@CLPEOBGI@?$AAd?$AAa?$AA?9?$AAD?$AAK?$AA?$AA@ 00000001800667a8     libucrt:lcidtoname_downlevel.obj
 0002:000047b8       ??_C@_1M@MCMADGCB@?$AAd?$AAe?$AA?9?$AAD?$AAE?$AA?$AA@ 00000001800667b8     libucrt:lcidtoname_downlevel.obj
 0002:000047c8       ??_C@_1M@OOCKEMAM@?$AAe?$AAl?$AA?9?$AAG?$AAR?$AA?$AA@ 00000001800667c8     libucrt:lcidtoname_downlevel.obj
 0002:000047d8       ??_C@_1M@DDNJFGID@?$AAf?$AAi?$AA?9?$AAF?$AAI?$AA?$AA@ 00000001800667d8     libucrt:lcidtoname_downlevel.obj
 0002:000047e8       ??_C@_1M@GLIPPMAC@?$AAf?$AAr?$AA?9?$AAF?$AAR?$AA?$AA@ 00000001800667e8     libucrt:lcidtoname_downlevel.obj
 0002:000047f8       ??_C@_1M@GFMCHPE@?$AAh?$AAe?$AA?9?$AAI?$AAL?$AA?$AA@ 00000001800667f8     libucrt:lcidtoname_downlevel.obj
 0002:00004808       ??_C@_1M@MHLPGNKM@?$AAh?$AAu?$AA?9?$AAH?$AAU?$AA?$AA@ 0000000180066808     libucrt:lcidtoname_downlevel.obj
 0002:00004818       ??_C@_1M@LPDDNNPN@?$AAi?$AAs?$AA?9?$AAI?$AAS?$AA?$AA@ 0000000180066818     libucrt:lcidtoname_downlevel.obj
 0002:00004828       ??_C@_1M@MADIPODN@?$AAi?$AAt?$AA?9?$AAI?$AAT?$AA?$AA@ 0000000180066828     libucrt:lcidtoname_downlevel.obj
 0002:00004838       ??_C@_1M@IHBJJGG@?$AAn?$AAl?$AA?9?$AAN?$AAL?$AA?$AA@ 0000000180066838     libucrt:lcidtoname_downlevel.obj
 0002:00004848       ??_C@_1M@EANAGDL@?$AAn?$AAb?$AA?9?$AAN?$AAO?$AA?$AA@ 0000000180066848     libucrt:lcidtoname_downlevel.obj
 0002:00004858       ??_C@_1M@NEIEMEGP@?$AAp?$AAl?$AA?9?$AAP?$AAL?$AA?$AA@ 0000000180066858     libucrt:lcidtoname_downlevel.obj
 0002:00004868       ??_C@_1M@BOCFIGEP@?$AAp?$AAt?$AA?9?$AAB?$AAR?$AA?$AA@ 0000000180066868     libucrt:lcidtoname_downlevel.obj
 0002:00004878       ??_C@_1M@IMPFOPBG@?$AAr?$AAo?$AA?9?$AAR?$AAO?$AA?$AA@ 0000000180066878     libucrt:lcidtoname_downlevel.obj
 0002:00004888       ??_C@_1M@IDNNEJMM@?$AAr?$AAu?$AA?9?$AAR?$AAU?$AA?$AA@ 0000000180066888     libucrt:lcidtoname_downlevel.obj
 0002:00004898       ??_C@_1M@LILEEOGM@?$AAh?$AAr?$AA?9?$AAH?$AAR?$AA?$AA@ 0000000180066898     libucrt:lcidtoname_downlevel.obj
 0002:000048a8       ??_C@_1M@FKIFEHPB@?$AAs?$AAk?$AA?9?$AAS?$AAK?$AA?$AA@ 00000001800668a8     libucrt:lcidtoname_downlevel.obj
 0002:000048b8       ??_C@_1M@LJMAMNPJ@?$AAs?$AAq?$AA?9?$AAA?$AAL?$AA?$AA@ 00000001800668b8     libucrt:lcidtoname_downlevel.obj
 0002:000048c8       ??_C@_1M@GIAKDKJK@?$AAs?$AAv?$AA?9?$AAS?$AAE?$AA?$AA@ 00000001800668c8     libucrt:lcidtoname_downlevel.obj
 0002:000048d8       ??_C@_1M@MKJKIKCL@?$AAt?$AAh?$AA?9?$AAT?$AAH?$AA?$AA@ 00000001800668d8     libucrt:lcidtoname_downlevel.obj
 0002:000048e8       ??_C@_1M@MFLCCMPB@?$AAt?$AAr?$AA?9?$AAT?$AAR?$AA?$AA@ 00000001800668e8     libucrt:lcidtoname_downlevel.obj
 0002:000048f8       ??_C@_1M@OIJHDKJN@?$AAu?$AAr?$AA?9?$AAP?$AAK?$AA?$AA@ 00000001800668f8     libucrt:lcidtoname_downlevel.obj
 0002:00004908       ??_C@_1M@LHIPCIEK@?$AAi?$AAd?$AA?9?$AAI?$AAD?$AA?$AA@ 0000000180066908     libucrt:lcidtoname_downlevel.obj
 0002:00004918       ??_C@_1M@MFMOBGI@?$AAu?$AAk?$AA?9?$AAU?$AAA?$AA?$AA@ 0000000180066918     libucrt:lcidtoname_downlevel.obj
 0002:00004928       ??_C@_1M@OBGLJIPL@?$AAb?$AAe?$AA?9?$AAB?$AAY?$AA?$AA@ 0000000180066928     libucrt:lcidtoname_downlevel.obj
 0002:00004938       ??_C@_1M@BCFAJEAD@?$AAs?$AAl?$AA?9?$AAS?$AAI?$AA?$AA@ 0000000180066938     libucrt:lcidtoname_downlevel.obj
 0002:00004948       ??_C@_1M@FKFFEDDN@?$AAe?$AAt?$AA?9?$AAE?$AAE?$AA?$AA@ 0000000180066948     libucrt:lcidtoname_downlevel.obj
 0002:00004958       ??_C@_1M@KGKKAACI@?$AAl?$AAv?$AA?9?$AAL?$AAV?$AA?$AA@ 0000000180066958     libucrt:lcidtoname_downlevel.obj
 0002:00004968       ??_C@_1M@IFGBIJO@?$AAl?$AAt?$AA?9?$AAL?$AAT?$AA?$AA@ 0000000180066968     libucrt:lcidtoname_downlevel.obj
 0002:00004978       ??_C@_1M@FGEAHEDM@?$AAf?$AAa?$AA?9?$AAI?$AAR?$AA?$AA@ 0000000180066978     libucrt:lcidtoname_downlevel.obj
 0002:00004988       ??_C@_1M@KBMAIBFN@?$AAv?$AAi?$AA?9?$AAV?$AAN?$AA?$AA@ 0000000180066988     libucrt:lcidtoname_downlevel.obj
 0002:00004998       ??_C@_1M@GPCBKDJK@?$AAh?$AAy?$AA?9?$AAA?$AAM?$AA?$AA@ 0000000180066998     libucrt:lcidtoname_downlevel.obj
 0002:000049a8       ??_C@_1BG@BECMDDJB@?$AAa?$AAz?$AA?9?$AAA?$AAZ?$AA?9?$AAL?$AAa?$AAt?$AAn?$AA?$AA@ 00000001800669a8     libucrt:lcidtoname_downlevel.obj
 0002:000049c0       ??_C@_1M@MAOFCAEA@?$AAe?$AAu?$AA?9?$AAE?$AAS?$AA?$AA@ 00000001800669c0     libucrt:lcidtoname_downlevel.obj
 0002:000049d0       ??_C@_1M@IGHABKPI@?$AAm?$AAk?$AA?9?$AAM?$AAK?$AA?$AA@ 00000001800669d0     libucrt:lcidtoname_downlevel.obj
 0002:000049e0       ??_C@_1M@IAIGNEJG@?$AAt?$AAn?$AA?9?$AAZ?$AAA?$AA?$AA@ 00000001800669e0     libucrt:lcidtoname_downlevel.obj
 0002:000049f0       ??_C@_1M@IIJCOJFA@?$AAx?$AAh?$AA?9?$AAZ?$AAA?$AA?$AA@ 00000001800669f0     libucrt:lcidtoname_downlevel.obj
 0002:00004a00       ??_C@_1M@LGPJHNJH@?$AAz?$AAu?$AA?9?$AAZ?$AAA?$AA?$AA@ 0000000180066a00     libucrt:lcidtoname_downlevel.obj
 0002:00004a10       ??_C@_1M@HOKAOIO@?$AAa?$AAf?$AA?9?$AAZ?$AAA?$AA?$AA@ 0000000180066a10     libucrt:lcidtoname_downlevel.obj
 0002:00004a20       ??_C@_1M@DPCLHLIE@?$AAk?$AAa?$AA?9?$AAG?$AAE?$AA?$AA@ 0000000180066a20     libucrt:lcidtoname_downlevel.obj
 0002:00004a30       ??_C@_1M@BLKMHJBI@?$AAf?$AAo?$AA?9?$AAF?$AAO?$AA?$AA@ 0000000180066a30     libucrt:lcidtoname_downlevel.obj
 0002:00004a40       ??_C@_1M@LGGJAPPB@?$AAh?$AAi?$AA?9?$AAI?$AAN?$AA?$AA@ 0000000180066a40     libucrt:lcidtoname_downlevel.obj
 0002:00004a50       ??_C@_1M@FIKPIHFE@?$AAm?$AAt?$AA?9?$AAM?$AAT?$AA?$AA@ 0000000180066a50     libucrt:lcidtoname_downlevel.obj
 0002:00004a60       ??_C@_1M@HEGGPBFA@?$AAs?$AAe?$AA?9?$AAN?$AAO?$AA?$AA@ 0000000180066a60     libucrt:lcidtoname_downlevel.obj
 0002:00004a70       ??_C@_1M@EIBJEEPA@?$AAm?$AAs?$AA?9?$AAM?$AAY?$AA?$AA@ 0000000180066a70     libucrt:lcidtoname_downlevel.obj
 0002:00004a80       ??_C@_1M@FHLBGMPP@?$AAk?$AAk?$AA?9?$AAK?$AAZ?$AA?$AA@ 0000000180066a80     libucrt:lcidtoname_downlevel.obj
 0002:00004a90       ??_C@_1M@NGJJLCGI@?$AAk?$AAy?$AA?9?$AAK?$AAG?$AA?$AA@ 0000000180066a90     libucrt:lcidtoname_downlevel.obj
 0002:00004aa0       ??_C@_1M@GIENNBFC@?$AAs?$AAw?$AA?9?$AAK?$AAE?$AA?$AA@ 0000000180066aa0     libucrt:lcidtoname_downlevel.obj
 0002:00004ab0       ??_C@_1BG@NDGMJIMJ@?$AAu?$AAz?$AA?9?$AAU?$AAZ?$AA?9?$AAL?$AAa?$AAt?$AAn?$AA?$AA@ 0000000180066ab0     libucrt:lcidtoname_downlevel.obj
 0002:00004ac8       ??_C@_1M@IDCCIHBC@?$AAt?$AAt?$AA?9?$AAR?$AAU?$AA?$AA@ 0000000180066ac8     libucrt:lcidtoname_downlevel.obj
 0002:00004ad8       ??_C@_1M@LOICPMOJ@?$AAb?$AAn?$AA?9?$AAI?$AAN?$AA?$AA@ 0000000180066ad8     libucrt:lcidtoname_downlevel.obj
 0002:00004ae8       ??_C@_1M@KPKKNEAH@?$AAp?$AAa?$AA?9?$AAI?$AAN?$AA?$AA@ 0000000180066ae8     libucrt:lcidtoname_downlevel.obj
 0002:00004af8       ??_C@_1M@PJGPPBOG@?$AAg?$AAu?$AA?9?$AAI?$AAN?$AA?$AA@ 0000000180066af8     libucrt:lcidtoname_downlevel.obj
 0002:00004b08       ??_C@_1M@KMKMOPHI@?$AAt?$AAa?$AA?9?$AAI?$AAN?$AA?$AA@ 0000000180066b08     libucrt:lcidtoname_downlevel.obj
 0002:00004b18       ??_C@_1M@KFEHEPAC@?$AAt?$AAe?$AA?9?$AAI?$AAN?$AA?$AA@ 0000000180066b18     libucrt:lcidtoname_downlevel.obj
 0002:00004b28       ??_C@_1M@CDCLMGHI@?$AAk?$AAn?$AA?9?$AAI?$AAN?$AA?$AA@ 0000000180066b28     libucrt:lcidtoname_downlevel.obj
 0002:00004b38       ??_C@_1M@MIODLDKF@?$AAm?$AAl?$AA?9?$AAI?$AAN?$AA?$AA@ 0000000180066b38     libucrt:lcidtoname_downlevel.obj
 0002:00004b48       ??_C@_1M@PBIEACPO@?$AAm?$AAr?$AA?9?$AAI?$AAN?$AA?$AA@ 0000000180066b48     libucrt:lcidtoname_downlevel.obj
 0002:00004b58       ??_C@_1M@NIDEAGPH@?$AAs?$AAa?$AA?9?$AAI?$AAN?$AA?$AA@ 0000000180066b58     libucrt:lcidtoname_downlevel.obj
 0002:00004b68       ??_C@_1M@FHIHCBIO@?$AAm?$AAn?$AA?9?$AAM?$AAN?$AA?$AA@ 0000000180066b68     libucrt:lcidtoname_downlevel.obj
 0002:00004b78       ??_C@_1M@JAIJPENP@?$AAc?$AAy?$AA?9?$AAG?$AAB?$AA?$AA@ 0000000180066b78     libucrt:lcidtoname_downlevel.obj
 0002:00004b88       ??_C@_1M@PHGFBEPN@?$AAg?$AAl?$AA?9?$AAE?$AAS?$AA?$AA@ 0000000180066b88     libucrt:lcidtoname_downlevel.obj
 0002:00004b98       ??_C@_1O@KPIPDNCP@?$AAk?$AAo?$AAk?$AA?9?$AAI?$AAN?$AA?$AA@ 0000000180066b98     libucrt:lcidtoname_downlevel.obj
 0002:00004ba8       ??_C@_1O@KNHJLDJA@?$AAs?$AAy?$AAr?$AA?9?$AAS?$AAY?$AA?$AA@ 0000000180066ba8     libucrt:lcidtoname_downlevel.obj
 0002:00004bb8       ??_C@_1O@MKEKBLAH@?$AAd?$AAi?$AAv?$AA?9?$AAM?$AAV?$AA?$AA@ 0000000180066bb8     libucrt:lcidtoname_downlevel.obj
 0002:00004bc8       ??_C@_1O@OHDCKDDF@?$AAq?$AAu?$AAz?$AA?9?$AAB?$AAO?$AA?$AA@ 0000000180066bc8     libucrt:lcidtoname_downlevel.obj
 0002:00004bd8       ??_C@_1M@LEPJNLFD@?$AAn?$AAs?$AA?9?$AAZ?$AAA?$AA?$AA@ 0000000180066bd8     libucrt:lcidtoname_downlevel.obj
 0002:00004be8       ??_C@_1M@OMLEIIJB@?$AAm?$AAi?$AA?9?$AAN?$AAZ?$AA?$AA@ 0000000180066be8     libucrt:lcidtoname_downlevel.obj
 0002:00004bf8       ??_C@_1M@PMPEAILG@?$AAa?$AAr?$AA?9?$AAI?$AAQ?$AA?$AA@ 0000000180066bf8     libucrt:lcidtoname_downlevel.obj
 0002:00004c08       ??_C@_1M@CNKPNOEE@?$AAd?$AAe?$AA?9?$AAC?$AAH?$AA?$AA@ 0000000180066c08     libucrt:lcidtoname_downlevel.obj
 0002:00004c18       ??_C@_1M@LKMGMLKO@?$AAe?$AAn?$AA?9?$AAG?$AAB?$AA?$AA@ 0000000180066c18     libucrt:lcidtoname_downlevel.obj
 0002:00004c28       ??_C@_1M@PGKJFFGL@?$AAe?$AAs?$AA?9?$AAM?$AAX?$AA?$AA@ 0000000180066c28     libucrt:lcidtoname_downlevel.obj
 0002:00004c38       ??_C@_1M@DNNANBDC@?$AAf?$AAr?$AA?9?$AAB?$AAE?$AA?$AA@ 0000000180066c38     libucrt:lcidtoname_downlevel.obj
 0002:00004c48       ??_C@_1M@HLGMDFHM@?$AAi?$AAt?$AA?9?$AAC?$AAH?$AA?$AA@ 0000000180066c48     libucrt:lcidtoname_downlevel.obj
 0002:00004c58       ??_C@_1M@CLLBGJH@?$AAn?$AAl?$AA?9?$AAB?$AAE?$AA?$AA@ 0000000180066c58     libucrt:lcidtoname_downlevel.obj
 0002:00004c68       ??_C@_1M@BODBOGLF@?$AAn?$AAn?$AA?9?$AAN?$AAO?$AA?$AA@ 0000000180066c68     libucrt:lcidtoname_downlevel.obj
 0002:00004c78       ??_C@_1M@HFFAHKAD@?$AAp?$AAt?$AA?9?$AAP?$AAT?$AA?$AA@ 0000000180066c78     libucrt:lcidtoname_downlevel.obj
 0002:00004c88       ??_C@_1BG@LNOAKHIE@?$AAs?$AAr?$AA?9?$AAS?$AAP?$AA?9?$AAL?$AAa?$AAt?$AAn?$AA?$AA@ 0000000180066c88     libucrt:lcidtoname_downlevel.obj
 0002:00004ca0       ??_C@_1M@HBMHBGAK@?$AAs?$AAv?$AA?9?$AAF?$AAI?$AA?$AA@ 0000000180066ca0     libucrt:lcidtoname_downlevel.obj
 0002:00004cb0       ??_C@_1BG@DGCJGJBE@?$AAa?$AAz?$AA?9?$AAA?$AAZ?$AA?9?$AAC?$AAy?$AAr?$AAl?$AA?$AA@ 0000000180066cb0     libucrt:lcidtoname_downlevel.obj
 0002:00004cc8       ??_C@_1M@KEJDAAHB@?$AAs?$AAe?$AA?9?$AAS?$AAE?$AA?$AA@ 0000000180066cc8     libucrt:lcidtoname_downlevel.obj
 0002:00004cd8       ??_C@_1M@HEIBJJAD@?$AAm?$AAs?$AA?9?$AAB?$AAN?$AA?$AA@ 0000000180066cd8     libucrt:lcidtoname_downlevel.obj
 0002:00004ce8       ??_C@_1BG@PBGJMCEM@?$AAu?$AAz?$AA?9?$AAU?$AAZ?$AA?9?$AAC?$AAy?$AAr?$AAl?$AA?$AA@ 0000000180066ce8     libucrt:lcidtoname_downlevel.obj
 0002:00004d00       ??_C@_1O@LAOBCMDF@?$AAq?$AAu?$AAz?$AA?9?$AAE?$AAC?$AA?$AA@ 0000000180066d00     libucrt:lcidtoname_downlevel.obj
 0002:00004d10       ??_C@_1M@POEEMAIO@?$AAa?$AAr?$AA?9?$AAE?$AAG?$AA?$AA@ 0000000180066d10     libucrt:lcidtoname_downlevel.obj
 0002:00004d20       ??_C@_1M@EFAKDEDL@?$AAz?$AAh?$AA?9?$AAH?$AAK?$AA?$AA@ 0000000180066d20     libucrt:lcidtoname_downlevel.obj
 0002:00004d30       ??_C@_1M@HKKIJHGI@?$AAd?$AAe?$AA?9?$AAA?$AAT?$AA?$AA@ 0000000180066d30     libucrt:lcidtoname_downlevel.obj
 0002:00004d40       ??_C@_1M@KBFBEHJF@?$AAe?$AAn?$AA?9?$AAA?$AAU?$AA?$AA@ 0000000180066d40     libucrt:lcidtoname_downlevel.obj
 0002:00004d50       ??_C@_1M@MNPLFAAH@?$AAe?$AAs?$AA?9?$AAE?$AAS?$AA?$AA@ 0000000180066d50     libucrt:lcidtoname_downlevel.obj
 0002:00004d60       ??_C@_1M@HJOOJFMA@?$AAf?$AAr?$AA?9?$AAC?$AAA?$AA?$AA@ 0000000180066d60     libucrt:lcidtoname_downlevel.obj
 0002:00004d70       ??_C@_1BG@JPOFPNAB@?$AAs?$AAr?$AA?9?$AAS?$AAP?$AA?9?$AAC?$AAy?$AAr?$AAl?$AA?$AA@ 0000000180066d70     libucrt:lcidtoname_downlevel.obj
 0002:00004d88       ??_C@_1M@LNFOCMOB@?$AAs?$AAe?$AA?9?$AAF?$AAI?$AA?$AA@ 0000000180066d88     libucrt:lcidtoname_downlevel.obj
 0002:00004d98       ??_C@_1O@MGJBOAMB@?$AAq?$AAu?$AAz?$AA?9?$AAP?$AAE?$AA?$AA@ 0000000180066d98     libucrt:lcidtoname_downlevel.obj
 0002:00004da8       ??_C@_1M@GJINLBOK@?$AAa?$AAr?$AA?9?$AAL?$AAY?$AA?$AA@ 0000000180066da8     libucrt:lcidtoname_downlevel.obj
 0002:00004db8       ??_C@_1M@GGMNHJNL@?$AAz?$AAh?$AA?9?$AAS?$AAG?$AA?$AA@ 0000000180066db8     libucrt:lcidtoname_downlevel.obj
 0002:00004dc8       ??_C@_1M@HOIKODND@?$AAd?$AAe?$AA?9?$AAL?$AAU?$AA?$AA@ 0000000180066dc8     libucrt:lcidtoname_downlevel.obj
 0002:00004dd8       ??_C@_1M@DDOCCGFG@?$AAe?$AAn?$AA?9?$AAC?$AAA?$AA?$AA@ 0000000180066dd8     libucrt:lcidtoname_downlevel.obj
 0002:00004de8       ??_C@_1M@BNOEMJLF@?$AAe?$AAs?$AA?9?$AAG?$AAT?$AA?$AA@ 0000000180066de8     libucrt:lcidtoname_downlevel.obj
 0002:00004df8       ??_C@_1M@EOGNKEK@?$AAf?$AAr?$AA?9?$AAC?$AAH?$AA?$AA@ 0000000180066df8     libucrt:lcidtoname_downlevel.obj
 0002:00004e08       ??_C@_1M@FLIDJFHL@?$AAh?$AAr?$AA?9?$AAB?$AAA?$AA?$AA@ 0000000180066e08     libucrt:lcidtoname_downlevel.obj
 0002:00004e18       ??_C@_1O@FMCELNAJ@?$AAs?$AAm?$AAj?$AA?9?$AAN?$AAO?$AA?$AA@ 0000000180066e18     libucrt:lcidtoname_downlevel.obj
 0002:00004e28       ??_C@_1M@JHGLJMGJ@?$AAa?$AAr?$AA?9?$AAD?$AAZ?$AA?$AA@ 0000000180066e28     libucrt:lcidtoname_downlevel.obj
 0002:00004e38       ??_C@_1M@JKKFDCNP@?$AAz?$AAh?$AA?9?$AAM?$AAO?$AA?$AA@ 0000000180066e38     libucrt:lcidtoname_downlevel.obj
 0002:00004e48       ??_C@_1M@GEEFALPE@?$AAd?$AAe?$AA?9?$AAL?$AAI?$AA?$AA@ 0000000180066e48     libucrt:lcidtoname_downlevel.obj
 0002:00004e58       ??_C@_1M@IGEOFBG@?$AAe?$AAn?$AA?9?$AAN?$AAZ?$AA?$AA@ 0000000180066e58     libucrt:lcidtoname_downlevel.obj
 0002:00004e68       ??_C@_1M@KDBONEHP@?$AAe?$AAs?$AA?9?$AAC?$AAR?$AA?$AA@ 0000000180066e68     libucrt:lcidtoname_downlevel.obj
 0002:00004e78       ??_C@_1M@FHMDOHNN@?$AAf?$AAr?$AA?9?$AAL?$AAU?$AA?$AA@ 0000000180066e78     libucrt:lcidtoname_downlevel.obj
 0002:00004e88       ??_C@_1BG@NFKKMAFG@?$AAb?$AAs?$AA?9?$AAB?$AAA?$AA?9?$AAL?$AAa?$AAt?$AAn?$AA?$AA@ 0000000180066e88     libucrt:lcidtoname_downlevel.obj
 0002:00004ea0       ??_C@_1O@IMNBEMCI@?$AAs?$AAm?$AAj?$AA?9?$AAS?$AAE?$AA?$AA@ 0000000180066ea0     libucrt:lcidtoname_downlevel.obj
 0002:00004eb0       ??_C@_1M@DHHMBNDP@?$AAa?$AAr?$AA?9?$AAM?$AAA?$AA?$AA@ 0000000180066eb0     libucrt:lcidtoname_downlevel.obj
 0002:00004ec0       ??_C@_1M@BNBLJCGH@?$AAe?$AAn?$AA?9?$AAI?$AAE?$AA?$AA@ 0000000180066ec0     libucrt:lcidtoname_downlevel.obj
 0002:00004ed0       ??_C@_1M@GEPAFMDL@?$AAe?$AAs?$AA?9?$AAP?$AAA?$AA?$AA@ 0000000180066ed0     libucrt:lcidtoname_downlevel.obj
 0002:00004ee0       ??_C@_1M@OJONDMDL@?$AAf?$AAr?$AA?9?$AAM?$AAC?$AA?$AA@ 0000000180066ee0     libucrt:lcidtoname_downlevel.obj
 0002:00004ef0       ??_C@_1BG@OBCNFJB@?$AAs?$AAr?$AA?9?$AAB?$AAA?$AA?9?$AAL?$AAa?$AAt?$AAn?$AA?$AA@ 0000000180066ef0     libucrt:lcidtoname_downlevel.obj
 0002:00004f08       ??_C@_1O@KEMEEGPO@?$AAs?$AAm?$AAa?$AA?9?$AAN?$AAO?$AA?$AA@ 0000000180066f08     libucrt:lcidtoname_downlevel.obj
 0002:00004f18       ??_C@_1M@ELMGFODK@?$AAa?$AAr?$AA?9?$AAT?$AAN?$AA?$AA@ 0000000180066f18     libucrt:lcidtoname_downlevel.obj
 0002:00004f28       ??_C@_1M@BHDLHFAF@?$AAe?$AAn?$AA?9?$AAZ?$AAA?$AA?$AA@ 0000000180066f28     libucrt:lcidtoname_downlevel.obj
 0002:00004f38       ??_C@_1M@BMGIGLIF@?$AAe?$AAs?$AA?9?$AAD?$AAO?$AA?$AA@ 0000000180066f38     libucrt:lcidtoname_downlevel.obj
 0002:00004f48       ??_C@_1BG@CMBHIPBE@?$AAs?$AAr?$AA?9?$AAB?$AAA?$AA?9?$AAC?$AAy?$AAr?$AAl?$AA?$AA@ 0000000180066f48     libucrt:lcidtoname_downlevel.obj
 0002:00004f60       ??_C@_1O@HEDBLHNP@?$AAs?$AAm?$AAa?$AA?9?$AAS?$AAE?$AA?$AA@ 0000000180066f60     libucrt:lcidtoname_downlevel.obj
 0002:00004f70       ??_C@_1M@DAGCADIM@?$AAa?$AAr?$AA?9?$AAO?$AAM?$AA?$AA@ 0000000180066f70     libucrt:lcidtoname_downlevel.obj
 0002:00004f80       ??_C@_1M@FODLMICG@?$AAe?$AAn?$AA?9?$AAJ?$AAM?$AA?$AA@ 0000000180066f80     libucrt:lcidtoname_downlevel.obj
 0002:00004f90       ??_C@_1M@DNMLCIHB@?$AAe?$AAs?$AA?9?$AAV?$AAE?$AA?$AA@ 0000000180066f90     libucrt:lcidtoname_downlevel.obj
 0002:00004fa0       ??_C@_1O@EOKHMKJK@?$AAs?$AAm?$AAs?$AA?9?$AAF?$AAI?$AA?$AA@ 0000000180066fa0     libucrt:lcidtoname_downlevel.obj
 0002:00004fb0       ??_C@_1M@CAFJMKOF@?$AAa?$AAr?$AA?9?$AAY?$AAE?$AA?$AA@ 0000000180066fb0     libucrt:lcidtoname_downlevel.obj
 0002:00004fc0       ??_C@_1M@CBFHIJLI@?$AAe?$AAn?$AA?9?$AAC?$AAB?$AA?$AA@ 0000000180066fc0     libucrt:lcidtoname_downlevel.obj
 0002:00004fd0       ??_C@_1M@BGNFLDN@?$AAe?$AAs?$AA?9?$AAC?$AAO?$AA?$AA@ 0000000180066fd0     libucrt:lcidtoname_downlevel.obj
 0002:00004fe0       ??_C@_1O@JMPHMAMC@?$AAs?$AAm?$AAn?$AA?9?$AAF?$AAI?$AA?$AA@ 0000000180066fe0     libucrt:lcidtoname_downlevel.obj
 0002:00004ff0       ??_C@_1M@JLANABKE@?$AAa?$AAr?$AA?9?$AAS?$AAY?$AA?$AA@ 0000000180066ff0     libucrt:lcidtoname_downlevel.obj
 0002:00005000       ??_C@_1M@HPKGCFGN@?$AAe?$AAn?$AA?9?$AAB?$AAZ?$AA?$AA@ 0000000180067000     libucrt:lcidtoname_downlevel.obj
 0002:00005010       ??_C@_1M@OLJCMLGM@?$AAe?$AAs?$AA?9?$AAP?$AAE?$AA?$AA@ 0000000180067010     libucrt:lcidtoname_downlevel.obj
 0002:00005020       ??_C@_1M@MKKGFKLE@?$AAa?$AAr?$AA?9?$AAJ?$AAO?$AA?$AA@ 0000000180067020     libucrt:lcidtoname_downlevel.obj
 0002:00005030       ??_C@_1M@EKPGLDNI@?$AAe?$AAn?$AA?9?$AAT?$AAT?$AA?$AA@ 0000000180067030     libucrt:lcidtoname_downlevel.obj
 0002:00005040       ??_C@_1M@OONGHFHE@?$AAe?$AAs?$AA?9?$AAA?$AAR?$AA?$AA@ 0000000180067040     libucrt:lcidtoname_downlevel.obj
 0002:00005050       ??_C@_1M@OOJFGBHE@?$AAa?$AAr?$AA?9?$AAL?$AAB?$AA?$AA@ 0000000180067050     libucrt:lcidtoname_downlevel.obj
 0002:00005060       ??_C@_1M@GCEJHNEG@?$AAe?$AAn?$AA?9?$AAZ?$AAW?$AA?$AA@ 0000000180067060     libucrt:lcidtoname_downlevel.obj
 0002:00005070       ??_C@_1M@JNOCAHJI@?$AAe?$AAs?$AA?9?$AAE?$AAC?$AA?$AA@ 0000000180067070     libucrt:lcidtoname_downlevel.obj
 0002:00005080       ??_C@_1M@JEFHPGGB@?$AAa?$AAr?$AA?9?$AAK?$AAW?$AA?$AA@ 0000000180067080     libucrt:lcidtoname_downlevel.obj
 0002:00005090       ??_C@_1M@MLKIBJOJ@?$AAe?$AAn?$AA?9?$AAP?$AAH?$AA?$AA@ 0000000180067090     libucrt:lcidtoname_downlevel.obj
 0002:000050a0       ??_C@_1M@BDNIPEND@?$AAe?$AAs?$AA?9?$AAC?$AAL?$AA?$AA@ 00000001800670a0     libucrt:lcidtoname_downlevel.obj
 0002:000050b0       ??_C@_1M@MPNMEKBD@?$AAa?$AAr?$AA?9?$AAA?$AAE?$AA?$AA@ 00000001800670b0     libucrt:lcidtoname_downlevel.obj
 0002:000050c0       ??_C@_1M@KBJALCPI@?$AAe?$AAs?$AA?9?$AAU?$AAY?$AA?$AA@ 00000001800670c0     libucrt:lcidtoname_downlevel.obj
 0002:000050d0       ??_C@_1M@LLCCOAGA@?$AAa?$AAr?$AA?9?$AAB?$AAH?$AA?$AA@ 00000001800670d0     libucrt:lcidtoname_downlevel.obj
 0002:000050e0       ??_C@_1M@PBFNCDEL@?$AAe?$AAs?$AA?9?$AAP?$AAY?$AA?$AA@ 00000001800670e0     libucrt:lcidtoname_downlevel.obj
 0002:000050f0       ??_C@_1M@EDGINPNP@?$AAa?$AAr?$AA?9?$AAQ?$AAA?$AA?$AA@ 00000001800670f0     libucrt:lcidtoname_downlevel.obj
 0002:00005100       ??_C@_1M@MKDBIIJI@?$AAe?$AAs?$AA?9?$AAB?$AAO?$AA?$AA@ 0000000180067100     libucrt:lcidtoname_downlevel.obj
 0002:00005110       ??_C@_1M@CPKKEBLD@?$AAe?$AAs?$AA?9?$AAS?$AAV?$AA?$AA@ 0000000180067110     libucrt:lcidtoname_downlevel.obj
 0002:00005120       ??_C@_1M@NDBGMMJL@?$AAe?$AAs?$AA?9?$AAH?$AAN?$AA?$AA@ 0000000180067120     libucrt:lcidtoname_downlevel.obj
 0002:00005130       ??_C@_1M@JIJIBHDP@?$AAe?$AAs?$AA?9?$AAN?$AAI?$AA?$AA@ 0000000180067130     libucrt:lcidtoname_downlevel.obj
 0002:00005140       ??_C@_1M@CGFMKEEK@?$AAe?$AAs?$AA?9?$AAP?$AAR?$AA?$AA@ 0000000180067140     libucrt:lcidtoname_downlevel.obj
 0002:00005150       ??_C@_1O@ICJHKIIK@?$AAz?$AAh?$AA?9?$AAC?$AAH?$AAT?$AA?$AA@ 0000000180067150     libucrt:lcidtoname_downlevel.obj
 0002:00005160       ??_C@_15CLNEJCE@?$AAs?$AAr?$AA?$AA@ 0000000180067160     libucrt:lcidtoname_downlevel.obj
 0002:00005fb0       ??_C@_1M@KAHEKEIG@?$AAa?$AAf?$AA?9?$AAz?$AAa?$AA?$AA@ 0000000180067fb0     libucrt:lcidtoname_downlevel.obj
 0002:00005fc0       ??_C@_1M@GIECOABL@?$AAa?$AAr?$AA?9?$AAa?$AAe?$AA?$AA@ 0000000180067fc0     libucrt:lcidtoname_downlevel.obj
 0002:00005fd0       ??_C@_1M@BMLMEKGI@?$AAa?$AAr?$AA?9?$AAb?$AAh?$AA?$AA@ 0000000180067fd0     libucrt:lcidtoname_downlevel.obj
 0002:00005fe0       ??_C@_1M@DAPFDGGB@?$AAa?$AAr?$AA?9?$AAd?$AAz?$AA?$AA@ 0000000180067fe0     libucrt:lcidtoname_downlevel.obj
 0002:00005ff0       ??_C@_1M@FJNKGKIG@?$AAa?$AAr?$AA?9?$AAe?$AAg?$AA?$AA@ 0000000180067ff0     libucrt:lcidtoname_downlevel.obj
 0002:00006000       ??_C@_1M@FLGKKCLO@?$AAa?$AAr?$AA?9?$AAi?$AAq?$AA?$AA@ 0000000180068000     libucrt:lcidtoname_downlevel.obj
 0002:00006010       ??_C@_1M@GNDIPALM@?$AAa?$AAr?$AA?9?$AAj?$AAo?$AA?$AA@ 0000000180068010     libucrt:lcidtoname_downlevel.obj
 0002:00006020       ??_C@_1M@DDMJFMGJ@?$AAa?$AAr?$AA?9?$AAk?$AAw?$AA?$AA@ 0000000180068020     libucrt:lcidtoname_downlevel.obj
 0002:00006030       ??_C@_1M@EJALMLHM@?$AAa?$AAr?$AA?9?$AAl?$AAb?$AA?$AA@ 0000000180068030     libucrt:lcidtoname_downlevel.obj
 0002:00006040       ??_C@_1M@MOBDBLOC@?$AAa?$AAr?$AA?9?$AAl?$AAy?$AA?$AA@ 0000000180068040     libucrt:lcidtoname_downlevel.obj
 0002:00006050       ??_C@_1M@JAOCLHDH@?$AAa?$AAr?$AA?9?$AAm?$AAa?$AA?$AA@ 0000000180068050     libucrt:lcidtoname_downlevel.obj
 0002:00006060       ??_C@_1M@JHPMKJIE@?$AAa?$AAr?$AA?9?$AAo?$AAm?$AA?$AA@ 0000000180068060     libucrt:lcidtoname_downlevel.obj
 0002:00006070       ??_C@_1M@OEPGHFNH@?$AAa?$AAr?$AA?9?$AAq?$AAa?$AA?$AA@ 0000000180068070     libucrt:lcidtoname_downlevel.obj
 0002:00006080       ??_C@_1M@KJDONENM@?$AAa?$AAr?$AA?9?$AAs?$AAa?$AA?$AA@ 0000000180068080     libucrt:lcidtoname_downlevel.obj
 0002:00006090       ??_C@_1M@DMJDKLKM@?$AAa?$AAr?$AA?9?$AAs?$AAy?$AA?$AA@ 0000000180068090     libucrt:lcidtoname_downlevel.obj
 0002:000060a0       ??_C@_1M@OMFIPEDC@?$AAa?$AAr?$AA?9?$AAt?$AAn?$AA?$AA@ 00000001800680a0     libucrt:lcidtoname_downlevel.obj
 0002:000060b0       ??_C@_1M@IHMHGAON@?$AAa?$AAr?$AA?9?$AAy?$AAe?$AA?$AA@ 00000001800680b0     libucrt:lcidtoname_downlevel.obj
 0002:000060c0       ??_C@_1BG@KDCPGJGB@?$AAa?$AAz?$AA?9?$AAa?$AAz?$AA?9?$AAc?$AAy?$AAr?$AAl?$AA?$AA@ 00000001800680c0     libucrt:lcidtoname_downlevel.obj
 0002:000060d8       ??_C@_1BG@IBCKDDOE@?$AAa?$AAz?$AA?9?$AAa?$AAz?$AA?9?$AAl?$AAa?$AAt?$AAn?$AA?$AA@ 00000001800680d8     libucrt:lcidtoname_downlevel.obj
 0002:000060f0       ??_C@_1M@EGPFDCPD@?$AAb?$AAe?$AA?9?$AAb?$AAy?$AA?$AA@ 00000001800680f0     libucrt:lcidtoname_downlevel.obj
 0002:00006100       ??_C@_1M@PCMGMCGC@?$AAb?$AAg?$AA?9?$AAb?$AAg?$AA?$AA@ 0000000180068100     libucrt:lcidtoname_downlevel.obj
 0002:00006110       ??_C@_1M@BJBMFGOB@?$AAb?$AAn?$AA?9?$AAi?$AAn?$AA?$AA@ 0000000180068110     libucrt:lcidtoname_downlevel.obj
 0002:00006120       ??_C@_1BG@EAKMMACD@?$AAb?$AAs?$AA?9?$AAb?$AAa?$AA?9?$AAl?$AAa?$AAt?$AAn?$AA?$AA@ 0000000180068120     libucrt:lcidtoname_downlevel.obj
 0002:00006138       ??_C@_1M@KGADAODK@?$AAc?$AAa?$AA?9?$AAe?$AAs?$AA?$AA@ 0000000180068138     libucrt:lcidtoname_downlevel.obj
 0002:00006148       ??_C@_1M@COAJPDHI@?$AAc?$AAs?$AA?9?$AAc?$AAz?$AA?$AA@ 0000000180068148     libucrt:lcidtoname_downlevel.obj
 0002:00006158       ??_C@_1M@DHBHFONH@?$AAc?$AAy?$AA?9?$AAg?$AAb?$AA?$AA@ 0000000180068158     libucrt:lcidtoname_downlevel.obj
 0002:00006168       ??_C@_1M@IMGKELGA@?$AAd?$AAa?$AA?9?$AAd?$AAk?$AA?$AA@ 0000000180068168     libucrt:lcidtoname_downlevel.obj
 0002:00006178       ??_C@_1M@NNDGDNGA@?$AAd?$AAe?$AA?9?$AAa?$AAt?$AA?$AA@ 0000000180068178     libucrt:lcidtoname_downlevel.obj
 0002:00006188       ??_C@_1M@IKDBHEEM@?$AAd?$AAe?$AA?9?$AAc?$AAh?$AA?$AA@ 0000000180068188     libucrt:lcidtoname_downlevel.obj
 0002:00006198       ??_C@_1M@GFFOJMCJ@?$AAd?$AAe?$AA?9?$AAd?$AAe?$AA?$AA@ 0000000180068198     libucrt:lcidtoname_downlevel.obj
 0002:000061a8       ??_C@_1M@MDNLKBPM@?$AAd?$AAe?$AA?9?$AAl?$AAi?$AA?$AA@ 00000001800681a8     libucrt:lcidtoname_downlevel.obj
 0002:000061b8       ??_C@_1M@NJBEEJNL@?$AAd?$AAe?$AA?9?$AAl?$AAu?$AA?$AA@ 00000001800681b8     libucrt:lcidtoname_downlevel.obj
 0002:000061c8       ??_C@_1O@GNNELBAP@?$AAd?$AAi?$AAv?$AA?9?$AAm?$AAv?$AA?$AA@ 00000001800681c8     libucrt:lcidtoname_downlevel.obj
 0002:000061d8       ??_C@_1M@EJLEOGAE@?$AAe?$AAl?$AA?9?$AAg?$AAr?$AA?$AA@ 00000001800681d8     libucrt:lcidtoname_downlevel.obj
 0002:000061e8       ??_C@_1M@GMPONJN@?$AAe?$AAn?$AA?9?$AAa?$AAu?$AA?$AA@ 00000001800681e8     libucrt:lcidtoname_downlevel.obj
 0002:000061f8       ??_C@_1M@NIDIIPGF@?$AAe?$AAn?$AA?9?$AAb?$AAz?$AA?$AA@ 00000001800681f8     libucrt:lcidtoname_downlevel.obj
 0002:00006208       ??_C@_1M@JEHMIMFO@?$AAe?$AAn?$AA?9?$AAc?$AAa?$AA?$AA@ 0000000180068208     libucrt:lcidtoname_downlevel.obj
 0002:00006218       ??_C@_1M@IGMJCDLA@?$AAe?$AAn?$AA?9?$AAc?$AAb?$AA?$AA@ 0000000180068218     libucrt:lcidtoname_downlevel.obj
 0002:00006228       ??_C@_1M@BNFIGBKG@?$AAe?$AAn?$AA?9?$AAg?$AAb?$AA?$AA@ 0000000180068228     libucrt:lcidtoname_downlevel.obj
 0002:00006238       ??_C@_1M@LKIFDIGP@?$AAe?$AAn?$AA?9?$AAi?$AAe?$AA?$AA@ 0000000180068238     libucrt:lcidtoname_downlevel.obj
 0002:00006248       ??_C@_1M@PJKFGCCO@?$AAe?$AAn?$AA?9?$AAj?$AAm?$AA?$AA@ 0000000180068248     libucrt:lcidtoname_downlevel.obj
 0002:00006258       ??_C@_1M@KPPKEPBO@?$AAe?$AAn?$AA?9?$AAn?$AAz?$AA?$AA@ 0000000180068258     libucrt:lcidtoname_downlevel.obj
 0002:00006268       ??_C@_1M@GMDGLDOB@?$AAe?$AAn?$AA?9?$AAp?$AAh?$AA?$AA@ 0000000180068268     libucrt:lcidtoname_downlevel.obj
 0002:00006278       ??_C@_1M@ONGIBJNA@?$AAe?$AAn?$AA?9?$AAt?$AAt?$AA?$AA@ 0000000180068278     libucrt:lcidtoname_downlevel.obj
 0002:00006288       ??_C@_1M@LLODPCMM@?$AAe?$AAn?$AA?9?$AAu?$AAs?$AA?$AA@ 0000000180068288     libucrt:lcidtoname_downlevel.obj
 0002:00006298       ??_C@_1M@LAKFNPAN@?$AAe?$AAn?$AA?9?$AAz?$AAa?$AA?$AA@ 0000000180068298     libucrt:lcidtoname_downlevel.obj
 0002:000062a8       ??_C@_1M@MFNHNHEO@?$AAe?$AAn?$AA?9?$AAz?$AAw?$AA?$AA@ 00000001800682a8     libucrt:lcidtoname_downlevel.obj
 0002:000062b8       ??_C@_1M@EJEINPHM@?$AAe?$AAs?$AA?9?$AAa?$AAr?$AA?$AA@ 00000001800682b8     libucrt:lcidtoname_downlevel.obj
 0002:000062c8       ??_C@_1M@GNKPCCJA@?$AAe?$AAs?$AA?9?$AAb?$AAo?$AA?$AA@ 00000001800682c8     libucrt:lcidtoname_downlevel.obj
 0002:000062d8       ??_C@_1M@LEEGFONL@?$AAe?$AAs?$AA?9?$AAc?$AAl?$AA?$AA@ 00000001800682d8     libucrt:lcidtoname_downlevel.obj
 0002:000062e8       ??_C@_1M@KGPDPBDF@?$AAe?$AAs?$AA?9?$AAc?$AAo?$AA?$AA@ 00000001800682e8     libucrt:lcidtoname_downlevel.obj
 0002:000062f8       ??_C@_1M@EIAHOHH@?$AAe?$AAs?$AA?9?$AAc?$AAr?$AA?$AA@ 00000001800682f8     libucrt:lcidtoname_downlevel.obj
 0002:00006308       ??_C@_1M@LLPGMBIN@?$AAe?$AAs?$AA?9?$AAd?$AAo?$AA?$AA@ 0000000180068308     libucrt:lcidtoname_downlevel.obj
 0002:00006318       ??_C@_1M@DKHMKNJA@?$AAe?$AAs?$AA?9?$AAe?$AAc?$AA?$AA@ 0000000180068318     libucrt:lcidtoname_downlevel.obj
 0002:00006328       ??_C@_1M@GKGFPKAP@?$AAe?$AAs?$AA?9?$AAe?$AAs?$AA?$AA@ 0000000180068328     libucrt:lcidtoname_downlevel.obj
 0002:00006338       ??_C@_1M@LKHKGDLN@?$AAe?$AAs?$AA?9?$AAg?$AAt?$AA?$AA@ 0000000180068338     libucrt:lcidtoname_downlevel.obj
 0002:00006348       ??_C@_1M@HEIIGGJD@?$AAe?$AAs?$AA?9?$AAh?$AAn?$AA?$AA@ 0000000180068348     libucrt:lcidtoname_downlevel.obj
 0002:00006358       ??_C@_1M@FBDHPPGD@?$AAe?$AAs?$AA?9?$AAm?$AAx?$AA?$AA@ 0000000180068358     libucrt:lcidtoname_downlevel.obj
 0002:00006368       ??_C@_1M@DPAGLNDH@?$AAe?$AAs?$AA?9?$AAn?$AAi?$AA?$AA@ 0000000180068368     libucrt:lcidtoname_downlevel.obj
 0002:00006378       ??_C@_1M@MDGOPGDD@?$AAe?$AAs?$AA?9?$AAp?$AAa?$AA?$AA@ 0000000180068378     libucrt:lcidtoname_downlevel.obj
 0002:00006388       ??_C@_1M@EMAMGBGE@?$AAe?$AAs?$AA?9?$AAp?$AAe?$AA?$AA@ 0000000180068388     libucrt:lcidtoname_downlevel.obj
 0002:00006398       ??_C@_1M@IBMCAOEC@?$AAe?$AAs?$AA?9?$AAp?$AAr?$AA?$AA@ 0000000180068398     libucrt:lcidtoname_downlevel.obj
 0002:000063a8       ??_C@_1M@FGMDIJED@?$AAe?$AAs?$AA?9?$AAp?$AAy?$AA?$AA@ 00000001800683a8     libucrt:lcidtoname_downlevel.obj
 0002:000063b8       ??_C@_1M@IIDEOLLL@?$AAe?$AAs?$AA?9?$AAs?$AAv?$AA?$AA@ 00000001800683b8     libucrt:lcidtoname_downlevel.obj
 0002:000063c8       ??_C@_1M@GAOBIPA@?$AAe?$AAs?$AA?9?$AAu?$AAy?$AA?$AA@ 00000001800683c8     libucrt:lcidtoname_downlevel.obj
 0002:000063d8       ??_C@_1M@JKFFICHJ@?$AAe?$AAs?$AA?9?$AAv?$AAe?$AA?$AA@ 00000001800683d8     libucrt:lcidtoname_downlevel.obj
 0002:000063e8       ??_C@_1M@PNMLOJDF@?$AAe?$AAt?$AA?9?$AAe?$AAe?$AA?$AA@ 00000001800683e8     libucrt:lcidtoname_downlevel.obj
 0002:000063f8       ??_C@_1M@GHHLIKEI@?$AAe?$AAu?$AA?9?$AAe?$AAs?$AA?$AA@ 00000001800683f8     libucrt:lcidtoname_downlevel.obj
 0002:00006408       ??_C@_1M@PBNONODE@?$AAf?$AAa?$AA?9?$AAi?$AAr?$AA?$AA@ 0000000180068408     libucrt:lcidtoname_downlevel.obj
 0002:00006418       ??_C@_1M@JEEHPMIL@?$AAf?$AAi?$AA?9?$AAf?$AAi?$AA?$AA@ 0000000180068418     libucrt:lcidtoname_downlevel.obj
 0002:00006428       ??_C@_1M@LMDCNDBA@?$AAf?$AAo?$AA?9?$AAf?$AAo?$AA?$AA@ 0000000180068428     libucrt:lcidtoname_downlevel.obj
 0002:00006438       ??_C@_1M@JKEOHLDK@?$AAf?$AAr?$AA?9?$AAb?$AAe?$AA?$AA@ 0000000180068438     libucrt:lcidtoname_downlevel.obj
 0002:00006448       ??_C@_1M@NOHADPMI@?$AAf?$AAr?$AA?9?$AAc?$AAa?$AA?$AA@ 0000000180068448     libucrt:lcidtoname_downlevel.obj
 0002:00006458       ??_C@_1M@KDHIHAEC@?$AAf?$AAr?$AA?9?$AAc?$AAh?$AA?$AA@ 0000000180068458     libucrt:lcidtoname_downlevel.obj
 0002:00006468       ??_C@_1M@MMBBFGAK@?$AAf?$AAr?$AA?9?$AAf?$AAr?$AA?$AA@ 0000000180068468     libucrt:lcidtoname_downlevel.obj
 0002:00006478       ??_C@_1M@PAFNENNF@?$AAf?$AAr?$AA?9?$AAl?$AAu?$AA?$AA@ 0000000180068478     libucrt:lcidtoname_downlevel.obj
 0002:00006488       ??_C@_1M@EOHDJGDD@?$AAf?$AAr?$AA?9?$AAm?$AAc?$AA?$AA@ 0000000180068488     libucrt:lcidtoname_downlevel.obj
 0002:00006498       ??_C@_1M@FAPLLOPF@?$AAg?$AAl?$AA?9?$AAe?$AAs?$AA?$AA@ 0000000180068498     libucrt:lcidtoname_downlevel.obj
 0002:000064a8       ??_C@_1M@FOPBFLOO@?$AAg?$AAu?$AA?9?$AAi?$AAn?$AA?$AA@ 00000001800684a8     libucrt:lcidtoname_downlevel.obj
 0002:000064b8       ??_C@_1M@KBMCINPM@?$AAh?$AAe?$AA?9?$AAi?$AAl?$AA?$AA@ 00000001800684b8     libucrt:lcidtoname_downlevel.obj
 0002:000064c8       ??_C@_1M@BBPHKFPJ@?$AAh?$AAi?$AA?9?$AAi?$AAn?$AA?$AA@ 00000001800684c8     libucrt:lcidtoname_downlevel.obj
 0002:000064d8       ??_C@_1M@PMBNDPHD@?$AAh?$AAr?$AA?9?$AAb?$AAa?$AA?$AA@ 00000001800684d8     libucrt:lcidtoname_downlevel.obj
 0002:000064e8       ??_C@_1M@BPCKOEGE@?$AAh?$AAr?$AA?9?$AAh?$AAr?$AA?$AA@ 00000001800684e8     libucrt:lcidtoname_downlevel.obj
 0002:000064f8       ??_C@_1M@GACBMHKE@?$AAh?$AAu?$AA?9?$AAh?$AAu?$AA?$AA@ 00000001800684f8     libucrt:lcidtoname_downlevel.obj
 0002:00006508       ??_C@_1M@MILPAJJC@?$AAh?$AAy?$AA?9?$AAa?$AAm?$AA?$AA@ 0000000180068508     libucrt:lcidtoname_downlevel.obj
 0002:00006518       ??_C@_1M@BABBICEC@?$AAi?$AAd?$AA?9?$AAi?$AAd?$AA?$AA@ 0000000180068518     libucrt:lcidtoname_downlevel.obj
 0002:00006528       ??_C@_1M@BIKNHHPF@?$AAi?$AAs?$AA?9?$AAi?$AAs?$AA?$AA@ 0000000180068528     libucrt:lcidtoname_downlevel.obj
 0002:00006538       ??_C@_1M@NMPCJPHE@?$AAi?$AAt?$AA?9?$AAc?$AAh?$AA?$AA@ 0000000180068538     libucrt:lcidtoname_downlevel.obj
 0002:00006548       ??_C@_1M@GHKGFEDF@?$AAi?$AAt?$AA?9?$AAi?$AAt?$AA?$AA@ 0000000180068548     libucrt:lcidtoname_downlevel.obj
 0002:00006558       ??_C@_1M@NIEJCJJA@?$AAj?$AAa?$AA?9?$AAj?$AAp?$AA?$AA@ 0000000180068558     libucrt:lcidtoname_downlevel.obj
 0002:00006568       ??_C@_1M@JILFNBIM@?$AAk?$AAa?$AA?9?$AAg?$AAe?$AA?$AA@ 0000000180068568     libucrt:lcidtoname_downlevel.obj
 0002:00006578       ??_C@_1M@PACPMGPH@?$AAk?$AAk?$AA?9?$AAk?$AAz?$AA?$AA@ 0000000180068578     libucrt:lcidtoname_downlevel.obj
 0002:00006588       ??_C@_1M@IELFGMHA@?$AAk?$AAn?$AA?9?$AAi?$AAn?$AA?$AA@ 0000000180068588     libucrt:lcidtoname_downlevel.obj
 0002:00006598       ??_C@_1O@IBBJHCH@?$AAk?$AAo?$AAk?$AA?9?$AAi?$AAn?$AA?$AA@ 0000000180068598     libucrt:lcidtoname_downlevel.obj
 0002:000065a8       ??_C@_1M@DMHAEOGC@?$AAk?$AAo?$AA?9?$AAk?$AAr?$AA?$AA@ 00000001800685a8     libucrt:lcidtoname_downlevel.obj
 0002:000065b8       ??_C@_1M@HBAHBIGA@?$AAk?$AAy?$AA?9?$AAk?$AAg?$AA?$AA@ 00000001800685b8     libucrt:lcidtoname_downlevel.obj
 0002:000065c8       ??_C@_1M@KPMILCJG@?$AAl?$AAt?$AA?9?$AAl?$AAt?$AA?$AA@ 00000001800685c8     libucrt:lcidtoname_downlevel.obj
 0002:000065d8       ??_C@_1M@BDEKKCA@?$AAl?$AAv?$AA?9?$AAl?$AAv?$AA?$AA@ 00000001800685d8     libucrt:lcidtoname_downlevel.obj
 0002:000065e8       ??_C@_1M@ELCKCCJJ@?$AAm?$AAi?$AA?9?$AAn?$AAz?$AA?$AA@ 00000001800685e8     libucrt:lcidtoname_downlevel.obj
 0002:000065f8       ??_C@_1M@CBOOLAPA@?$AAm?$AAk?$AA?9?$AAm?$AAk?$AA?$AA@ 00000001800685f8     libucrt:lcidtoname_downlevel.obj
 0002:00006608       ??_C@_1M@GPHNBJKN@?$AAm?$AAl?$AA?9?$AAi?$AAn?$AA?$AA@ 0000000180068608     libucrt:lcidtoname_downlevel.obj
 0002:00006618       ??_C@_1M@PABJILIG@?$AAm?$AAn?$AA?9?$AAm?$AAn?$AA?$AA@ 0000000180068618     libucrt:lcidtoname_downlevel.obj
 0002:00006628       ??_C@_1M@FGBKKIPG@?$AAm?$AAr?$AA?9?$AAi?$AAn?$AA?$AA@ 0000000180068628     libucrt:lcidtoname_downlevel.obj
 0002:00006638       ??_C@_1M@NDBPDDAL@?$AAm?$AAs?$AA?9?$AAb?$AAn?$AA?$AA@ 0000000180068638     libucrt:lcidtoname_downlevel.obj
 0002:00006648       ??_C@_1M@OPIHOOPI@?$AAm?$AAs?$AA?9?$AAm?$AAy?$AA?$AA@ 0000000180068648     libucrt:lcidtoname_downlevel.obj
 0002:00006658       ??_C@_1M@PPDBCNFM@?$AAm?$AAt?$AA?9?$AAm?$AAt?$AA?$AA@ 0000000180068658     libucrt:lcidtoname_downlevel.obj
 0002:00006668       ??_C@_1M@KDJDKMDD@?$AAn?$AAb?$AA?9?$AAn?$AAo?$AA?$AA@ 0000000180068668     libucrt:lcidtoname_downlevel.obj
 0002:00006678       ??_C@_1M@KFCFLMJP@?$AAn?$AAl?$AA?9?$AAb?$AAe?$AA?$AA@ 0000000180068678     libucrt:lcidtoname_downlevel.obj
 0002:00006688       ??_C@_1M@KPOPDDGO@?$AAn?$AAl?$AA?9?$AAn?$AAl?$AA?$AA@ 0000000180068688     libucrt:lcidtoname_downlevel.obj
 0002:00006698       ??_C@_1M@LJKPEMLN@?$AAn?$AAn?$AA?9?$AAn?$AAo?$AA?$AA@ 0000000180068698     libucrt:lcidtoname_downlevel.obj
 0002:000066a8       ??_C@_1M@BDGHHBFL@?$AAn?$AAs?$AA?9?$AAz?$AAa?$AA?$AA@ 00000001800686a8     libucrt:lcidtoname_downlevel.obj
 0002:000066b8       ??_C@_1M@IDEHOAP@?$AAp?$AAa?$AA?9?$AAi?$AAn?$AA?$AA@ 00000001800686b8     libucrt:lcidtoname_downlevel.obj
 0002:000066c8       ??_C@_1M@HDBKGOGH@?$AAp?$AAl?$AA?9?$AAp?$AAl?$AA?$AA@ 00000001800686c8     libucrt:lcidtoname_downlevel.obj
 0002:000066d8       ??_C@_1M@LJLLCMEH@?$AAp?$AAt?$AA?9?$AAb?$AAr?$AA?$AA@ 00000001800686d8     libucrt:lcidtoname_downlevel.obj
 0002:000066e8       ??_C@_1M@NCMONAAL@?$AAp?$AAt?$AA?9?$AAp?$AAt?$AA?$AA@ 00000001800686e8     libucrt:lcidtoname_downlevel.obj
 0002:000066f8       ??_C@_1O@EAKMAJDN@?$AAq?$AAu?$AAz?$AA?9?$AAb?$AAo?$AA?$AA@ 00000001800686f8     libucrt:lcidtoname_downlevel.obj
 0002:00006708       ??_C@_1O@BHHPIGDN@?$AAq?$AAu?$AAz?$AA?9?$AAe?$AAc?$AA?$AA@ 0000000180068708     libucrt:lcidtoname_downlevel.obj
 0002:00006718       ??_C@_1O@GBAPEKMJ@?$AAq?$AAu?$AAz?$AA?9?$AAp?$AAe?$AA?$AA@ 0000000180068718     libucrt:lcidtoname_downlevel.obj
 0002:00006728       ??_C@_1M@CLGLEFBO@?$AAr?$AAo?$AA?9?$AAr?$AAo?$AA?$AA@ 0000000180068728     libucrt:lcidtoname_downlevel.obj
 0002:00006738       ??_C@_1M@CEEDODME@?$AAr?$AAu?$AA?9?$AAr?$AAu?$AA?$AA@ 0000000180068738     libucrt:lcidtoname_downlevel.obj
 0002:00006748       ??_C@_1M@HPKKKMPP@?$AAs?$AAa?$AA?9?$AAi?$AAn?$AA?$AA@ 0000000180068748     libucrt:lcidtoname_downlevel.obj
 0002:00006758       ??_C@_1M@BKMAIGOJ@?$AAs?$AAe?$AA?9?$AAf?$AAi?$AA?$AA@ 0000000180068758     libucrt:lcidtoname_downlevel.obj
 0002:00006768       ??_C@_1M@NDPIFLFI@?$AAs?$AAe?$AA?9?$AAn?$AAo?$AA?$AA@ 0000000180068768     libucrt:lcidtoname_downlevel.obj
 0002:00006778       ??_C@_1M@DANKKHJ@?$AAs?$AAe?$AA?9?$AAs?$AAe?$AA?$AA@ 0000000180068778     libucrt:lcidtoname_downlevel.obj
 0002:00006788       ??_C@_1M@PNBLONPJ@?$AAs?$AAk?$AA?9?$AAs?$AAk?$AA?$AA@ 0000000180068788     libucrt:lcidtoname_downlevel.obj
 0002:00006798       ??_C@_1M@LFMODOAL@?$AAs?$AAl?$AA?9?$AAs?$AAi?$AA?$AA@ 0000000180068798     libucrt:lcidtoname_downlevel.obj
 0002:000067a8       ??_C@_1O@DFKOMPG@?$AAs?$AAm?$AAa?$AA?9?$AAn?$AAo?$AA?$AA@ 00000001800687a8     libucrt:lcidtoname_downlevel.obj
 0002:000067b8       ??_C@_1O@NDKPBNNH@?$AAs?$AAm?$AAa?$AA?9?$AAs?$AAe?$AA?$AA@ 00000001800687b8     libucrt:lcidtoname_downlevel.obj
 0002:000067c8       ??_C@_1O@PLLKBHAB@?$AAs?$AAm?$AAj?$AA?9?$AAn?$AAo?$AA?$AA@ 00000001800687c8     libucrt:lcidtoname_downlevel.obj
 0002:000067d8       ??_C@_1O@CLEPOGCA@?$AAs?$AAm?$AAj?$AA?9?$AAs?$AAe?$AA?$AA@ 00000001800687d8     libucrt:lcidtoname_downlevel.obj
 0002:000067e8       ??_C@_1O@DLGJGKMK@?$AAs?$AAm?$AAn?$AA?9?$AAf?$AAi?$AA?$AA@ 00000001800687e8     libucrt:lcidtoname_downlevel.obj
 0002:000067f8       ??_C@_1O@OJDJGAJC@?$AAs?$AAm?$AAs?$AA?9?$AAf?$AAi?$AA?$AA@ 00000001800687f8     libucrt:lcidtoname_downlevel.obj
 0002:00006808       ??_C@_1M@BOFOGHPB@?$AAs?$AAq?$AA?9?$AAa?$AAl?$AA?$AA@ 0000000180068808     libucrt:lcidtoname_downlevel.obj
 0002:00006818       ??_C@_1BG@LJBBIPGB@?$AAs?$AAr?$AA?9?$AAb?$AAa?$AA?9?$AAc?$AAy?$AAr?$AAl?$AA?$AA@ 0000000180068818     libucrt:lcidtoname_downlevel.obj
 0002:00006830       ??_C@_1BG@JLBENFOE@?$AAs?$AAr?$AA?9?$AAb?$AAa?$AA?9?$AAl?$AAa?$AAt?$AAn?$AA?$AA@ 0000000180068830     libucrt:lcidtoname_downlevel.obj
 0002:00006848       ??_C@_1BG@KODPNHE@?$AAs?$AAr?$AA?9?$AAs?$AAp?$AA?9?$AAc?$AAy?$AAr?$AAl?$AA?$AA@ 0000000180068848     libucrt:lcidtoname_downlevel.obj
 0002:00006860       ??_C@_1BG@CIOGKHPB@?$AAs?$AAr?$AA?9?$AAs?$AAp?$AA?9?$AAl?$AAa?$AAt?$AAn?$AA?$AA@ 0000000180068860     libucrt:lcidtoname_downlevel.obj
 0002:00006878       ??_C@_1M@NGFJLMAC@?$AAs?$AAv?$AA?9?$AAf?$AAi?$AA?$AA@ 0000000180068878     libucrt:lcidtoname_downlevel.obj
 0002:00006888       ??_C@_1M@MPJEJAJC@?$AAs?$AAv?$AA?9?$AAs?$AAe?$AA?$AA@ 0000000180068888     libucrt:lcidtoname_downlevel.obj
 0002:00006898       ??_C@_1M@MPNDHLFK@?$AAs?$AAw?$AA?9?$AAk?$AAe?$AA?$AA@ 0000000180068898     libucrt:lcidtoname_downlevel.obj
 0002:000068a8       ??_C@_1O@KOHBJJI@?$AAs?$AAy?$AAr?$AA?9?$AAs?$AAy?$AA?$AA@ 00000001800688a8     libucrt:lcidtoname_downlevel.obj
 0002:000068b8       ??_C@_1M@LDCEFHA@?$AAt?$AAa?$AA?9?$AAi?$AAn?$AA?$AA@ 00000001800688b8     libucrt:lcidtoname_downlevel.obj
 0002:000068c8       ??_C@_1M@CNJOFAK@?$AAt?$AAe?$AA?9?$AAi?$AAn?$AA?$AA@ 00000001800688c8     libucrt:lcidtoname_downlevel.obj
 0002:000068d8       ??_C@_1M@GNAECACD@?$AAt?$AAh?$AA?9?$AAt?$AAh?$AA?$AA@ 00000001800688d8     libucrt:lcidtoname_downlevel.obj
 0002:000068e8       ??_C@_1M@CHBIHOJO@?$AAt?$AAn?$AA?9?$AAz?$AAa?$AA?$AA@ 00000001800688e8     libucrt:lcidtoname_downlevel.obj
 0002:000068f8       ??_C@_1M@GCCMIGPJ@?$AAt?$AAr?$AA?9?$AAt?$AAr?$AA?$AA@ 00000001800688f8     libucrt:lcidtoname_downlevel.obj
 0002:00006908       ??_C@_1M@CELMCNBK@?$AAt?$AAt?$AA?9?$AAr?$AAu?$AA?$AA@ 0000000180068908     libucrt:lcidtoname_downlevel.obj
 0002:00006918       ??_C@_1M@KLMCELGA@?$AAu?$AAk?$AA?9?$AAu?$AAa?$AA?$AA@ 0000000180068918     libucrt:lcidtoname_downlevel.obj
 0002:00006928       ??_C@_1M@EPAJJAJF@?$AAu?$AAr?$AA?9?$AAp?$AAk?$AA?$AA@ 0000000180068928     libucrt:lcidtoname_downlevel.obj
 0002:00006938       ??_C@_1BG@GEGPMCDJ@?$AAu?$AAz?$AA?9?$AAu?$AAz?$AA?9?$AAc?$AAy?$AAr?$AAl?$AA?$AA@ 0000000180068938     libucrt:lcidtoname_downlevel.obj
 0002:00006950       ??_C@_1BG@EGGKJILM@?$AAu?$AAz?$AA?9?$AAu?$AAz?$AA?9?$AAl?$AAa?$AAt?$AAn?$AA?$AA@ 0000000180068950     libucrt:lcidtoname_downlevel.obj
 0002:00006968       ??_C@_1M@GFOCLFF@?$AAv?$AAi?$AA?9?$AAv?$AAn?$AA?$AA@ 0000000180068968     libucrt:lcidtoname_downlevel.obj
 0002:00006978       ??_C@_1M@CPAMEDFI@?$AAx?$AAh?$AA?9?$AAz?$AAa?$AA?$AA@ 0000000180068978     libucrt:lcidtoname_downlevel.obj
 0002:00006988       ??_C@_1O@EBKIFIGN@?$AAz?$AAh?$AA?9?$AAc?$AAh?$AAs?$AA?$AA@ 0000000180068988     libucrt:lcidtoname_downlevel.obj
 0002:00006998       ??_C@_1O@NMHPGANE@?$AAz?$AAh?$AA?9?$AAc?$AAh?$AAt?$AA?$AA@ 0000000180068998     libucrt:lcidtoname_downlevel.obj
 0002:000069a8       ??_C@_1M@LPINJOMC@?$AAz?$AAh?$AA?9?$AAc?$AAn?$AA?$AA@ 00000001800689a8     libucrt:lcidtoname_downlevel.obj
 0002:000069b8       ??_C@_1M@OCJEJODD@?$AAz?$AAh?$AA?9?$AAh?$AAk?$AA?$AA@ 00000001800689b8     libucrt:lcidtoname_downlevel.obj
 0002:000069c8       ??_C@_1M@DNDLJINH@?$AAz?$AAh?$AA?9?$AAm?$AAo?$AA?$AA@ 00000001800689c8     libucrt:lcidtoname_downlevel.obj
 0002:000069d8       ??_C@_1M@MBFDNDND@?$AAz?$AAh?$AA?9?$AAs?$AAg?$AA?$AA@ 00000001800689d8     libucrt:lcidtoname_downlevel.obj
 0002:000069e8       ??_C@_1M@IMEPLEPE@?$AAz?$AAh?$AA?9?$AAt?$AAw?$AA?$AA@ 00000001800689e8     libucrt:lcidtoname_downlevel.obj
 0002:000069f8       ??_C@_1M@BBGHNHJP@?$AAz?$AAu?$AA?9?$AAz?$AAa?$AA?$AA@ 00000001800689f8     libucrt:lcidtoname_downlevel.obj
 0002:00006c60       __log10_256_lead           0000000180068c60     libucrt:log10_256_lead_tail_table.obj
 0002:00007470       __log10_256_tail           0000000180069470     libucrt:log10_256_lead_tail_table.obj
 0002:00007c80       __log_F_inv_qword          0000000180069c80     libucrt:log_f_inv_qword_table.obj
 0002:00008490       ??_C@_05HGHHAHAP@log10?$AA@ 000000018006a490     libucrt:log_special.obj
 0002:00008498       ??_C@_1BA@BALFACEM@?$AAC?$AAO?$AAN?$AAO?$AAU?$AAT?$AA$?$AA?$AA@ 000000018006a498     libucrt:initcon.obj
 0002:000084c0       ??_C@_1BK@DBDEIDLH@?$AAK?$AAE?$AAR?$AAN?$AAE?$AAL?$AA3?$AA2?$AA?4?$AAD?$AAL?$AAL?$AA?$AA@ 000000018006a4c0     DelayImp:delayhlp.obj
 0002:000084e0       ??_C@_0BI@OMNLIJDB@AcquireSRWLockExclusive?$AA@ 000000018006a4e0     DelayImp:delayhlp.obj
 0002:000084f8       ??_C@_0BI@HMIEPCNJ@ReleaseSRWLockExclusive?$AA@ 000000018006a4f8     DelayImp:delayhlp.obj
 0002:00008510       __pfnDliFailureHook2       000000018006a510     DelayImp:delayhk1.obj
 0002:00008520       _load_config_used          000000018006a520     LIBCMT:loadcfg.obj
 0002:000085b8       ??_C@_0BA@FIPBKFBN@?4?4?2src?2main?4cpp?$AA@ 000000018006a5b8     main.obj
 0002:000085c8       ??_C@_06KICEIFMJ@pkcs11?$AA@ 000000018006a5c8     main.obj
 0002:000085d0       ??_C@_0BA@OIIBEHIA@Win32?5error?5?$CFlu?$AA@ 000000018006a5d0     dl.obj
 0002:000085e0       ??_C@_09MNJOIBHB@CKA_CLASS?$AA@ 000000018006a5e0     const.obj
 0002:000085f0       ??_C@_09BMJHJKDI@CKA_TOKEN?$AA@ 000000018006a5f0     const.obj
 0002:00008600       ??_C@_0M@FBFGEIOB@CKA_PRIVATE?$AA@ 000000018006a600     const.obj
 0002:00008610       ??_C@_09DBMIJKH@CKA_LABEL?$AA@ 000000018006a610     const.obj
 0002:00008620       ??_C@_0BA@BJPNDGCD@CKA_APPLICATION?$AA@ 000000018006a620     const.obj
 0002:00008630       ??_C@_09IMGKMHFA@CKA_VALUE?$AA@ 000000018006a630     const.obj
 0002:00008640       ??_C@_0O@EIMGJED@CKA_OBJECT_ID?$AA@ 000000018006a640     const.obj
 0002:00008650       ??_C@_0BF@NIPCIKBM@CKA_CERTIFICATE_TYPE?$AA@ 000000018006a650     const.obj
 0002:00008668       ??_C@_0L@NOFCELAB@CKA_ISSUER?$AA@ 000000018006a668     const.obj
 0002:00008678       ??_C@_0BC@BOKEBFKJ@CKA_SERIAL_NUMBER?$AA@ 000000018006a678     const.obj
 0002:00008690       ??_C@_0O@DFAMGKNE@CKA_AC_ISSUER?$AA@ 000000018006a690     const.obj
 0002:000086a0       ??_C@_09PELPBJEM@CKA_OWNER?$AA@ 000000018006a6a0     const.obj
 0002:000086b0       ??_C@_0P@BHBAJIJE@CKA_ATTR_TYPES?$AA@ 000000018006a6b0     const.obj
 0002:000086c0       ??_C@_0M@KNAFECA@CKA_TRUSTED?$AA@ 000000018006a6c0     const.obj
 0002:000086d0       ??_C@_0BJ@OGLKFOGM@CKA_CERTIFICATE_CATEGORY?$AA@ 000000018006a6d0     const.obj
 0002:000086f0       ??_C@_0BO@FDPJNJFD@CKA_JAVA_MIDP_SECURITY_DOMAIN?$AA@ 000000018006a6f0     const.obj
 0002:00008710       ??_C@_07MKKDEAIP@CKA_URL?$AA@ 000000018006a710     const.obj
 0002:00008718       ??_C@_0BP@KNOCOJAA@CKA_HASH_OF_SUBJECT_PUBLIC_KEY?$AA@ 000000018006a718     const.obj
 0002:00008738       ??_C@_0BO@IBLJGNPM@CKA_HASH_OF_ISSUER_PUBLIC_KEY?$AA@ 000000018006a738     const.obj
 0002:00008758       ??_C@_0BA@GONONMAG@CKA_CHECK_VALUE?$AA@ 000000018006a758     const.obj
 0002:00008768       ??_C@_0N@COPLHMK@CKA_KEY_TYPE?$AA@ 000000018006a768     const.obj
 0002:00008778       ??_C@_0M@BAHLPKHO@CKA_SUBJECT?$AA@ 000000018006a778     const.obj
 0002:00008784       ??_C@_06GPEMOHIJ@CKA_ID?$AA@ 000000018006a784     const.obj
 0002:00008790       ??_C@_0O@HLDDMML@CKA_SENSITIVE?$AA@ 000000018006a790     const.obj
 0002:000087a0       ??_C@_0M@FABFPAAO@CKA_ENCRYPT?$AA@ 000000018006a7a0     const.obj
 0002:000087b0       ??_C@_0M@JOLIKEGK@CKA_DECRYPT?$AA@ 000000018006a7b0     const.obj
 0002:000087c0       ??_C@_08LFGOKAJG@CKA_WRAP?$AA@ 000000018006a7c0     const.obj
 0002:000087d0       ??_C@_0L@JMAMPINJ@CKA_UNWRAP?$AA@ 000000018006a7d0     const.obj
 0002:000087e0       ??_C@_08BHDKJFKF@CKA_SIGN?$AA@ 000000018006a7e0     const.obj
 0002:000087f0       ??_C@_0BB@MHHCGIDB@CKA_SIGN_RECOVER?$AA@ 000000018006a7f0     const.obj
 0002:00008808       ??_C@_0L@FMFGOAKF@CKA_VERIFY?$AA@ 000000018006a808     const.obj
 0002:00008818       ??_C@_0BD@CJDHDBME@CKA_VERIFY_RECOVER?$AA@ 000000018006a818     const.obj
 0002:00008830       ??_C@_0L@FGEGJDGP@CKA_DERIVE?$AA@ 000000018006a830     const.obj
 0002:00008840       ??_C@_0P@BOLEFJMA@CKA_START_DATE?$AA@ 000000018006a840     const.obj
 0002:00008850       ??_C@_0N@GDAKMNCO@CKA_END_DATE?$AA@ 000000018006a850     const.obj
 0002:00008860       ??_C@_0M@KEOPPPCG@CKA_MODULUS?$AA@ 000000018006a860     const.obj
 0002:00008870       ??_C@_0BB@DLIFBMGC@CKA_MODULUS_BITS?$AA@ 000000018006a870     const.obj
 0002:00008888       ??_C@_0BE@CMNBNIGE@CKA_PUBLIC_EXPONENT?$AA@ 000000018006a888     const.obj
 0002:000088a0       ??_C@_0BF@DIDKBPGC@CKA_PRIVATE_EXPONENT?$AA@ 000000018006a8a0     const.obj
 0002:000088b8       ??_C@_0M@IOACCKDG@CKA_PRIME_1?$AA@ 000000018006a8b8     const.obj
 0002:000088c8       ??_C@_0M@KFCPHJPF@CKA_PRIME_2?$AA@ 000000018006a8c8     const.obj
 0002:000088d8       ??_C@_0P@BFFMMLGM@CKA_EXPONENT_1?$AA@ 000000018006a8d8     const.obj
 0002:000088e8       ??_C@_0P@DOHBJIKP@CKA_EXPONENT_2?$AA@ 000000018006a8e8     const.obj
 0002:000088f8       ??_C@_0BA@MPLAMIAN@CKA_COEFFICIENT?$AA@ 000000018006a8f8     const.obj
 0002:00008908       ??_C@_09FIJIMLOF@CKA_PRIME?$AA@ 000000018006a908     const.obj
 0002:00008918       ??_C@_0N@DGGEIOHF@CKA_SUBPRIME?$AA@ 000000018006a918     const.obj
 0002:00008928       ??_C@_08HHNFNBBP@CKA_BASE?$AA@ 000000018006a928     const.obj
 0002:00008938       ??_C@_0P@DMODBPL@CKA_PRIME_BITS?$AA@ 000000018006a938     const.obj
 0002:00008948       ??_C@_0BC@DJKCHCHJ@CKA_SUBPRIME_BITS?$AA@ 000000018006a948     const.obj
 0002:00008960       ??_C@_0BD@GPMDAJHI@CKA_SUB_PRIME_BITS?$AA@ 000000018006a960     const.obj
 0002:00008978       ??_C@_0P@MCCLKOIC@CKA_VALUE_BITS?$AA@ 000000018006a978     const.obj
 0002:00008988       ??_C@_0O@FHNLFBHO@CKA_VALUE_LEN?$AA@ 000000018006a988     const.obj
 0002:00008998       ??_C@_0BA@NDJMKFHM@CKA_EXTRACTABLE?$AA@ 000000018006a998     const.obj
 0002:000089a8       ??_C@_09DJJPIHP@CKA_LOCAL?$AA@ 000000018006a9a8     const.obj
 0002:000089b8       ??_C@_0BG@OCOJMEEN@CKA_NEVER_EXTRACTABLE?$AA@ 000000018006a9b8     const.obj
 0002:000089d0       ??_C@_0BF@HEPAFEGJ@CKA_ALWAYS_SENSITIVE?$AA@ 000000018006a9d0     const.obj
 0002:000089e8       ??_C@_0BG@BFKFDIBJ@CKA_KEY_GEN_MECHANISM?$AA@ 000000018006a9e8     const.obj
 0002:00008a00       ??_C@_0P@LLJCBKBH@CKA_MODIFIABLE?$AA@ 000000018006aa00     const.obj
 0002:00008a10       ??_C@_0BB@LHIKFHLC@CKA_ECDSA_PARAMS?$AA@ 000000018006aa10     const.obj
 0002:00008a28       ??_C@_0O@HFKMDJKC@CKA_EC_PARAMS?$AA@ 000000018006aa28     const.obj
 0002:00008a38       ??_C@_0N@JMIMLOFG@CKA_EC_POINT?$AA@ 000000018006aa38     const.obj
 0002:00008a48       ??_C@_0BD@EEKLDBEH@CKA_SECONDARY_AUTH?$AA@ 000000018006aa48     const.obj
 0002:00008a60       ??_C@_0BD@HFFEGCLO@CKA_AUTH_PIN_FLAGS?$AA@ 000000018006aa60     const.obj
 0002:00008a78       ??_C@_0BI@NKKNOGMJ@CKA_ALWAYS_AUTHENTICATE?$AA@ 000000018006aa78     const.obj
 0002:00008a90       ??_C@_0BG@GLDMFBP@CKA_WRAP_WITH_TRUSTED?$AA@ 000000018006aa90     const.obj
 0002:00008aa8       ??_C@_0BC@PFNCMDAC@CKA_WRAP_TEMPLATE?$AA@ 000000018006aaa8     const.obj
 0002:00008ac0       ??_C@_0BE@EOLAOOJF@CKA_UNWRAP_TEMPLATE?$AA@ 000000018006aac0     const.obj
 0002:00008ad8       ??_C@_0BE@KIEHPMIK@CKA_DERIVE_TEMPLATE?$AA@ 000000018006aad8     const.obj
 0002:00008af0       ??_C@_0P@IFDDFMEC@CKA_OTP_FORMAT?$AA@ 000000018006aaf0     const.obj
 0002:00008b00       ??_C@_0P@LGOPIGEL@CKA_OTP_LENGTH?$AA@ 000000018006ab00     const.obj
 0002:00008b10       ??_C@_0BG@CGHJCFKF@CKA_OTP_TIME_INTERVAL?$AA@ 000000018006ab10     const.obj
 0002:00008b28       ??_C@_0BL@DOFHBFKK@CKA_OTP_USER_FRIENDLY_MODE?$AA@ 000000018006ab28     const.obj
 0002:00008b48       ??_C@_0BO@CMDGKCMC@CKA_OTP_CHALLENGE_REQUIREMENT?$AA@ 000000018006ab48     const.obj
 0002:00008b68       ??_C@_0BJ@HBKNDDAM@CKA_OTP_TIME_REQUIREMENT?$AA@ 000000018006ab68     const.obj
 0002:00008b88       ??_C@_0BM@CJHJDJAK@CKA_OTP_COUNTER_REQUIREMENT?$AA@ 000000018006ab88     const.obj
 0002:00008ba8       ??_C@_0BI@CFNBLBFG@CKA_OTP_PIN_REQUIREMENT?$AA@ 000000018006aba8     const.obj
 0002:00008bc0       ??_C@_0BA@HILMAGNA@CKA_OTP_COUNTER?$AA@ 000000018006abc0     const.obj
 0002:00008bd0       ??_C@_0N@DOGNPFBM@CKA_OTP_TIME?$AA@ 000000018006abd0     const.obj
 0002:00008be0       ??_C@_0BI@PENNHEOI@CKA_OTP_USER_IDENTIFIER?$AA@ 000000018006abe0     const.obj
 0002:00008bf8       ??_C@_0BL@CAIILMB@CKA_OTP_SERVICE_IDENTIFIER?$AA@ 000000018006abf8     const.obj
 0002:00008c18       ??_C@_0BF@FMEPMPEE@CKA_OTP_SERVICE_LOGO?$AA@ 000000018006ac18     const.obj
 0002:00008c30       ??_C@_0BK@IJGJNOIN@CKA_OTP_SERVICE_LOGO_TYPE?$AA@ 000000018006ac30     const.obj
 0002:00008c50       ??_C@_0BF@GKJMHNLN@CKA_GOSTR3410_PARAMS?$AA@ 000000018006ac50     const.obj
 0002:00008c68       ??_C@_0BF@HNOHGJPO@CKA_GOSTR3411_PARAMS?$AA@ 000000018006ac68     const.obj
 0002:00008c80       ??_C@_0BF@OGOCAJCC@CKA_GOST28147_PARAMS?$AA@ 000000018006ac80     const.obj
 0002:00008c98       ??_C@_0BE@CBDMMIKH@CKA_HW_FEATURE_TYPE?$AA@ 000000018006ac98     const.obj
 0002:00008cb0       ??_C@_0BC@HLOIELLI@CKA_RESET_ON_INIT?$AA@ 000000018006acb0     const.obj
 0002:00008cc8       ??_C@_0O@ODIDJMPO@CKA_HAS_RESET?$AA@ 000000018006acc8     const.obj
 0002:00008cd8       ??_C@_0M@NKBGOHJJ@CKA_PIXEL_X?$AA@ 000000018006acd8     const.obj
 0002:00008ce8       ??_C@_0M@MDANNGNI@CKA_PIXEL_Y?$AA@ 000000018006ace8     const.obj
 0002:00008cf8       ??_C@_0P@NBKHPJCD@CKA_RESOLUTION?$AA@ 000000018006acf8     const.obj
 0002:00008d08       ??_C@_0O@MMPLNHHG@CKA_CHAR_ROWS?$AA@ 000000018006ad08     const.obj
 0002:00008d18       ??_C@_0BB@GAMGHEJC@CKA_CHAR_COLUMNS?$AA@ 000000018006ad18     const.obj
 0002:00008d30       ??_C@_09HEHDEICJ@CKA_COLOR?$AA@ 000000018006ad30     const.obj
 0002:00008d40       ??_C@_0BD@GGGEJHBH@CKA_BITS_PER_PIXEL?$AA@ 000000018006ad40     const.obj
 0002:00008d58       ??_C@_0O@JMGAKAPL@CKA_CHAR_SETS?$AA@ 000000018006ad58     const.obj
 0002:00008d68       ??_C@_0BF@FOICJAOC@CKA_ENCODING_METHODS?$AA@ 000000018006ad68     const.obj
 0002:00008d80       ??_C@_0P@LJEHMMBD@CKA_MIME_TYPES?$AA@ 000000018006ad80     const.obj
 0002:00008d90       ??_C@_0BD@KJGKFAHN@CKA_MECHANISM_TYPE?$AA@ 000000018006ad90     const.obj
 0002:00008da8       ??_C@_0BM@OAGFCKMD@CKA_REQUIRED_CMS_ATTRIBUTES?$AA@ 000000018006ada8     const.obj
 0002:00008dc8       ??_C@_0BL@NEKOJPON@CKA_DEFAULT_CMS_ATTRIBUTES?$AA@ 000000018006adc8     const.obj
 0002:00008de8       ??_C@_0BN@MEAJAIHL@CKA_SUPPORTED_CMS_ATTRIBUTES?$AA@ 000000018006ade8     const.obj
 0002:00008e08       ??_C@_0BH@LBLLCPA@CKA_ALLOWED_MECHANISMS?$AA@ 000000018006ae08     const.obj
 0002:00008e20       ??_C@_0BD@PGOEHMGB@CKA_VENDOR_DEFINED?$AA@ 000000018006ae20     const.obj
 0002:00008e38       ??_C@_0P@LDEOADAA@CKF_RW_SESSION?$AA@ 000000018006ae38     const.obj
 0002:00008e48       ??_C@_0BD@FLGIELOP@CKF_SERIAL_SESSION?$AA@ 000000018006ae48     const.obj
 0002:00008e5c       ??_C@_06LNEBBADM@CKF_HW?$AA@ 000000018006ae5c     const.obj
 0002:00008e68       ??_C@_0M@LCMJOLHH@CKF_ENCRYPT?$AA@ 000000018006ae68     const.obj
 0002:00008e78       ??_C@_0M@HMGELPBD@CKF_DECRYPT?$AA@ 000000018006ae78     const.obj
 0002:00008e88       ??_C@_0L@PCCBHIGM@CKF_DIGEST?$AA@ 000000018006ae88     const.obj
 0002:00008e98       ??_C@_08NCJNKLCL@CKF_SIGN?$AA@ 000000018006ae98     const.obj
 0002:00008ea8       ??_C@_0BB@FMHDGHCL@CKF_SIGN_RECOVER?$AA@ 000000018006aea8     const.obj
 0002:00008ec0       ??_C@_0L@DIDHINGM@CKF_VERIFY?$AA@ 000000018006aec0     const.obj
 0002:00008ed0       ??_C@_0BD@JKFENIP@CKF_VERIFY_RECOVER?$AA@ 000000018006aed0     const.obj
 0002:00008ee8       ??_C@_0N@NADAPAOM@CKF_GENERATE?$AA@ 000000018006aee8     const.obj
 0002:00008ef8       ??_C@_0BG@ELHJDMBC@CKF_GENERATE_KEY_PAIR?$AA@ 000000018006aef8     const.obj
 0002:00008f10       ??_C@_08HAMJJOBI@CKF_WRAP?$AA@ 000000018006af10     const.obj
 0002:00008f20       ??_C@_0L@PIGNJFBA@CKF_UNWRAP?$AA@ 000000018006af20     const.obj
 0002:00008f30       ??_C@_0L@DCCHPOKG@CKF_DERIVE?$AA@ 000000018006af30     const.obj
 0002:00008f40       ??_C@_07LMLJMLFB@CKF_RNG?$AA@ 000000018006af40     const.obj
 0002:00008f48       ??_C@_0BE@OHHPDCDB@CKF_WRITE_PROTECTED?$AA@ 000000018006af48     const.obj
 0002:00008f60       ??_C@_0BD@DLJPKAJI@CKF_LOGIN_REQUIRED?$AA@ 000000018006af60     const.obj
 0002:00008f78       ??_C@_0BJ@EOIOMEJC@CKF_USER_PIN_INITIALIZED?$AA@ 000000018006af78     const.obj
 0002:00008f98       ??_C@_0BL@MOAHCAHD@CKF_RESTORE_KEY_NOT_NEEDED?$AA@ 000000018006af98     const.obj
 0002:00008fb8       ??_C@_0BD@BBCNMFCH@CKF_CLOCK_ON_TOKEN?$AA@ 000000018006afb8     const.obj
 0002:00008fd0       ??_C@_0CC@GKJBDOMB@CKF_PROTECTED_AUTHENTICATION_PAT@ 000000018006afd0     const.obj
 0002:00008ff8       ??_C@_0BL@IICNNGGJ@CKF_DUAL_CRYPTO_OPERATIONS?$AA@ 000000018006aff8     const.obj
 0002:00009018       ??_C@_0BG@FEGGHBFI@CKF_TOKEN_INITIALIZED?$AA@ 000000018006b018     const.obj
 0002:00009030       ??_C@_0BN@GBMOAPJL@CKF_SECONDARY_AUTHENTICATION?$AA@ 000000018006b030     const.obj
 0002:00009050       ??_C@_0BH@BNOBOCHH@CKF_USER_PIN_COUNT_LOW?$AA@ 000000018006b050     const.obj
 0002:00009068       ??_C@_0BH@KPBOOPAG@CKF_USER_PIN_FINAL_TRY?$AA@ 000000018006b068     const.obj
 0002:00009080       ??_C@_0BE@DGMHOPHL@CKF_USER_PIN_LOCKED?$AA@ 000000018006b080     const.obj
 0002:00009098       ??_C@_0BL@JJJPLKGB@CKF_USER_PIN_TO_BE_CHANGED?$AA@ 000000018006b098     const.obj
 0002:000090b8       ??_C@_0BF@MHPCNKHA@CKF_SO_PIN_COUNT_LOW?$AA@ 000000018006b0b8     const.obj
 0002:000090d0       ??_C@_0BF@HFANNHAB@CKF_SO_PIN_FINAL_TRY?$AA@ 000000018006b0d0     const.obj
 0002:000090e8       ??_C@_0BC@EEEFGMMA@CKF_SO_PIN_LOCKED?$AA@ 000000018006b0e8     const.obj
 0002:00009100       ??_C@_0BJ@CJNJEMKI@CKF_SO_PIN_TO_BE_CHANGED?$AA@ 000000018006b100     const.obj
 0002:00009120       ??_C@_0BA@ODKADHEH@CKF_ERROR_STATE?$AA@ 000000018006b120     const.obj
 0002:00009130       ??_C@_08MJIJIMGD@CKO_DATA?$AA@ 000000018006b130     const.obj
 0002:00009140       ??_C@_0BA@KIIJPOAM@CKO_CERTIFICATE?$AA@ 000000018006b140     const.obj
 0002:00009150       ??_C@_0P@DDMNKKJA@CKO_PUBLIC_KEY?$AA@ 000000018006b150     const.obj
 0002:00009160       ??_C@_0BA@MACCBKAF@CKO_PRIVATE_KEY?$AA@ 000000018006b160     const.obj
 0002:00009170       ??_C@_0P@CKLICCHE@CKO_SECRET_KEY?$AA@ 000000018006b170     const.obj
 0002:00009180       ??_C@_0P@FNCCNEKH@CKO_HW_FEATURE?$AA@ 000000018006b180     const.obj
 0002:00009190       ??_C@_0BG@JHAKICJD@CKO_DOMAIN_PARAMETERS?$AA@ 000000018006b190     const.obj
 0002:000091a8       ??_C@_0O@CBCIMGMG@CKO_MECHANISM?$AA@ 000000018006b1a8     const.obj
 0002:000091b8       ??_C@_0M@DEDDCLLD@CKO_OTP_KEY?$AA@ 000000018006b1b8     const.obj
 0002:000091c8       ??_C@_0BD@LHMAIEPH@CKO_VENDOR_DEFINED?$AA@ 000000018006b1c8     const.obj
 0002:000091e0       ??_C@_07ECIDEPCK@CKK_RSA?$AA@ 000000018006b1e0     const.obj
 0002:000091e8       ??_C@_07DHPBEHGJ@CKK_DSA?$AA@ 000000018006b1e8     const.obj
 0002:000091f0       ??_C@_06IBJBCDHH@CKK_DH?$AA@ 000000018006b1f0     const.obj
 0002:000091f8       ??_C@_09EHHNGJJE@CKK_ECDSA?$AA@ 000000018006b1f8     const.obj
 0002:00009204       ??_C@_06GDKHJAIL@CKK_EC?$AA@ 000000018006b204     const.obj
 0002:00009210       ??_C@_0N@BCIJHHFG@CKK_X9_42_DH?$AA@ 000000018006b210     const.obj
 0002:00009220       ??_C@_07HHDJIIPN@CKK_KEA?$AA@ 000000018006b220     const.obj
 0002:00009228       ??_C@_0BD@OLNKPNLG@CKK_GENERIC_SECRET?$AA@ 000000018006b228     const.obj
 0002:00009240       ??_C@_07FKLHMGGP@CKK_RC2?$AA@ 000000018006b240     const.obj
 0002:00009248       ??_C@_07MONGBOJ@CKK_RC4?$AA@ 000000018006b248     const.obj
 0002:00009250       ??_C@_07FHKOOIHI@CKK_DES?$AA@ 000000018006b250     const.obj
 0002:00009258       ??_C@_08LDPJADJH@CKK_DES2?$AA@ 000000018006b258     const.obj
 0002:00009268       ??_C@_08KKOCDCNG@CKK_DES3?$AA@ 000000018006b268     const.obj
 0002:00009278       ??_C@_08LNBMIEPB@CKK_CAST?$AA@ 000000018006b278     const.obj
 0002:00009288       ??_C@_09DOGMLLDO@CKK_CAST3?$AA@ 000000018006b288     const.obj
 0002:00009298       ??_C@_09GIDGBMLI@CKK_CAST5?$AA@ 000000018006b298     const.obj
 0002:000092a8       ??_C@_0M@IHAPAKJL@CKK_CAST128?$AA@ 000000018006b2a8     const.obj
 0002:000092b8       ??_C@_07BFPGFAKI@CKK_RC5?$AA@ 000000018006b2b8     const.obj
 0002:000092c0       ??_C@_08OPGMFFLE@CKK_IDEA?$AA@ 000000018006b2c0     const.obj
 0002:000092d0       ??_C@_0N@LOMEFFDK@CKK_SKIPJACK?$AA@ 000000018006b2d0     const.obj
 0002:000092e0       ??_C@_09OCAFBLAI@CKK_BATON?$AA@ 000000018006b2e0     const.obj
 0002:000092f0       ??_C@_0M@GBNPIGIF@CKK_JUNIPER?$AA@ 000000018006b2f0     const.obj
 0002:00009300       ??_C@_08OEIOIKGK@CKK_CDMF?$AA@ 000000018006b300     const.obj
 0002:00009310       ??_C@_07GAHABIEK@CKK_AES?$AA@ 000000018006b310     const.obj
 0002:00009318       ??_C@_0N@EGCADKMO@CKK_BLOWFISH?$AA@ 000000018006b318     const.obj
 0002:00009328       ??_C@_0M@FDOKMNMN@CKK_TWOFISH?$AA@ 000000018006b328     const.obj
 0002:00009338       ??_C@_0M@MDPANNCO@CKK_SECURID?$AA@ 000000018006b338     const.obj
 0002:00009348       ??_C@_08ELDABBFC@CKK_HOTP?$AA@ 000000018006b348     const.obj
 0002:00009358       ??_C@_08JHPGGFID@CKK_ACTI?$AA@ 000000018006b358     const.obj
 0002:00009368       ??_C@_0N@KOMCPMJJ@CKK_CAMELLIA?$AA@ 000000018006b368     const.obj
 0002:00009378       ??_C@_08KDHEOPFC@CKK_ARIA?$AA@ 000000018006b378     const.obj
 0002:00009388       ??_C@_0N@CCDDGEEB@CKK_MD5_HMAC?$AA@ 000000018006b388     const.obj
 0002:00009398       ??_C@_0P@JIGDLMLH@CKK_SHA_1_HMAC?$AA@ 000000018006b398     const.obj
 0002:000093a8       ??_C@_0BD@PDLMGBMB@CKK_RIPEMD128_HMAC?$AA@ 000000018006b3a8     const.obj
 0002:000093c0       ??_C@_0BD@EEBJCBFM@CKK_RIPEMD160_HMAC?$AA@ 000000018006b3c0     const.obj
 0002:000093d8       ??_C@_0BA@CGOAOOOP@CKK_SHA256_HMAC?$AA@ 000000018006b3d8     const.obj
 0002:000093e8       ??_C@_0BA@DNABPOFE@CKK_SHA384_HMAC?$AA@ 000000018006b3e8     const.obj
 0002:000093f8       ??_C@_0BA@DCIEKJMP@CKK_SHA512_HMAC?$AA@ 000000018006b3f8     const.obj
 0002:00009408       ??_C@_0BA@LLLKPGNP@CKK_SHA224_HMAC?$AA@ 000000018006b408     const.obj
 0002:00009418       ??_C@_08PHEJLH@CKK_SEED?$AA@ 000000018006b418     const.obj
 0002:00009428       ??_C@_0O@LAHABEIA@CKK_GOSTR3410?$AA@ 000000018006b428     const.obj
 0002:00009438       ??_C@_0O@KJGLCFMB@CKK_GOSTR3411?$AA@ 000000018006b438     const.obj
 0002:00009448       ??_C@_0O@LBAAIONF@CKK_GOST28147?$AA@ 000000018006b448     const.obj
 0002:00009458       ??_C@_0BD@MEMIKDDI@CKK_VENDOR_DEFINED?$AA@ 000000018006b458     const.obj
 0002:00009470       ??_C@_0BK@OBHLJKJH@CKM_RSA_PKCS_KEY_PAIR_GEN?$AA@ 000000018006b470     const.obj
 0002:00009490       ??_C@_0N@OLBLKKAI@CKM_RSA_PKCS?$AA@ 000000018006b490     const.obj
 0002:000094a0       ??_C@_0N@BPDMNCHE@CKM_RSA_9796?$AA@ 000000018006b4a0     const.obj
 0002:000094b0       ??_C@_0O@HNECCHDE@CKM_RSA_X_509?$AA@ 000000018006b4b0     const.obj
 0002:000094c0       ??_C@_0BB@PFDLLNOO@CKM_MD2_RSA_PKCS?$AA@ 000000018006b4c0     const.obj
 0002:000094d8       ??_C@_0BB@NMAAKIGN@CKM_MD5_RSA_PKCS?$AA@ 000000018006b4d8     const.obj
 0002:000094f0       ??_C@_0BC@GEDKBFJH@CKM_SHA1_RSA_PKCS?$AA@ 000000018006b4f0     const.obj
 0002:00009508       ??_C@_0BH@KOJKGLEP@CKM_RIPEMD128_RSA_PKCS?$AA@ 000000018006b508     const.obj
 0002:00009520       ??_C@_0BH@BHFPLBHF@CKM_RIPEMD160_RSA_PKCS?$AA@ 000000018006b520     const.obj
 0002:00009538       ??_C@_0BC@HHGGIMIL@CKM_RSA_PKCS_OAEP?$AA@ 000000018006b538     const.obj
 0002:00009550       ??_C@_0BL@DKJDPLF@CKM_RSA_X9_31_KEY_PAIR_GEN?$AA@ 000000018006b550     const.obj
 0002:00009570       ??_C@_0O@PFDEIGOP@CKM_RSA_X9_31?$AA@ 000000018006b570     const.obj
 0002:00009580       ??_C@_0BD@JFALCJIF@CKM_SHA1_RSA_X9_31?$AA@ 000000018006b580     const.obj
 0002:00009598       ??_C@_0BB@BJHMJPF@CKM_RSA_PKCS_PSS?$AA@ 000000018006b598     const.obj
 0002:000095b0       ??_C@_0BG@NLCOAKHI@CKM_SHA1_RSA_PKCS_PSS?$AA@ 000000018006b5b0     const.obj
 0002:000095c8       ??_C@_0BF@PJEPAELN@CKM_DSA_KEY_PAIR_GEN?$AA@ 000000018006b5c8     const.obj
 0002:000095e0       ??_C@_07OBKIKEHE@CKM_DSA?$AA@ 000000018006b5e0     const.obj
 0002:000095e8       ??_C@_0N@DFJLJJIG@CKM_DSA_SHA1?$AA@ 000000018006b5e8     const.obj
 0002:000095f8       ??_C@_0P@GKHKEMFB@CKM_DSA_SHA224?$AA@ 000000018006b5f8     const.obj
 0002:00009608       ??_C@_0P@FNADDIFG@CKM_DSA_SHA256?$AA@ 000000018006b608     const.obj
 0002:00009618       ??_C@_0P@NPFBKOOC@CKM_DSA_SHA384?$AA@ 000000018006b618     const.obj
 0002:00009628       ??_C@_0P@KDLBGNDH@CKM_DSA_SHA512?$AA@ 000000018006b628     const.obj
 0002:00009638       ??_C@_0BJ@MJHCJMDD@CKM_DH_PKCS_KEY_PAIR_GEN?$AA@ 000000018006b638     const.obj
 0002:00009658       ??_C@_0BD@EMECGPAM@CKM_DH_PKCS_DERIVE?$AA@ 000000018006b658     const.obj
 0002:00009670       ??_C@_0BK@NBLCIMC@CKM_X9_42_DH_KEY_PAIR_GEN?$AA@ 000000018006b670     const.obj
 0002:00009690       ??_C@_0BE@DMJPFJAH@CKM_X9_42_DH_DERIVE?$AA@ 000000018006b690     const.obj
 0002:000096a8       ??_C@_0BL@GBPDDHLB@CKM_X9_42_DH_HYBRID_DERIVE?$AA@ 000000018006b6a8     const.obj
 0002:000096c8       ??_C@_0BF@IHFMHLNP@CKM_X9_42_MQV_DERIVE?$AA@ 000000018006b6c8     const.obj
 0002:000096e0       ??_C@_0BE@BMOIGCLP@CKM_SHA256_RSA_PKCS?$AA@ 000000018006b6e0     const.obj
 0002:000096f8       ??_C@_0BE@HLNADBF@CKM_SHA384_RSA_PKCS?$AA@ 000000018006b6f8     const.obj
 0002:00009710       ??_C@_0BE@NCEECMBK@CKM_SHA512_RSA_PKCS?$AA@ 000000018006b710     const.obj
 0002:00009728       ??_C@_0BI@CMGKNOP@CKM_SHA256_RSA_PKCS_PSS?$AA@ 000000018006b728     const.obj
 0002:00009740       ??_C@_0BI@CEKMJFGE@CKM_SHA384_RSA_PKCS_PSS?$AA@ 000000018006b740     const.obj
 0002:00009758       ??_C@_0BI@HMBJPIEA@CKM_SHA512_RSA_PKCS_PSS?$AA@ 000000018006b758     const.obj
 0002:00009770       ??_C@_0BE@DABMDCPB@CKM_SHA224_RSA_PKCS?$AA@ 000000018006b770     const.obj
 0002:00009788       ??_C@_0BI@FHLJOEAL@CKM_SHA224_RSA_PKCS_PSS?$AA@ 000000018006b788     const.obj
 0002:000097a0       ??_C@_0BA@GLCNOBHE@CKM_RC2_KEY_GEN?$AA@ 000000018006b7a0     const.obj
 0002:000097b0       ??_C@_0M@HNFJBDHO@CKM_RC2_ECB?$AA@ 000000018006b7b0     const.obj
 0002:000097c0       ??_C@_0M@EAOLBHNE@CKM_RC2_CBC?$AA@ 000000018006b7c0     const.obj
 0002:000097d0       ??_C@_0M@KCHCNOLO@CKM_RC2_MAC?$AA@ 000000018006b7d0     const.obj
 0002:000097e0       ??_C@_0BE@FNMFPMO@CKM_RC2_MAC_GENERAL?$AA@ 000000018006b7e0     const.obj
 0002:000097f8       ??_C@_0BA@OPAKMKMC@CKM_RC2_CBC_PAD?$AA@ 000000018006b7f8     const.obj
 0002:00009808       ??_C@_0BA@GGDDJBDD@CKM_RC4_KEY_GEN?$AA@ 000000018006b808     const.obj
 0002:00009818       ??_C@_07NKLEICPE@CKM_RC4?$AA@ 000000018006b818     const.obj
 0002:00009820       ??_C@_0BA@FOJIAMGF@CKM_DES_KEY_GEN?$AA@ 000000018006b820     const.obj
 0002:00009830       ??_C@_0M@GHPFMCBH@CKM_DES_ECB?$AA@ 000000018006b830     const.obj
 0002:00009840       ??_C@_0M@FKEHMGLN@CKM_DES_CBC?$AA@ 000000018006b840     const.obj
 0002:00009850       ??_C@_0M@LINOAPNH@CKM_DES_MAC?$AA@ 000000018006b850     const.obj
 0002:00009860       ??_C@_0BE@IDECLCBJ@CKM_DES_MAC_GENERAL?$AA@ 000000018006b860     const.obj
 0002:00009878       ??_C@_0BA@NKLPCHND@CKM_DES_CBC_PAD?$AA@ 000000018006b878     const.obj
 0002:00009888       ??_C@_0BB@BDCIAPFB@CKM_DES2_KEY_GEN?$AA@ 000000018006b888     const.obj
 0002:000098a0       ??_C@_0BB@PMOKGEGP@CKM_DES3_KEY_GEN?$AA@ 000000018006b8a0     const.obj
 0002:000098b8       ??_C@_0N@DADECIGL@CKM_DES3_ECB?$AA@ 000000018006b8b8     const.obj
 0002:000098c8       ??_C@_0N@NIGCMMB@CKM_DES3_CBC?$AA@ 000000018006b8c8     const.obj
 0002:000098d8       ??_C@_0N@OPBPOFKL@CKM_DES3_MAC?$AA@ 000000018006b8d8     const.obj
 0002:000098e8       ??_C@_0BF@IPOKBBFF@CKM_DES3_MAC_GENERAL?$AA@ 000000018006b8e8     const.obj
 0002:00009900       ??_C@_0BB@HIMNEPNJ@CKM_DES3_CBC_PAD?$AA@ 000000018006b900     const.obj
 0002:00009918       ??_C@_0BG@HIBJLFGI@CKM_DES3_CMAC_GENERAL?$AA@ 000000018006b918     const.obj
 0002:00009930       ??_C@_0O@GMNNKMPE@CKM_DES3_CMAC?$AA@ 000000018006b930     const.obj
 0002:00009940       ??_C@_0BB@PGNMIPEJ@CKM_CDMF_KEY_GEN?$AA@ 000000018006b940     const.obj
 0002:00009958       ??_C@_0N@PEPBDONN@CKM_CDMF_ECB?$AA@ 000000018006b958     const.obj
 0002:00009968       ??_C@_0N@MJEDDKHH@CKM_CDMF_CBC?$AA@ 000000018006b968     const.obj
 0002:00009978       ??_C@_0N@CLNKPDBN@CKM_CDMF_MAC?$AA@ 000000018006b978     const.obj
 0002:00009988       ??_C@_0BF@MGMNKGJN@CKM_CDMF_MAC_GENERAL?$AA@ 000000018006b988     const.obj
 0002:000099a0       ??_C@_0BB@HCPLKEPP@CKM_CDMF_CBC_PAD?$AA@ 000000018006b9a0     const.obj
 0002:000099b8       ??_C@_0O@ICFOIGDM@CKM_DES_OFB64?$AA@ 000000018006b9b8     const.obj
 0002:000099c8       ??_C@_0N@OJEFCEGN@CKM_DES_OFB8?$AA@ 000000018006b9c8     const.obj
 0002:000099d8       ??_C@_0O@PFJMEGEH@CKM_DES_CFB64?$AA@ 000000018006b9d8     const.obj
 0002:000099e8       ??_C@_0N@CMLFMJGM@CKM_DES_CFB8?$AA@ 000000018006b9e8     const.obj
 0002:000099f8       ??_C@_07IBNLHEDO@CKM_MD2?$AA@ 000000018006b9f8     const.obj
 0002:00009a00       ??_C@_0N@PCBJAIM@CKM_MD2_HMAC?$AA@ 000000018006ba00     const.obj
 0002:00009a10       ??_C@_0BF@NEKNCEJE@CKM_MD2_HMAC_GENERAL?$AA@ 000000018006ba10     const.obj
 0002:00009a28       ??_C@_07MOJKOCPJ@CKM_MD5?$AA@ 000000018006ba28     const.obj
 0002:00009a30       ??_C@_0N@MKIGKOAC@CKM_MD5_HMAC?$AA@ 000000018006ba30     const.obj
 0002:00009a40       ??_C@_0BF@EPKMCLIO@CKM_MD5_HMAC_GENERAL?$AA@ 000000018006ba40     const.obj
 0002:00009a58       ??_C@_09DCLGMACE@CKM_SHA_1?$AA@ 000000018006ba58     const.obj
 0002:00009a68       ??_C@_0P@DIIGGDGK@CKM_SHA_1_HMAC?$AA@ 000000018006ba68     const.obj
 0002:00009a78       ??_C@_0BH@NDJMGNPG@CKM_SHA_1_HMAC_GENERAL?$AA@ 000000018006ba78     const.obj
 0002:00009a90       ??_C@_0O@OGMFFKCN@CKM_RIPEMD128?$AA@ 000000018006ba90     const.obj
 0002:00009aa0       ??_C@_0BD@FEIINGMJ@CKM_RIPEMD128_HMAC?$AA@ 000000018006baa0     const.obj
 0002:00009ab8       ??_C@_0BL@ODNLBGKC@CKM_RIPEMD128_HMAC_GENERAL?$AA@ 000000018006bab8     const.obj
 0002:00009ad8       ??_C@_0O@CJBFHIPJ@CKM_RIPEMD160?$AA@ 000000018006bad8     const.obj
 0002:00009ae8       ??_C@_0BD@ODCNJGFE@CKM_RIPEMD160_HMAC?$AA@ 000000018006bae8     const.obj
 0002:00009b00       ??_C@_0BL@PIGDJGKC@CKM_RIPEMD160_HMAC_GENERAL?$AA@ 000000018006bb00     const.obj
 0002:00009b20       ??_C@_0L@HLGIEEGG@CKM_SHA256?$AA@ 000000018006bb20     const.obj
 0002:00009b30       ??_C@_0BA@NOCCKFFJ@CKM_SHA256_HMAC?$AA@ 000000018006bb30     const.obj
 0002:00009b40       ??_C@_0BI@FCAKPCFO@CKM_SHA256_HMAC_GENERAL?$AA@ 000000018006bb40     const.obj
 0002:00009b58       ??_C@_0L@EMBBDAGB@CKM_SHA224?$AA@ 000000018006bb58     const.obj
 0002:00009b68       ??_C@_0BA@EDHILNGJ@CKM_SHA224_HMAC?$AA@ 000000018006bb68     const.obj
 0002:00009b78       ??_C@_0BI@HHFLLLK@CKM_SHA224_HMAC_GENERAL?$AA@ 000000018006bb78     const.obj
 0002:00009b90       ??_C@_0L@PJDKNCNC@CKM_SHA384?$AA@ 000000018006bb90     const.obj
 0002:00009ba0       ??_C@_0BA@MFMDLFOC@CKM_SHA384_HMAC?$AA@ 000000018006bba0     const.obj
 0002:00009bb0       ??_C@_0BI@HEGAMKNF@CKM_SHA384_HMAC_GENERAL?$AA@ 000000018006bbb0     const.obj
 0002:00009bc8       ??_C@_0L@IFNKBBAH@CKM_SHA512?$AA@ 000000018006bbc8     const.obj
 0002:00009bd8       ??_C@_0BA@MKEGOCHJ@CKM_SHA512_HMAC?$AA@ 000000018006bbd8     const.obj
 0002:00009be8       ??_C@_0BI@CMNFKHPB@CKM_SHA512_HMAC_GENERAL?$AA@ 000000018006bbe8     const.obj
 0002:00009c00       ??_C@_0BE@NDDGGDLF@CKM_SECURID_KEY_GEN?$AA@ 000000018006bc00     const.obj
 0002:00009c18       ??_C@_0M@MOOOKNGJ@CKM_SECURID?$AA@ 000000018006bc18     const.obj
 0002:00009c28       ??_C@_0BB@JPIMJPAF@CKM_HOTP_KEY_GEN?$AA@ 000000018006bc28     const.obj
 0002:00009c40       ??_C@_08CIOACEGI@CKM_HOTP?$AA@ 000000018006bc40     const.obj
 0002:00009c50       ??_C@_08PECGFALJ@CKM_ACTI?$AA@ 000000018006bc50     const.obj
 0002:00009c60       ??_C@_0BB@MGKIHCEO@CKM_ACTI_KEY_GEN?$AA@ 000000018006bc60     const.obj
 0002:00009c78       ??_C@_0BB@LBKEEGEB@CKM_CAST_KEY_GEN?$AA@ 000000018006bc78     const.obj
 0002:00009c90       ??_C@_0N@MFOOHELK@CKM_CAST_ECB?$AA@ 000000018006bc90     const.obj
 0002:00009ca0       ??_C@_0N@PIFMHABA@CKM_CAST_CBC?$AA@ 000000018006bca0     const.obj
 0002:00009cb0       ??_C@_0N@BKMFLJHK@CKM_CAST_MAC?$AA@ 000000018006bcb0     const.obj
 0002:00009cc0       ??_C@_0BF@JCFJAEHA@CKM_CAST_MAC_GENERAL?$AA@ 000000018006bcc0     const.obj
 0002:00009cd8       ??_C@_0BB@DFIDGNPH@CKM_CAST_CBC_PAD?$AA@ 000000018006bcd8     const.obj
 0002:00009cf0       ??_C@_0BC@MAAGLMPE@CKM_CAST3_KEY_GEN?$AA@ 000000018006bcf0     const.obj
 0002:00009d08       ??_C@_0O@JIPBOMII@CKM_CAST3_ECB?$AA@ 000000018006bd08     const.obj
 0002:00009d18       ??_C@_0O@KFEDOICC@CKM_CAST3_CBC?$AA@ 000000018006bd18     const.obj
 0002:00009d28       ??_C@_0O@EHNKCBEI@CKM_CAST3_MAC?$AA@ 000000018006bd28     const.obj
 0002:00009d38       ??_C@_0BG@LLJFNDBP@CKM_CAST3_MAC_GENERAL?$AA@ 000000018006bd38     const.obj
 0002:00009d50       ??_C@_0BC@EECBJHEC@CKM_CAST3_CBC_PAD?$AA@ 000000018006bd50     const.obj
 0002:00009d68       ??_C@_0BC@MNBIMMLD@CKM_CAST5_KEY_GEN?$AA@ 000000018006bd68     const.obj
 0002:00009d80       ??_C@_0BE@GKPDNDPI@CKM_CAST128_KEY_GEN?$AA@ 000000018006bd80     const.obj
 0002:00009d98       ??_C@_0O@EOKIAPJF@CKM_CAST5_ECB?$AA@ 000000018006bd98     const.obj
 0002:00009da8       ??_C@_0BA@MNEKEMIC@CKM_CAST128_ECB?$AA@ 000000018006bda8     const.obj
 0002:00009db8       ??_C@_0O@HDBKALDP@CKM_CAST5_CBC?$AA@ 000000018006bdb8     const.obj
 0002:00009dc8       ??_C@_0BA@PAPIEICI@CKM_CAST128_CBC?$AA@ 000000018006bdc8     const.obj
 0002:00009dd8       ??_C@_0O@JBIDMCFF@CKM_CAST5_MAC?$AA@ 000000018006bdd8     const.obj
 0002:00009de8       ??_C@_0BA@BCGBIBEC@CKM_CAST128_MAC?$AA@ 000000018006bde8     const.obj
 0002:00009df8       ??_C@_0BG@EDFHJIKJ@CKM_CAST5_MAC_GENERAL?$AA@ 000000018006bdf8     const.obj
 0002:00009e10       ??_C@_0BI@ONAALPLE@CKM_CAST128_MAC_GENERAL?$AA@ 000000018006be10     const.obj
 0002:00009e28       ??_C@_0BC@EJDPOHAF@CKM_CAST5_CBC_PAD?$AA@ 000000018006be28     const.obj
 0002:00009e40       ??_C@_0BE@OONEPIEO@CKM_CAST128_CBC_PAD?$AA@ 000000018006be40     const.obj
 0002:00009e58       ??_C@_0BA@IJPBPKAN@CKM_RC5_KEY_GEN?$AA@ 000000018006be58     const.obj
 0002:00009e68       ??_C@_0M@GAFMCDMG@CKM_RC5_ECB?$AA@ 000000018006be68     const.obj
 0002:00009e78       ??_C@_0M@FNOOCHGM@CKM_RC5_CBC?$AA@ 000000018006be78     const.obj
 0002:00009e88       ??_C@_0M@LPHHOOAG@CKM_RC5_MAC?$AA@ 000000018006be88     const.obj
 0002:00009e98       ??_C@_0BE@GABBPFAO@CKM_RC5_MAC_GENERAL?$AA@ 000000018006be98     const.obj
 0002:00009eb0       ??_C@_0BA@NNGNBLL@CKM_RC5_CBC_PAD?$AA@ 000000018006beb0     const.obj
 0002:00009ec0       ??_C@_0BB@JEJMBDFD@CKM_IDEA_KEY_GEN?$AA@ 000000018006bec0     const.obj
 0002:00009ed8       ??_C@_0N@EPDFMKJM@CKM_IDEA_ECB?$AA@ 000000018006bed8     const.obj
 0002:00009ee8       ??_C@_0N@HCIHMODG@CKM_IDEA_CBC?$AA@ 000000018006bee8     const.obj
 0002:00009ef8       ??_C@_0N@JABOAHFM@CKM_IDEA_MAC?$AA@ 000000018006bef8     const.obj
 0002:00009f08       ??_C@_0BF@FOKFBPID@CKM_IDEA_MAC_GENERAL?$AA@ 000000018006bf08     const.obj
 0002:00009f20       ??_C@_0BB@BALLDIOF@CKM_IDEA_CBC_PAD?$AA@ 000000018006bf20     const.obj
 0002:00009f38       ??_C@_0BL@NCMPGHNL@CKM_GENERIC_SECRET_KEY_GEN?$AA@ 000000018006bf38     const.obj
 0002:00009f58       ??_C@_0BN@DLDCOLBJ@CKM_CONCATENATE_BASE_AND_KEY?$AA@ 000000018006bf58     const.obj
 0002:00009f78       ??_C@_0BO@IINIHHLK@CKM_CONCATENATE_BASE_AND_DATA?$AA@ 000000018006bf78     const.obj
 0002:00009f98       ??_C@_0BO@FKDIIACA@CKM_CONCATENATE_DATA_AND_BASE?$AA@ 000000018006bf98     const.obj
 0002:00009fb8       ??_C@_0BG@MNIFHBJK@CKM_XOR_BASE_AND_DATA?$AA@ 000000018006bfb8     const.obj
 0002:00009fd0       ??_C@_0BJ@EDILCHAN@CKM_EXTRACT_KEY_FROM_KEY?$AA@ 000000018006bfd0     const.obj
 0002:00009ff0       ??_C@_0BM@NHKFNFEO@CKM_SSL3_PRE_MASTER_KEY_GEN?$AA@ 000000018006bff0     const.obj
 0002:0000a010       ??_C@_0BL@KCCJNLHH@CKM_SSL3_MASTER_KEY_DERIVE?$AA@ 000000018006c010     const.obj
 0002:0000a030       ??_C@_0BM@HLLECAII@CKM_SSL3_KEY_AND_MAC_DERIVE?$AA@ 000000018006c030     const.obj
 0002:0000a050       ??_C@_0BO@KNJNAFCK@CKM_SSL3_MASTER_KEY_DERIVE_DH?$AA@ 000000018006c050     const.obj
 0002:0000a070       ??_C@_0BL@LJLIOIBN@CKM_TLS_PRE_MASTER_KEY_GEN?$AA@ 000000018006c070     const.obj
 0002:0000a090       ??_C@_0BK@NEBCGPOA@CKM_TLS_MASTER_KEY_DERIVE?$AA@ 000000018006c090     const.obj
 0002:0000a0b0       ??_C@_0BL@BFKJBNNL@CKM_TLS_KEY_AND_MAC_DERIVE?$AA@ 000000018006c0b0     const.obj
 0002:0000a0d0       ??_C@_0BN@GEGDCJLB@CKM_TLS_MASTER_KEY_DERIVE_DH?$AA@ 000000018006c0d0     const.obj
 0002:0000a0f0       ??_C@_0M@JAJJBNAB@CKM_TLS_PRF?$AA@ 000000018006c0f0     const.obj
 0002:0000a100       ??_C@_0BB@CJIBEHBL@CKM_SSL3_MD5_MAC?$AA@ 000000018006c100     const.obj
 0002:0000a118       ??_C@_0BC@BLBOONOH@CKM_SSL3_SHA1_MAC?$AA@ 000000018006c118     const.obj
 0002:0000a130       ??_C@_0BH@NOFOKBGP@CKM_MD5_KEY_DERIVATION?$AA@ 000000018006c130     const.obj
 0002:0000a148       ??_C@_0BH@POMMNNCE@CKM_MD2_KEY_DERIVATION?$AA@ 000000018006c148     const.obj
 0002:0000a160       ??_C@_0BI@NGNLOANI@CKM_SHA1_KEY_DERIVATION?$AA@ 000000018006c160     const.obj
 0002:0000a178       ??_C@_0BK@KAGJBDKG@CKM_SHA256_KEY_DERIVATION?$AA@ 000000018006c178     const.obj
 0002:0000a198       ??_C@_0BK@FABMMMNC@CKM_SHA384_KEY_DERIVATION?$AA@ 000000018006c198     const.obj
 0002:0000a1b8       ??_C@_0BK@JCPHGICE@CKM_SHA512_KEY_DERIVATION?$AA@ 000000018006c1b8     const.obj
 0002:0000a1d8       ??_C@_0BK@JFHLIJAF@CKM_SHA224_KEY_DERIVATION?$AA@ 000000018006c1d8     const.obj
 0002:0000a1f8       ??_C@_0BE@KKBFPBMN@CKM_PBE_MD2_DES_CBC?$AA@ 000000018006c1f8     const.obj
 0002:0000a210       ??_C@_0BE@EIMJOKLE@CKM_PBE_MD5_DES_CBC?$AA@ 000000018006c210     const.obj
 0002:0000a228       ??_C@_0BF@IBJCEGJI@CKM_PBE_MD5_CAST_CBC?$AA@ 000000018006c228     const.obj
 0002:0000a240       ??_C@_0BG@EGFJCNAG@CKM_PBE_MD5_CAST3_CBC?$AA@ 000000018006c240     const.obj
 0002:0000a258       ??_C@_0BG@JAAAMOBL@CKM_PBE_MD5_CAST5_CBC?$AA@ 000000018006c258     const.obj
 0002:0000a270       ??_C@_0BI@OKBOHMKL@CKM_PBE_MD5_CAST128_CBC?$AA@ 000000018006c270     const.obj
 0002:0000a288       ??_C@_0BH@NJEBJDJE@CKM_PBE_SHA1_CAST5_CBC?$AA@ 000000018006c288     const.obj
 0002:0000a2a0       ??_C@_0BJ@EDNPJMCH@CKM_PBE_SHA1_CAST128_CBC?$AA@ 000000018006c2a0     const.obj
 0002:0000a2c0       ??_C@_0BF@MFEKAAIC@CKM_PBE_SHA1_RC4_128?$AA@ 000000018006c2c0     const.obj
 0002:0000a2d8       ??_C@_0BE@OMMECEEP@CKM_PBE_SHA1_RC4_40?$AA@ 000000018006c2d8     const.obj
 0002:0000a2f0       ??_C@_0BK@JEIMHKND@CKM_PBE_SHA1_DES3_EDE_CBC?$AA@ 000000018006c2f0     const.obj
 0002:0000a310       ??_C@_0BK@HLEOBBON@CKM_PBE_SHA1_DES2_EDE_CBC?$AA@ 000000018006c310     const.obj
 0002:0000a330       ??_C@_0BJ@DAHOHFOG@CKM_PBE_SHA1_RC2_128_CBC?$AA@ 000000018006c330     const.obj
 0002:0000a350       ??_C@_0BI@BCKLIJGF@CKM_PBE_SHA1_RC2_40_CBC?$AA@ 000000018006c350     const.obj
 0002:0000a368       ??_C@_0BA@MPPPCCLA@CKM_PKCS5_PBKD2?$AA@ 000000018006c368     const.obj
 0002:0000a378       ??_C@_0BM@PGBFCDHB@CKM_PBA_SHA1_WITH_SHA1_HMAC?$AA@ 000000018006c378     const.obj
 0002:0000a398       ??_C@_0BM@KLDDLLJG@CKM_WTLS_PRE_MASTER_KEY_GEN?$AA@ 000000018006c398     const.obj
 0002:0000a3b8       ??_C@_0BL@OIKILELJ@CKM_WTLS_MASTER_KEY_DERIVE?$AA@ 000000018006c3b8     const.obj
 0002:0000a3d8       ??_C@_0CC@HGCABNL@CKM_WTLS_MASTER_KEY_DERIVE_DH_EC@ 000000018006c3d8     const.obj
 0002:0000a400       ??_C@_0N@JCEFCPPJ@CKM_WTLS_PRF?$AA@ 000000018006c400     const.obj
 0002:0000a410       ??_C@_0CD@GNLPMPCJ@CKM_WTLS_SERVER_KEY_AND_MAC_DERI@ 000000018006c410     const.obj
 0002:0000a438       ??_C@_0CD@LKIEEMLE@CKM_WTLS_CLIENT_KEY_AND_MAC_DERI@ 000000018006c438     const.obj
 0002:0000a460       ??_C@_0BD@OKGAENEH@CKM_KEY_WRAP_LYNKS?$AA@ 000000018006c460     const.obj
 0002:0000a478       ??_C@_0BG@DEGGLGNC@CKM_KEY_WRAP_SET_OAEP?$AA@ 000000018006c478     const.obj
 0002:0000a490       ??_C@_0BF@NNHPCMOP@CKM_CAMELLIA_KEY_GEN?$AA@ 000000018006c490     const.obj
 0002:0000a4a8       ??_C@_0BB@DANECFEA@CKM_CAMELLIA_ECB?$AA@ 000000018006c4a8     const.obj
 0002:0000a4c0       ??_C@_0BB@NGGCBOK@CKM_CAMELLIA_CBC?$AA@ 000000018006c4c0     const.obj
 0002:0000a4d8       ??_C@_0BB@OPPPOIIA@CKM_CAMELLIA_MAC?$AA@ 000000018006c4d8     const.obj
 0002:0000a4f0       ??_C@_0BJ@FMGFBFBH@CKM_CAMELLIA_MAC_GENERAL?$AA@ 000000018006c4f0     const.obj
 0002:0000a510       ??_C@_0BF@FJFIAHFJ@CKM_CAMELLIA_CBC_PAD?$AA@ 000000018006c510     const.obj
 0002:0000a528       ??_C@_0BO@LNNHHOHA@CKM_CAMELLIA_ECB_ENCRYPT_DATA?$AA@ 000000018006c528     const.obj
 0002:0000a548       ??_C@_0BO@NHAIDAB@CKM_CAMELLIA_CBC_ENCRYPT_DATA?$AA@ 000000018006c548     const.obj
 0002:0000a568       ??_C@_0BB@EGBENNDI@CKM_CAMELLIA_CTR?$AA@ 000000018006c568     const.obj
 0002:0000a580       ??_C@_0BB@CHKABKOF@CKM_ARIA_KEY_GEN?$AA@ 000000018006c580     const.obj
 0002:0000a598       ??_C@_0N@IJJJDKFM@CKM_ARIA_ECB?$AA@ 000000018006c598     const.obj
 0002:0000a5a8       ??_C@_0N@LECLDOPG@CKM_ARIA_CBC?$AA@ 000000018006c5a8     const.obj
 0002:0000a5b8       ??_C@_0N@FGLCPHJM@CKM_ARIA_MAC?$AA@ 000000018006c5b8     const.obj
 0002:0000a5c8       ??_C@_0BF@EIPGKOID@CKM_ARIA_MAC_GENERAL?$AA@ 000000018006c5c8     const.obj
 0002:0000a5e0       ??_C@_0BB@KDIHDBFD@CKM_ARIA_CBC_PAD?$AA@ 000000018006c5e0     const.obj
 0002:0000a5f8       ??_C@_0BK@ICNJOHMH@CKM_ARIA_ECB_ENCRYPT_DATA?$AA@ 000000018006c5f8     const.obj
 0002:0000a618       ??_C@_0BK@DCHOBKLG@CKM_ARIA_CBC_ENCRYPT_DATA?$AA@ 000000018006c618     const.obj
 0002:0000a638       ??_C@_0BB@GHEIFEIE@CKM_SEED_KEY_GEN?$AA@ 000000018006c638     const.obj
 0002:0000a650       ??_C@_0N@OKLMJDFO@CKM_SEED_ECB?$AA@ 000000018006c650     const.obj
 0002:0000a660       ??_C@_0N@NHAOJHPE@CKM_SEED_CBC?$AA@ 000000018006c660     const.obj
 0002:0000a670       ??_C@_0N@DFJHFOJO@CKM_SEED_MAC?$AA@ 000000018006c670     const.obj
 0002:0000a680       ??_C@_0BF@FBBDKGFL@CKM_SEED_MAC_GENERAL?$AA@ 000000018006c680     const.obj
 0002:0000a698       ??_C@_0BB@ODGPHPDC@CKM_SEED_CBC_PAD?$AA@ 000000018006c698     const.obj
 0002:0000a6b0       ??_C@_0BK@MKMBEAOD@CKM_SEED_ECB_ENCRYPT_DATA?$AA@ 000000018006c6b0     const.obj
 0002:0000a6d0       ??_C@_0BK@HKGGLNJC@CKM_SEED_CBC_ENCRYPT_DATA?$AA@ 000000018006c6d0     const.obj
 0002:0000a6f0       ??_C@_0BF@JNDHCOKC@CKM_SKIPJACK_KEY_GEN?$AA@ 000000018006c6f0     const.obj
 0002:0000a708       ??_C@_0BD@PLEDKDEI@CKM_SKIPJACK_ECB64?$AA@ 000000018006c708     const.obj
 0002:0000a720       ??_C@_0BD@KIMGAOIA@CKM_SKIPJACK_CBC64?$AA@ 000000018006c720     const.obj
 0002:0000a738       ??_C@_0BD@JCDIAPFO@CKM_SKIPJACK_OFB64?$AA@ 000000018006c738     const.obj
 0002:0000a750       ??_C@_0BD@OFPKMPCF@CKM_SKIPJACK_CFB64?$AA@ 000000018006c750     const.obj
 0002:0000a768       ??_C@_0BD@LFGLKKEI@CKM_SKIPJACK_CFB32?$AA@ 000000018006c768     const.obj
 0002:0000a780       ??_C@_0BD@NCIDLLCC@CKM_SKIPJACK_CFB16?$AA@ 000000018006c780     const.obj
 0002:0000a798       ??_C@_0BC@JAEGPBPG@CKM_SKIPJACK_CFB8?$AA@ 000000018006c798     const.obj
 0002:0000a7b0       ??_C@_0BC@HFDPFPIK@CKM_SKIPJACK_WRAP?$AA@ 000000018006c7b0     const.obj
 0002:0000a7c8       ??_C@_0BK@MKGMCJAE@CKM_SKIPJACK_PRIVATE_WRAP?$AA@ 000000018006c7c8     const.obj
 0002:0000a7e8       ??_C@_0BE@HHGJGCDH@CKM_SKIPJACK_RELAYX?$AA@ 000000018006c7e8     const.obj
 0002:0000a800       ??_C@_0BF@IKHLGABC@CKM_KEA_KEY_PAIR_GEN?$AA@ 000000018006c800     const.obj
 0002:0000a818       ??_C@_0BD@LHFBDAI@CKM_KEA_KEY_DERIVE?$AA@ 000000018006c818     const.obj
 0002:0000a830       ??_C@_0BH@OAFJBGIE@CKM_FORTEZZA_TIMESTAMP?$AA@ 000000018006c830     const.obj
 0002:0000a848       ??_C@_0BC@KHPBPJKK@CKM_BATON_KEY_GEN?$AA@ 000000018006c848     const.obj
 0002:0000a860       ??_C@_0BB@IFLPLEJA@CKM_BATON_ECB128?$AA@ 000000018006c860     const.obj
 0002:0000a878       ??_C@_0BA@JIPJGEHA@CKM_BATON_ECB96?$AA@ 000000018006c878     const.obj
 0002:0000a888       ??_C@_0BB@BAFDHLLP@CKM_BATON_CBC128?$AA@ 000000018006c888     const.obj
 0002:0000a8a0       ??_C@_0BC@FOPNGGDE@CKM_BATON_COUNTER?$AA@ 000000018006c8a0     const.obj
 0002:0000a8b8       ??_C@_0BC@CHNDACFN@CKM_BATON_SHUFFLE?$AA@ 000000018006c8b8     const.obj
 0002:0000a8d0       ??_C@_0P@KAACMDHE@CKM_BATON_WRAP?$AA@ 000000018006c8d0     const.obj
 0002:0000a8e0       ??_C@_0BH@LFKOBJKD@CKM_ECDSA_KEY_PAIR_GEN?$AA@ 000000018006c8e0     const.obj
 0002:0000a8f8       ??_C@_0BE@KMPKBEBP@CKM_EC_KEY_PAIR_GEN?$AA@ 000000018006c8f8     const.obj
 0002:0000a910       ??_C@_09IBBCGABD@CKM_ECDSA?$AA@ 000000018006c910     const.obj
 0002:0000a920       ??_C@_0P@EKJCFLOL@CKM_ECDSA_SHA1?$AA@ 000000018006c920     const.obj
 0002:0000a930       ??_C@_0BB@MPEDIFCO@CKM_ECDSA_SHA224?$AA@ 000000018006c930     const.obj
 0002:0000a948       ??_C@_0BB@PIDKPBCJ@CKM_ECDSA_SHA256?$AA@ 000000018006c948     const.obj
 0002:0000a960       ??_C@_0BB@HKGIGHJN@CKM_ECDSA_SHA384?$AA@ 000000018006c960     const.obj
 0002:0000a978       ??_C@_0BB@GIIKEEI@CKM_ECDSA_SHA512?$AA@ 000000018006c978     const.obj
 0002:0000a990       ??_C@_0BB@BMMNGMPO@CKM_ECDH1_DERIVE?$AA@ 000000018006c990     const.obj
 0002:0000a9a8       ??_C@_0BK@FFLEIJJF@CKM_ECDH1_COFACTOR_DERIVE?$AA@ 000000018006c9a8     const.obj
 0002:0000a9c8       ??_C@_0BB@IEDJBEDE@CKM_ECMQV_DERIVE?$AA@ 000000018006c9c8     const.obj
 0002:0000a9e0       ??_C@_0BE@PJNOFODH@CKM_JUNIPER_KEY_GEN?$AA@ 000000018006c9e0     const.obj
 0002:0000a9f8       ??_C@_0BD@HEOBCHOI@CKM_JUNIPER_ECB128?$AA@ 000000018006c9f8     const.obj
 0002:0000aa10       ??_C@_0BD@OBANOIMH@CKM_JUNIPER_CBC128?$AA@ 000000018006ca10     const.obj
 0002:0000aa28       ??_C@_0BE@NCMBKJ@CKM_JUNIPER_COUNTER?$AA@ 000000018006ca28     const.obj
 0002:0000aa40       ??_C@_0BE@HJPMKFMA@CKM_JUNIPER_SHUFFLE?$AA@ 000000018006ca40     const.obj
 0002:0000aa58       ??_C@_0BB@LEPBPOGP@CKM_JUNIPER_WRAP?$AA@ 000000018006ca58     const.obj
 0002:0000aa70       ??_C@_0N@DEBCKGMK@CKM_FASTHASH?$AA@ 000000018006ca70     const.obj
 0002:0000aa80       ??_C@_0BA@MGDLHLHF@CKM_AES_KEY_GEN?$AA@ 000000018006ca80     const.obj
 0002:0000aa90       ??_C@_0M@CPBFMMHD@CKM_AES_ECB?$AA@ 000000018006ca90     const.obj
 0002:0000aaa0       ??_C@_0M@BCKHMINJ@CKM_AES_CBC?$AA@ 000000018006caa0     const.obj
 0002:0000aab0       ??_C@_0M@PADOABLD@CKM_AES_MAC?$AA@ 000000018006cab0     const.obj
 0002:0000aac0       ??_C@_0BE@PJBLGPAP@CKM_AES_MAC_GENERAL?$AA@ 000000018006cac0     const.obj
 0002:0000aad8       ??_C@_0BA@ECBMFAMD@CKM_AES_CBC_PAD?$AA@ 000000018006cad8     const.obj
 0002:0000aae8       ??_C@_0M@FJNFDEAL@CKM_AES_CTR?$AA@ 000000018006cae8     const.obj
 0002:0000aaf8       ??_C@_0M@EAMOAFEK@CKM_AES_CTS?$AA@ 000000018006caf8     const.obj
 0002:0000ab08       ??_C@_0N@HPKOBFEG@CKM_AES_CMAC?$AA@ 000000018006cb08     const.obj
 0002:0000ab18       ??_C@_0BF@PDNBPMPM@CKM_AES_CMAC_GENERAL?$AA@ 000000018006cb18     const.obj
 0002:0000ab30       ??_C@_0BF@GOHJEKBG@CKM_BLOWFISH_KEY_GEN?$AA@ 000000018006cb30     const.obj
 0002:0000ab48       ??_C@_0BB@MAHAHCH@CKM_BLOWFISH_CBC?$AA@ 000000018006cb48     const.obj
 0002:0000ab60       ??_C@_0BE@MKPMNLBE@CKM_TWOFISH_KEY_GEN?$AA@ 000000018006cb60     const.obj
 0002:0000ab78       ??_C@_0BA@CIMJIJPH@CKM_TWOFISH_CBC?$AA@ 000000018006cb78     const.obj
 0002:0000ab88       ??_C@_0M@CIEBIDH@CKM_AES_GCM?$AA@ 000000018006cb88     const.obj
 0002:0000ab98       ??_C@_0M@INOGIPGA@CKM_AES_CCM?$AA@ 000000018006cb98     const.obj
 0002:0000aba8       ??_C@_0BB@DMGAFMAF@CKM_AES_KEY_WRAP?$AA@ 000000018006cba8     const.obj
 0002:0000abc0       ??_C@_0BF@IMOJAKII@CKM_AES_KEY_WRAP_PAD?$AA@ 000000018006cbc0     const.obj
 0002:0000abd8       ??_C@_0BF@OKFOGBKA@CKM_BLOWFISH_CBC_PAD?$AA@ 000000018006cbd8     const.obj
 0002:0000abf0       ??_C@_0BE@EONLPAKC@CKM_TWOFISH_CBC_PAD?$AA@ 000000018006cbf0     const.obj
 0002:0000ac08       ??_C@_0BJ@OJPJGIBI@CKM_DES_ECB_ENCRYPT_DATA?$AA@ 000000018006cc08     const.obj
 0002:0000ac28       ??_C@_0BJ@FJFOJFGJ@CKM_DES_CBC_ENCRYPT_DATA?$AA@ 000000018006cc28     const.obj
 0002:0000ac48       ??_C@_0BK@FAPKCIGP@CKM_DES3_ECB_ENCRYPT_DATA?$AA@ 000000018006cc48     const.obj
 0002:0000ac68       ??_C@_0BK@OAFNNFBO@CKM_DES3_CBC_ENCRYPT_DATA?$AA@ 000000018006cc68     const.obj
 0002:0000ac88       ??_C@_0BJ@GENKOPDN@CKM_AES_ECB_ENCRYPT_DATA?$AA@ 000000018006cc88     const.obj
 0002:0000aca8       ??_C@_0BJ@NEHNBCEM@CKM_AES_CBC_ENCRYPT_DATA?$AA@ 000000018006cca8     const.obj
 0002:0000acc8       ??_C@_0BL@NPBHOGHC@CKM_GOSTR3410_KEY_PAIR_GEN?$AA@ 000000018006ccc8     const.obj
 0002:0000ace8       ??_C@_0O@FPENLBGA@CKM_GOSTR3410?$AA@ 000000018006cce8     const.obj
 0002:0000acf8       ??_C@_0BN@KBAAKHGA@CKM_GOSTR3410_WITH_GOSTR3411?$AA@ 000000018006ccf8     const.obj
 0002:0000ad18       ??_C@_0BH@IANPANIH@CKM_GOSTR3410_KEY_WRAP?$AA@ 000000018006cd18     const.obj
 0002:0000ad30       ??_C@_0BF@ELAKEGLI@CKM_GOSTR3410_DERIVE?$AA@ 000000018006cd30     const.obj
 0002:0000ad48       ??_C@_0O@EGFGIACB@CKM_GOSTR3411?$AA@ 000000018006cd48     const.obj
 0002:0000ad58       ??_C@_0BD@IJMDNIHF@CKM_GOSTR3411_HMAC?$AA@ 000000018006cd58     const.obj
 0002:0000ad70       ??_C@_0BG@HPNFBDGF@CKM_GOST28147_KEY_GEN?$AA@ 000000018006cd70     const.obj
 0002:0000ad88       ??_C@_0BC@LDMMHLNE@CKM_GOST28147_ECB?$AA@ 000000018006cd88     const.obj
 0002:0000ada0       ??_C@_0O@FODNCLDF@CKM_GOST28147?$AA@ 000000018006cda0     const.obj
 0002:0000adb0       ??_C@_0BC@GMOHLGBE@CKM_GOST28147_MAC?$AA@ 000000018006cdb0     const.obj
 0002:0000adc8       ??_C@_0BH@CBGOKCAJ@CKM_GOST28147_KEY_WRAP?$AA@ 000000018006cdc8     const.obj
 0002:0000ade0       ??_C@_0BG@DPNLPBHD@CKM_DSA_PARAMETER_GEN?$AA@ 000000018006cde0     const.obj
 0002:0000adf8       ??_C@_0BK@DFOLGCMM@CKM_DH_PKCS_PARAMETER_GEN?$AA@ 000000018006cdf8     const.obj
 0002:0000ae18       ??_C@_0BL@PPJFMJPC@CKM_X9_42_DH_PARAMETER_GEN?$AA@ 000000018006ce18     const.obj
 0002:0000ae38       ??_C@_0M@EGGDOOPM@CKM_AES_OFB?$AA@ 000000018006ce38     const.obj
 0002:0000ae48       ??_C@_0O@BDLFINAD@CKM_AES_CFB64?$AA@ 000000018006ce48     const.obj
 0002:0000ae58       ??_C@_0N@GGCCIMCD@CKM_AES_CFB8?$AA@ 000000018006ce58     const.obj
 0002:0000ae68       ??_C@_0P@BHNPBMMH@CKM_AES_CFB128?$AA@ 000000018006ce68     const.obj
 0002:0000ae78       ??_C@_0BF@LJNGLJHM@CKM_RSA_PKCS_TPM_1_1?$AA@ 000000018006ce78     const.obj
 0002:0000ae90       ??_C@_0BK@GLEFODON@CKM_RSA_PKCS_OAEP_TPM_1_1?$AA@ 000000018006ce90     const.obj
 0002:0000aeb0       ??_C@_0BD@GDPMBEDA@CKM_VENDOR_DEFINED?$AA@ 000000018006ceb0     const.obj
 0002:0000aec8       ??_C@_08CEGPCOPD@CKC_WTLS?$AA@ 000000018006cec8     const.obj
 0002:0000aed8       ??_C@_09PADEFIJJ@CKC_X_509?$AA@ 000000018006ced8     const.obj
 0002:0000aee8       ??_C@_0BE@LOMFCFIN@CKC_X_509_ATTR_CERT?$AA@ 000000018006cee8     const.obj
 0002:0000af00       ??_C@_0O@LNPKBFHL@CKG_MGF1_SHA1?$AA@ 000000018006cf00     const.obj
 0002:0000af10       ??_C@_0BA@BIBPOAMM@CKG_MGF1_SHA256?$AA@ 000000018006cf10     const.obj
 0002:0000af20       ??_C@_0BA@JKENHGHI@CKG_MGF1_SHA384?$AA@ 000000018006cf20     const.obj
 0002:0000af30       ??_C@_0BA@OGKNLFKN@CKG_MGF1_SHA512?$AA@ 000000018006cf30     const.obj
 0002:0000af40       ??_C@_0BA@CPGGJEML@CKG_MGF1_SHA224?$AA@ 000000018006cf40     const.obj
 0002:0000af50       ??_C@_08PJNOIMHF@CKD_NULL?$AA@ 000000018006cf50     const.obj
 0002:0000af60       ??_C@_0N@CEKIKENJ@CKD_SHA1_KDF?$AA@ 000000018006cf60     const.obj
 0002:0000af70       ??_C@_0BC@JNMFLCOL@CKD_SHA1_KDF_ASN1?$AA@ 000000018006cf70     const.obj
 0002:0000af88       ??_C@_0BJ@OBBAENNF@CKD_SHA1_KDF_CONCATENATE?$AA@ 000000018006cf88     const.obj
 0002:0000afa8       ??_C@_0P@CLDBBLAM@CKD_SHA224_KDF?$AA@ 000000018006cfa8     const.obj
 0002:0000afb8       ??_C@_0P@KDFOIEIJ@CKD_SHA256_KDF?$AA@ 000000018006cfb8     const.obj
 0002:0000afc8       ??_C@_0P@EDOLEENM@CKD_SHA384_KDF?$AA@ 000000018006cfc8     const.obj
 0002:0000afd8       ??_C@_0P@MGEFOLJF@CKD_SHA512_KDF?$AA@ 000000018006cfd8     const.obj
 0002:0000afe8       ??_C@_0BE@MEBPDIIH@CKD_CPDIVERSIFY_KDF?$AA@ 000000018006cfe8     const.obj
 0002:0000b000       ??_C@_0BC@PGANCHEB@CK_PARAMS_AES_CBC?$AA@ 000000018006d000     const.obj
 0002:0000b018       ??_C@_0BC@GJEMGAPI@CK_PARAMS_AES_CCM?$AA@ 000000018006d018     const.obj
 0002:0000b030       ??_C@_0BC@OGCOPHKP@CK_PARAMS_AES_GCM?$AA@ 000000018006d030     const.obj
 0002:0000b048       ??_C@_0BD@LHIGNENH@CK_PARAMS_RSA_OAEP?$AA@ 000000018006d048     const.obj
 0002:0000b060       ??_C@_0BC@FLKDDIIK@CK_PARAMS_RSA_PSS?$AA@ 000000018006d060     const.obj
 0002:0000b078       ??_C@_0BA@DPPGFPFH@CK_PARAMS_EC_DH?$AA@ 000000018006d078     const.obj
 0002:0000b088       ??_C@_00CNPNBAHC@?$AA@     000000018006d088     error.obj
 0002:0000b08c       ??_C@_01EEMJAFIK@?6?$AA@   000000018006d08c     error.obj
 0002:0000b090       ??_C@_0BH@HHEKKLAD@?5?5?5?5at?5Error?5?$CInative?$CJ?5?$AA@ 000000018006d090     error.obj
 0002:0000b0a8       ??_C@_01JLIPDDHJ@?3?$AA@   000000018006d0a8     error.obj
 0002:0000b0b0       ??_C@_0BA@JFNIOLAK@string?5too?5long?$AA@ 000000018006d0b0     error.obj
 0002:0000b0c0       ??_C@_0BI@CFPLBAOH@invalid?5string?5position?$AA@ 000000018006d0c0     error.obj
 0002:0000b0d8       ??_7?$_Ref_count@V?$basic_string@DU?$char_traits@D@std@@V?$allocator@D@2@@std@@@std@@6B@ 000000018006d0d8     error.obj
 0002:0000b0f8       ??_7_Ref_count_base@std@@6B@ 000000018006d0f8     error.obj
 0002:0000b118       ??_C@_0O@NIPGCINC@Unknown?5error?$AA@ 000000018006d118     template.obj
 0002:0000b128       ??_C@_0O@MEKKFKMC@v2c_ATTRIBUTE?$AA@ 000000018006d128     template.obj
 0002:0000b138       ??_C@_0BL@KPJNJNFO@Parameter?51?5MSUT?5be?5Object?$AA@ 000000018006d138     template.obj
 0002:0000b154       ??_C@_04GPMDFGEJ@type?$AA@ 000000018006d154     template.obj
 0002:0000b160       ??_C@_0BN@CMBFNKCC@Member?5?8type?8?5MUST?5be?5Number?$AA@ 000000018006d160     template.obj
 0002:0000b180       ??_C@_05MFEJDJP@value?$AA@ 000000018006d180     template.obj
 0002:0000b188       ??_C@_0CD@PKLDBAPO@Member?5?8value?8?5MUST?5has?5wrong?5ty@ 000000018006d188     template.obj
 0002:0000b1b0       ??_C@_0O@LCAAJCCP@c2v_ATTRIBUTE?$AA@ 000000018006d1b0     template.obj
 0002:0000b1c0       ??_C@_0BF@KENGPIJN@Parameter?51?5is?5EMPTY?$AA@ 000000018006d1c0     template.obj
 0002:0000b1d8       ??_C@_0BB@FPOGEKLC@Attributes?3?3Push?$AA@ 000000018006d1d8     template.obj
 0002:0000b1f0       ??_C@_0BD@LEJBMGFG@Attributes?3?3FromV8?$AA@ 000000018006d1f0     template.obj
 0002:0000b208       ??_C@_0BK@PHFFAGDE@Parameter?51?5MUST?5be?5Array?$AA@ 000000018006d208     template.obj
 0002:0000b224       ??_C@_06IJDLPEM@length?$AA@ 000000018006d224     template.obj
 0002:0000b230       ??_C@_0BB@BBPPICNG@Attributes?3?3ToV8?$AA@ 000000018006d230     template.obj
 0002:0000b248       ??_C@_0BA@IOJHHLDM@Not?5implemented?$AA@ 000000018006d248     template.obj
 0002:0000b258       ??_7Attributes@@6B@        000000018006d258     template.obj
 0002:0000b270       ??_7?$_Ref_count@VError@@@std@@6B@ 000000018006d270     template.obj
 0002:0000b290       ??_7?$_Ref_count@UCK_ATTRIBUTE@@@std@@6B@ 000000018006d290     template.obj
 0002:0000b290       ??_7?$_Ref_count@VPKCS11@@@std@@6B@ 000000018006d290     node.obj
 0002:0000b2b0       ??_C@_0BC@LLPBBJHL@Mechanism?3?3FromV8?$AA@ 000000018006d2b0     mech.obj
 0002:0000b2c8       ??_C@_0BL@PHLKAJDF@Parameter?51?5MUST?5be?5Object?$AA@ 000000018006d2c8     mech.obj
 0002:0000b2e8       ??_C@_09ONMFBHMB@mechanism?$AA@ 000000018006d2e8     mech.obj
 0002:0000b2f8       ??_C@_0CF@KOEEJHBJ@Attribute?5?8mechanism?8?5MUST?5be?5Nu@ 000000018006d2f8     mech.obj
 0002:0000b320       ??_C@_09DAGAJHIH@parameter?$AA@ 000000018006d320     mech.obj
 0002:0000b330       ??_C@_0DF@LILFIINM@Attribute?5?8parameter?8?5MUST?5be?5Nu@ 000000018006d330     mech.obj
 0002:0000b368       ??_C@_0BP@JKFGFBNH@Unknown?5type?5Mech?5param?5in?5use?$AA@ 000000018006d368     mech.obj
 0002:0000b388       ??_C@_0BA@IHGIBOEJ@Mechanism?3?3ToV8?$AA@ 000000018006d388     mech.obj
 0002:0000b398       ??_C@_0DB@MKCEOMKP@V8Converter?$DMstruct?5CK_ECDH1_DERI@ 000000018006d398     mech.obj
 0002:0000b3d0       ??_C@_0DB@DIAJDBBC@V8Converter?$DMstruct?5CK_RSA_PKCS_P@ 000000018006d3d0     mech.obj
 0002:0000b408       ??_C@_0DC@ENDLABCE@V8Converter?$DMstruct?5CK_RSA_PKCS_O@ 000000018006d408     mech.obj
 0002:0000b440       ??_C@_0CM@CJGOAFDO@V8Converter?$DMstruct?5CK_AES_GCM_PA@ 000000018006d440     mech.obj
 0002:0000b470       ??_C@_0CM@CCMGNCDI@V8Converter?$DMstruct?5CK_AES_CCM_PA@ 000000018006d470     mech.obj
 0002:0000b4a0       ??_7ParamRsaOAEP@@6B@      000000018006d4a0     mech.obj
 0002:0000b4b8       ??_7Mechanism@@6B@         000000018006d4b8     mech.obj
 0002:0000b4d0       ??_7ParamAesCCM@@6B@       000000018006d4d0     mech.obj
 0002:0000b4e8       ??_7ParamRsaPSS@@6B@       000000018006d4e8     mech.obj
 0002:0000b500       ??_7ParamEcdh1@@6B@        000000018006d500     mech.obj
 0002:0000b518       ??_7ParamAesGCM@@6B@       000000018006d518     mech.obj
 0002:0000b530       ??_C@_02DONNAIDC@iv?$AA@   000000018006d530     param_aes.obj
 0002:0000b538       ??_C@_0BE@ONHONGND@ParamAesCCM?3?3FromV8?$AA@ 000000018006d538     param_aes.obj
 0002:0000b550       ??_C@_07LDPMHAML@dataLen?$AA@ 000000018006d550     param_aes.obj
 0002:0000b558       ??_C@_0CD@JFNEHNHP@Attribute?5?8dataLen?8?5MUST?5be?5NUMB@ 000000018006d558     param_aes.obj
 0002:0000b580       ??_C@_0CJ@NIJOFAE@Attribute?5?8nonce?8?5MUST?5be?5NULL?5?$HM@ 000000018006d580     param_aes.obj
 0002:0000b5ac       ??_C@_03BFKFLPDB@aad?$AA@  000000018006d5ac     param_aes.obj
 0002:0000b5b0       ??_C@_0CH@HKFDBLIC@Attribute?5?8aad?8?5MUST?5be?5NULL?5?$HM?$HM?5@ 000000018006d5b0     param_aes.obj
 0002:0000b5d8       ??_C@_06PBGIHEKB@macLen?$AA@ 000000018006d5d8     param_aes.obj
 0002:0000b5e0       ??_C@_0CC@GLIGMIKG@Attribute?5?8macLen?8?5MUST?5be?5NUMBE@ 000000018006d5e0     param_aes.obj
 0002:0000b608       ??_C@_0BE@OOHIONKM@ParamAesGCM?3?3FromV8?$AA@ 000000018006d608     param_aes.obj
 0002:0000b620       ??_C@_07LJAAJOFG@tagBits?$AA@ 000000018006d620     param_aes.obj
 0002:0000b628       ??_C@_0CD@LODIOKMN@Attribute?5?8tagBits?8?5MUST?5be?5NUMB@ 000000018006d628     param_aes.obj
 0002:0000b64c       ??_C@_06JCDBJOHC@ivBits?$AA@ 000000018006d64c     param_aes.obj
 0002:0000b658       ??_C@_0CC@IHDIBDMH@Attribute?5?8ivBits?8?5MUST?5be?5NUMBE@ 000000018006d658     param_aes.obj
 0002:0000b680       ??_C@_0CG@BOJEAOPA@Attribute?5?8iv?8?5MUST?5be?5NULL?5?$HM?$HM?5B@ 000000018006d680     param_aes.obj
 0002:0000b6a8       ??_C@_0BF@CLLMPEPK@ParamRsaOAEP?3?3FromV8?$AA@ 000000018006d6a8     param_rsa.obj
 0002:0000b6c0       ??_C@_03GJMIBOLJ@mgf?$AA@  000000018006d6c0     param_rsa.obj
 0002:0000b6c8       ??_C@_0BP@NFGPJHCA@Attribute?5?8mgf?8?5MUST?5be?5NUMBER?$AA@ 000000018006d6c8     param_rsa.obj
 0002:0000b6e8       ??_C@_06OEKOLKIL@source?$AA@ 000000018006d6e8     param_rsa.obj
 0002:0000b6f0       ??_C@_0CC@HCCFNMCI@Attribute?5?8source?8?5MUST?5be?5NUMBE@ 000000018006d6f0     param_rsa.obj
 0002:0000b718       ??_C@_07NIDPGPFG@hashAlg?$AA@ 000000018006d718     param_rsa.obj
 0002:0000b720       ??_C@_0CD@GBDPOIKL@Attribute?5?8hashAlg?8?5MUST?5be?5NUMB@ 000000018006d720     param_rsa.obj
 0002:0000b748       ??_C@_0L@GEIFAJHP@sourceData?$AA@ 000000018006d748     param_rsa.obj
 0002:0000b758       ??_C@_0BE@BOFNANDC@ParamRsaPSS?3?3FromV8?$AA@ 000000018006d758     param_rsa.obj
 0002:0000b770       ??_C@_07ICAHNAPN@saltLen?$AA@ 000000018006d770     param_rsa.obj
 0002:0000b778       ??_C@_0CD@NNEMMLN@Attribute?5?8saltLen?8?5MUST?5be?5NUMB@ 000000018006d778     param_rsa.obj
 0002:0000b7a0       ??_C@_0BD@LJEHMEIF@ParamEcdh1?3?3FromV8?$AA@ 000000018006d7a0     param_ecdh.obj
 0002:0000b7b4       ??_C@_03EOOFPPDM@kdf?$AA@  000000018006d7b4     param_ecdh.obj
 0002:0000b7b8       ??_C@_0BP@PCBKIMFM@Attribute?5?8kdf?8?5MUST?5be?5NUMBER?$AA@ 000000018006d7b8     param_ecdh.obj
 0002:0000b7d8       ??_C@_0L@NPPJOHOE@sharedData?$AA@ 000000018006d7d8     param_ecdh.obj
 0002:0000b7e8       ??_C@_0CN@KLKKFJGO@Attribute?5?8sharedData?8?5MUST?5be?5N@ 000000018006d7e8     param_ecdh.obj
 0002:0000b818       ??_C@_0L@BOFCMOKN@publicData?$AA@ 000000018006d818     param_ecdh.obj
 0002:0000b828       ??_C@_0CG@GKLENOHI@Attribute?5?8publicData?8?5MUST?5be?5B@ 000000018006d828     param_ecdh.obj
 0002:0000b850       ??_C@_06MLBJGKKG@CKR_OK?$AA@ 000000018006d850     pkcs11.obj
 0002:0000b858       ??_C@_0L@JIDCKNME@CKR_CANCEL?$AA@ 000000018006d858     pkcs11.obj
 0002:0000b868       ??_C@_0BA@HHDKGBBP@CKR_HOST_MEMORY?$AA@ 000000018006d868     pkcs11.obj
 0002:0000b878       ??_C@_0BE@FOAEJLLC@CKR_SLOT_ID_INVALID?$AA@ 000000018006d878     pkcs11.obj
 0002:0000b890       ??_C@_0BC@BPPOLCIH@CKR_GENERAL_ERROR?$AA@ 000000018006d890     pkcs11.obj
 0002:0000b8a8       ??_C@_0BE@DIFKEOGI@CKR_FUNCTION_FAILED?$AA@ 000000018006d8a8     pkcs11.obj
 0002:0000b8c0       ??_C@_0BC@LNHMJFHC@CKR_ARGUMENTS_BAD?$AA@ 000000018006d8c0     pkcs11.obj
 0002:0000b8d8       ??_C@_0N@KFPEOGN@CKR_NO_EVENT?$AA@ 000000018006d8d8     pkcs11.obj
 0002:0000b8e8       ??_C@_0BL@NDINCBKJ@CKR_NEED_TO_CREATE_THREADS?$AA@ 000000018006d8e8     pkcs11.obj
 0002:0000b908       ??_C@_0O@OHMKMDKB@CKR_CANT_LOCK?$AA@ 000000018006d908     pkcs11.obj
 0002:0000b918       ??_C@_0BI@IDDIMLAI@CKR_ATTRIBUTE_READ_ONLY?$AA@ 000000018006d918     pkcs11.obj
 0002:0000b930       ??_C@_0BI@LPANBEIN@CKR_ATTRIBUTE_SENSITIVE?$AA@ 000000018006d930     pkcs11.obj
 0002:0000b948       ??_C@_0BL@CJHMMHEH@CKR_ATTRIBUTE_TYPE_INVALID?$AA@ 000000018006d948     pkcs11.obj
 0002:0000b968       ??_C@_0BM@LMONJDMA@CKR_ATTRIBUTE_VALUE_INVALID?$AA@ 000000018006d968     pkcs11.obj
 0002:0000b988       ??_C@_0BB@HONBBNLK@CKR_DATA_INVALID?$AA@ 000000018006d988     pkcs11.obj
 0002:0000b9a0       ??_C@_0BD@BPCFCEOF@CKR_DATA_LEN_RANGE?$AA@ 000000018006d9a0     pkcs11.obj
 0002:0000b9b8       ??_C@_0BB@OAEPJIAO@CKR_DEVICE_ERROR?$AA@ 000000018006d9b8     pkcs11.obj
 0002:0000b9d0       ??_C@_0BC@EDKNPIJF@CKR_DEVICE_MEMORY?$AA@ 000000018006d9d0     pkcs11.obj
 0002:0000b9e8       ??_C@_0BD@CLPGKOPG@CKR_DEVICE_REMOVED?$AA@ 000000018006d9e8     pkcs11.obj
 0002:0000ba00       ??_C@_0BL@HMMBAKLE@CKR_ENCRYPTED_DATA_INVALID?$AA@ 000000018006da00     pkcs11.obj
 0002:0000ba20       ??_C@_0BN@CHFIOLM@CKR_ENCRYPTED_DATA_LEN_RANGE?$AA@ 000000018006da20     pkcs11.obj
 0002:0000ba40       ??_C@_0BG@GFNGJBLD@CKR_FUNCTION_CANCELED?$AA@ 000000018006da40     pkcs11.obj
 0002:0000ba58       ??_C@_0BK@CPMALGEH@CKR_FUNCTION_NOT_PARALLEL?$AA@ 000000018006da58     pkcs11.obj
 0002:0000ba78       ??_C@_0BL@FLCFPGMF@CKR_FUNCTION_NOT_SUPPORTED?$AA@ 000000018006da78     pkcs11.obj
 0002:0000ba98       ??_C@_0BH@JBCBCIHC@CKR_KEY_HANDLE_INVALID?$AA@ 000000018006da98     pkcs11.obj
 0002:0000bab0       ??_C@_0BD@DCCEPOIK@CKR_KEY_SIZE_RANGE?$AA@ 000000018006dab0     pkcs11.obj
 0002:0000bac8       ??_C@_0BK@FBLHAPGA@CKR_KEY_TYPE_INCONSISTENT?$AA@ 000000018006dac8     pkcs11.obj
 0002:0000bae8       ??_C@_0BD@CADJPHKC@CKR_KEY_NOT_NEEDED?$AA@ 000000018006dae8     pkcs11.obj
 0002:0000bb00       ??_C@_0BA@PBNACHHM@CKR_KEY_CHANGED?$AA@ 000000018006db00     pkcs11.obj
 0002:0000bb10       ??_C@_0P@CIJPGKMN@CKR_KEY_NEEDED?$AA@ 000000018006db10     pkcs11.obj
 0002:0000bb20       ??_C@_0BF@GCBGIGLD@CKR_KEY_INDIGESTIBLE?$AA@ 000000018006db20     pkcs11.obj
 0002:0000bb38       ??_C@_0BP@PCNBFOEJ@CKR_KEY_FUNCTION_NOT_PERMITTED?$AA@ 000000018006db38     pkcs11.obj
 0002:0000bb58       ??_C@_0BG@IEKNAGOL@CKR_KEY_NOT_WRAPPABLE?$AA@ 000000018006db58     pkcs11.obj
 0002:0000bb70       ??_C@_0BG@OIKHBDLJ@CKR_KEY_UNEXTRACTABLE?$AA@ 000000018006db70     pkcs11.obj
 0002:0000bb88       ??_C@_0BG@FIBINAPL@CKR_MECHANISM_INVALID?$AA@ 000000018006db88     pkcs11.obj
 0002:0000bba0       ??_C@_0BM@NHMBLBHF@CKR_MECHANISM_PARAM_INVALID?$AA@ 000000018006dba0     pkcs11.obj
 0002:0000bbc0       ??_C@_0BK@NIGFIGL@CKR_OBJECT_HANDLE_INVALID?$AA@ 000000018006dbc0     pkcs11.obj
 0002:0000bbe0       ??_C@_0BF@LACBDJFM@CKR_OPERATION_ACTIVE?$AA@ 000000018006dbe0     pkcs11.obj
 0002:0000bbf8       ??_C@_0BO@NIGNIKB@CKR_OPERATION_NOT_INITIALIZED?$AA@ 000000018006dbf8     pkcs11.obj
 0002:0000bc18       ??_C@_0BC@PIDGDJNE@CKR_PIN_INCORRECT?$AA@ 000000018006dc18     pkcs11.obj
 0002:0000bc30       ??_C@_0BA@PDLKJELN@CKR_PIN_INVALID?$AA@ 000000018006dc30     pkcs11.obj
 0002:0000bc40       ??_C@_0BC@MEAAAEMN@CKR_PIN_LEN_RANGE?$AA@ 000000018006dc40     pkcs11.obj
 0002:0000bc58       ??_C@_0BA@PPOOFJBC@CKR_PIN_EXPIRED?$AA@ 000000018006dc58     pkcs11.obj
 0002:0000bc68       ??_C@_0P@JGPCDBMN@CKR_PIN_LOCKED?$AA@ 000000018006dc68     pkcs11.obj
 0002:0000bc78       ??_C@_0BD@EFPEBFCO@CKR_SESSION_CLOSED?$AA@ 000000018006dc78     pkcs11.obj
 0002:0000bc90       ??_C@_0BC@GFNLAALM@CKR_SESSION_COUNT?$AA@ 000000018006dc90     pkcs11.obj
 0002:0000bca8       ??_C@_0BL@JFEIAJEO@CKR_SESSION_HANDLE_INVALID?$AA@ 000000018006dca8     pkcs11.obj
 0002:0000bcc8       ??_C@_0CD@CNJKDODF@CKR_SESSION_PARALLEL_NOT_SUPPORT@ 000000018006dcc8     pkcs11.obj
 0002:0000bcf0       ??_C@_0BG@NACFPKBK@CKR_SESSION_READ_ONLY?$AA@ 000000018006dcf0     pkcs11.obj
 0002:0000bd08       ??_C@_0BD@CJEENIOI@CKR_SESSION_EXISTS?$AA@ 000000018006dd08     pkcs11.obj
 0002:0000bd20       ??_C@_0BN@FEECMDLD@CKR_SESSION_READ_ONLY_EXISTS?$AA@ 000000018006dd20     pkcs11.obj
 0002:0000bd40       ??_C@_0CB@MOHOJDLI@CKR_SESSION_READ_WRITE_SO_EXISTS@ 000000018006dd40     pkcs11.obj
 0002:0000bd68       ??_C@_0BG@FJFGJBPL@CKR_SIGNATURE_INVALID?$AA@ 000000018006dd68     pkcs11.obj
 0002:0000bd80       ??_C@_0BI@BCEJLCCN@CKR_SIGNATURE_LEN_RANGE?$AA@ 000000018006dd80     pkcs11.obj
 0002:0000bd98       ??_C@_0BI@OKLBFCJN@CKR_TEMPLATE_INCOMPLETE?$AA@ 000000018006dd98     pkcs11.obj
 0002:0000bdb0       ??_C@_0BK@NFOMODKD@CKR_TEMPLATE_INCONSISTENT?$AA@ 000000018006ddb0     pkcs11.obj
 0002:0000bdd0       ??_C@_0BG@GJCOFLCP@CKR_TOKEN_NOT_PRESENT?$AA@ 000000018006ddd0     pkcs11.obj
 0002:0000bde8       ??_C@_0BJ@DKIDJOKM@CKR_TOKEN_NOT_RECOGNIZED?$AA@ 000000018006dde8     pkcs11.obj
 0002:0000be08       ??_C@_0BK@LICPHIEK@CKR_TOKEN_WRITE_PROTECTED?$AA@ 000000018006de08     pkcs11.obj
 0002:0000be28       ??_C@_0CC@BHIKKBJK@CKR_UNWRAPPING_KEY_HANDLE_INVALI@ 000000018006de28     pkcs11.obj
 0002:0000be50       ??_C@_0BO@EDNGDMCF@CKR_UNWRAPPING_KEY_SIZE_RANGE?$AA@ 000000018006de50     pkcs11.obj
 0002:0000be70       ??_C@_0CF@FNADNHJM@CKR_UNWRAPPING_KEY_TYPE_INCONSIS@ 000000018006de70     pkcs11.obj
 0002:0000be98       ??_C@_0BL@HHCLDMIB@CKR_USER_ALREADY_LOGGED_IN?$AA@ 000000018006de98     pkcs11.obj
 0002:0000beb8       ??_C@_0BH@PHIJDFPC@CKR_USER_NOT_LOGGED_IN?$AA@ 000000018006deb8     pkcs11.obj
 0002:0000bed0       ??_C@_0BN@CJFMMEDO@CKR_USER_PIN_NOT_INITIALIZED?$AA@ 000000018006ded0     pkcs11.obj
 0002:0000bef0       ??_C@_0BG@ECPOFDO@CKR_USER_TYPE_INVALID?$AA@ 000000018006def0     pkcs11.obj
 0002:0000bf08       ??_C@_0CD@GJCCPLNL@CKR_USER_ANOTHER_ALREADY_LOGGED_@ 000000018006df08     pkcs11.obj
 0002:0000bf30       ??_C@_0BI@MGNIFGMM@CKR_USER_TOO_MANY_TYPES?$AA@ 000000018006df30     pkcs11.obj
 0002:0000bf48       ??_C@_0BI@CPLHFH@CKR_WRAPPED_KEY_INVALID?$AA@ 000000018006df48     pkcs11.obj
 0002:0000bf60       ??_C@_0BK@MCPGJNEM@CKR_WRAPPED_KEY_LEN_RANGE?$AA@ 000000018006df60     pkcs11.obj
 0002:0000bf80       ??_C@_0CA@DLBMIHED@CKR_WRAPPING_KEY_HANDLE_INVALID?$AA@ 000000018006df80     pkcs11.obj
 0002:0000bfa0       ??_C@_0BM@OCCHBGKK@CKR_WRAPPING_KEY_SIZE_RANGE?$AA@ 000000018006dfa0     pkcs11.obj
 0002:0000bfc0       ??_C@_0CD@FOJGMFK@CKR_WRAPPING_KEY_TYPE_INCONSISTE@ 000000018006dfc0     pkcs11.obj
 0002:0000bfe8       ??_C@_0BO@GILEANPO@CKR_RANDOM_SEED_NOT_SUPPORTED?$AA@ 000000018006dfe8     pkcs11.obj
 0002:0000c008       ??_C@_0BC@JEFNGGNK@CKR_RANDOM_NO_RNG?$AA@ 000000018006e008     pkcs11.obj
 0002:0000c020       ??_C@_0BK@MMHDGADE@CKR_DOMAIN_PARAMS_INVALID?$AA@ 000000018006e020     pkcs11.obj
 0002:0000c040       ??_C@_0BF@DHOMKFCE@CKR_BUFFER_TOO_SMALL?$AA@ 000000018006e040     pkcs11.obj
 0002:0000c058       ??_C@_0BI@JPLEOJGD@CKR_SAVED_STATE_INVALID?$AA@ 000000018006e058     pkcs11.obj
 0002:0000c070       ??_C@_0BK@NJDKONLD@CKR_INFORMATION_SENSITIVE?$AA@ 000000018006e070     pkcs11.obj
 0002:0000c090       ??_C@_0BF@EAMMCHLP@CKR_STATE_UNSAVEABLE?$AA@ 000000018006e090     pkcs11.obj
 0002:0000c0a8       ??_C@_0BN@ODFNBLKM@CKR_CRYPTOKI_NOT_INITIALIZED?$AA@ 000000018006e0a8     pkcs11.obj
 0002:0000c0c8       ??_C@_0CB@JBBGANIO@CKR_CRYPTOKI_ALREADY_INITIALIZED@ 000000018006e0c8     pkcs11.obj
 0002:0000c0f0       ??_C@_0O@GIMOJHGA@CKR_MUTEX_BAD?$AA@ 000000018006e0f0     pkcs11.obj
 0002:0000c100       ??_C@_0BF@NLNAHNBM@CKR_MUTEX_NOT_LOCKED?$AA@ 000000018006e100     pkcs11.obj
 0002:0000c118       ??_C@_0BB@NJDNOJFN@CKR_NEW_PIN_MODE?$AA@ 000000018006e118     pkcs11.obj
 0002:0000c130       ??_C@_0N@IBMCNMKC@CKR_NEXT_OTP?$AA@ 000000018006e130     pkcs11.obj
 0002:0000c140       ??_C@_0BM@BEBGKNGK@CKR_EXCEEDED_MAX_ITERATIONS?$AA@ 000000018006e140     pkcs11.obj
 0002:0000c160       ??_C@_0BK@DDACINGN@CKR_FIPS_SELF_TEST_FAILED?$AA@ 000000018006e160     pkcs11.obj
 0002:0000c180       ??_C@_0BI@DBKJEDBC@CKR_LIBRARY_LOAD_FAILED?$AA@ 000000018006e180     pkcs11.obj
 0002:0000c198       ??_C@_0BB@KHDMCHOF@CKR_PIN_TOO_WEAK?$AA@ 000000018006e198     pkcs11.obj
 0002:0000c1b0       ??_C@_0BH@GOEMHDMP@CKR_PUBLIC_KEY_INVALID?$AA@ 000000018006e1b0     pkcs11.obj
 0002:0000c1c8       ??_C@_0BG@GCNMIEKF@CKR_FUNCTION_REJECTED?$AA@ 000000018006e1c8     pkcs11.obj
 0002:0000c1e0       ??_C@_0BD@LCCPLOJI@CKR_VENDOR_DEFINED?$AA@ 000000018006e1e0     pkcs11.obj
 0002:0000c1f8       ??_C@_0N@MKGENLFL@PKCS11?3?3Load?$AA@ 000000018006e1f8     pkcs11.obj
 0002:0000c208       ??_C@_0BC@GHFGDNNP@C_GetFunctionList?$AA@ 000000018006e208     pkcs11.obj
 0002:0000c220       ??_C@_0CH@DNNJCGBB@Cannot?5load?5symbol?5?8C_GetFunctio@ 000000018006e220     pkcs11.obj
 0002:0000c248       ??_C@_0BF@NHDADFIO@PKCS11?3?3C_Initialize?$AA@ 000000018006e248     pkcs11.obj
 0002:0000c260       ??_C@_0BD@HFKPPCBN@PKCS11?3?3C_Finalize?$AA@ 000000018006e260     pkcs11.obj
 0002:0000c278       ??_C@_0BC@DGJPFCGF@PKCS11?3?3C_GetInfo?$AA@ 000000018006e278     pkcs11.obj
 0002:0000c290       ??_C@_0BG@BLCIOBIA@PKCS11?3?3C_GetSlotList?$AA@ 000000018006e290     pkcs11.obj
 0002:0000c2a8       ??_C@_0BG@PNMEPMEI@PKCS11?3?3C_GetSlotInfo?$AA@ 000000018006e2a8     pkcs11.obj
 0002:0000c2c0       ??_C@_0BH@KHAABBPA@PKCS11?3?3C_GetTokenInfo?$AA@ 000000018006e2c0     pkcs11.obj
 0002:0000c2d8       ??_C@_0BL@EPKKLPPO@PKCS11?3?3C_GetMechanismList?$AA@ 000000018006e2d8     pkcs11.obj
 0002:0000c2f8       ??_C@_0BL@KJEGKCDG@PKCS11?3?3C_GetMechanismInfo?$AA@ 000000018006e2f8     pkcs11.obj
 0002:0000c318       ??_C@_0BE@LNIIEJKM@PKCS11?3?3C_InitToken?$AA@ 000000018006e318     pkcs11.obj
 0002:0000c330       ??_C@_0BC@GIJBOCHD@PKCS11?3?3C_InitPIN?$AA@ 000000018006e330     pkcs11.obj
 0002:0000c348       ??_C@_0BB@JPMKLBGE@PKCS11?3?3C_SetPIN?$AA@ 000000018006e348     pkcs11.obj
 0002:0000c360       ??_C@_0BG@LGGPJDBL@PKCS11?3?3C_OpenSession?$AA@ 000000018006e360     pkcs11.obj
 0002:0000c378       ??_C@_0BH@MGIEFLJC@PKCS11?3?3C_CloseSession?$AA@ 000000018006e378     pkcs11.obj
 0002:0000c390       ??_C@_0BL@GMNHALFC@PKCS11?3?3C_CloseAllSessions?$AA@ 000000018006e390     pkcs11.obj
 0002:0000c3b0       ??_C@_0BJ@PACCDHFG@PKCS11?3?3C_GetSessionInfo?$AA@ 000000018006e3b0     pkcs11.obj
 0002:0000c3d0       ??_C@_0BA@OPNCJBDF@PKCS11?3?3C_Login?$AA@ 000000018006e3d0     pkcs11.obj
 0002:0000c3e0       ??_C@_0BB@CIBHLJAN@PKCS11?3?3C_Logout?$AA@ 000000018006e3e0     pkcs11.obj
 0002:0000c3f8       ??_C@_0BK@MPHAHLBI@PKCS11?3?3C_FindObjectsInit?$AA@ 000000018006e3f8     pkcs11.obj
 0002:0000c418       ??_C@_0BG@DGNLMJNP@PKCS11?3?3C_FindObjects?$AA@ 000000018006e418     pkcs11.obj
 0002:0000c430       ??_C@_0BL@BOKHPLGB@PKCS11?3?3C_FindObjectsFinal?$AA@ 000000018006e430     pkcs11.obj
 0002:0000c450       ??_C@_0BM@JLHHILLF@PKCS11?3?3C_GetAttributeValue?$AA@ 000000018006e450     pkcs11.obj
 0002:0000c470       ??_C@_0BM@LOHMAAKL@PKCS11?3?3C_SetAttributeValue?$AA@ 000000018006e470     pkcs11.obj
 0002:0000c490       ??_C@_0BH@CHBGJOPB@PKCS11?3?3C_CreateObject?$AA@ 000000018006e490     pkcs11.obj
 0002:0000c4a8       ??_C@_0BF@OOHKGIDA@PKCS11?3?3C_CopyObject?$AA@ 000000018006e4a8     pkcs11.obj
 0002:0000c4c0       ??_C@_0BI@DGAKEFNL@PKCS11?3?3C_DestroyObject?$AA@ 000000018006e4c0     pkcs11.obj
 0002:0000c4d8       ??_C@_0BI@IMOMJNK@PKCS11?3?3C_GetObjectSize?$AA@ 000000018006e4d8     pkcs11.obj
 0002:0000c4f0       ??_C@_0M@GMOFMBMI@crypto_init?$AA@ 000000018006e4f0     pkcs11.obj
 0002:0000c500       ??_C@_0O@KCMHGKKG@crypto_update?$AA@ 000000018006e500     pkcs11.obj
 0002:0000c510       ??_C@_0N@JINHLMAP@crypto_final?$AA@ 000000018006e510     pkcs11.obj
 0002:0000c520       ??_C@_0BG@GFIBLGCN@PKCS11?3?3C_EncryptInit?$AA@ 000000018006e520     pkcs11.obj
 0002:0000c538       ??_C@_0BC@MCMMMBCI@PKCS11?3?3C_Encrypt?$AA@ 000000018006e538     pkcs11.obj
 0002:0000c550       ??_C@_0BI@EPKPIAPE@PKCS11?3?3C_EncryptUpdate?$AA@ 000000018006e550     pkcs11.obj
 0002:0000c568       ??_C@_0BH@EILOMOIP@PKCS11?3?3C_EncryptFinal?$AA@ 000000018006e568     pkcs11.obj
 0002:0000c580       ??_C@_0BG@NNAFHNAG@PKCS11?3?3C_DecryptInit?$AA@ 000000018006e580     pkcs11.obj
 0002:0000c598       ??_C@_0BC@MGBJFEM@PKCS11?3?3C_Decrypt?$AA@ 000000018006e598     pkcs11.obj
 0002:0000c5b0       ??_C@_0BI@DFGJNOCB@PKCS11?3?3C_DecryptUpdate?$AA@ 000000018006e5b0     pkcs11.obj
 0002:0000c5c8       ??_C@_0BH@OELKLDAE@PKCS11?3?3C_DecryptFinal?$AA@ 000000018006e5c8     pkcs11.obj
 0002:0000c5e0       ??_C@_0BF@MPFBHPIL@PKCS11?3?3C_DigestInit?$AA@ 000000018006e5e0     pkcs11.obj
 0002:0000c5f8       ??_C@_0BB@KGJBIIKB@PKCS11?3?3C_Digest?$AA@ 000000018006e5f8     pkcs11.obj
 0002:0000c610       ??_C@_0BH@FFEKELFP@PKCS11?3?3C_DigestUpdate?$AA@ 000000018006e610     pkcs11.obj
 0002:0000c628       ??_C@_0BG@HHKBBIJL@PKCS11?3?3C_DigestFinal?$AA@ 000000018006e628     pkcs11.obj
 0002:0000c640       ??_C@_0BE@FABMJCCI@PKCS11?3?3C_DigestKey?$AA@ 000000018006e640     pkcs11.obj
 0002:0000c658       ??_C@_0BD@COHJKENB@PKCS11?3?3C_SignInit?$AA@ 000000018006e658     pkcs11.obj
 0002:0000c670       ??_C@_0P@CFBBJKFE@PKCS11?3?3C_Sign?$AA@ 000000018006e670     pkcs11.obj
 0002:0000c680       ??_C@_0BF@EBPBEPF@PKCS11?3?3C_SignUpdate?$AA@ 000000018006e680     pkcs11.obj
 0002:0000c698       ??_C@_0BE@PMPOIIKK@PKCS11?3?3C_SignFinal?$AA@ 000000018006e698     pkcs11.obj
 0002:0000c6b0       ??_C@_0BK@CLBOCCKD@PKCS11?3?3C_SignRecoverInit?$AA@ 000000018006e6b0     pkcs11.obj
 0002:0000c6d0       ??_C@_0BG@OHMFPONB@PKCS11?3?3C_SignRecover?$AA@ 000000018006e6d0     pkcs11.obj
 0002:0000c6e8       ??_C@_0BF@BLHHFAMJ@PKCS11?3?3C_VerifyInit?$AA@ 000000018006e6e8     pkcs11.obj
 0002:0000c700       ??_C@_0BB@GMIHHNKB@PKCS11?3?3C_Verify?$AA@ 000000018006e700     pkcs11.obj
 0002:0000c718       ??_C@_0BH@DMNEIPKH@PKCS11?3?3C_VerifyUpdate?$AA@ 000000018006e718     pkcs11.obj
 0002:0000c730       ??_C@_0BG@OPKHBOAI@PKCS11?3?3C_VerifyFinal?$AA@ 000000018006e730     pkcs11.obj
 0002:0000c748       ??_C@_0BM@IJOJBNPH@PKCS11?3?3C_VerifyRecoverInit?$AA@ 000000018006e748     pkcs11.obj
 0002:0000c768       ??_C@_0BI@GCJIAFJC@PKCS11?3?3C_VerifyRecover?$AA@ 000000018006e768     pkcs11.obj
 0002:0000c780       ??_C@_0BG@CEGOJKPC@PKCS11?3?3C_GenerateKey?$AA@ 000000018006e780     pkcs11.obj
 0002:0000c798       ??_C@_0BK@PKBAPFIE@PKCS11?3?3C_GenerateKeyPair?$AA@ 000000018006e798     pkcs11.obj
 0002:0000c7b8       ??_C@_0BC@JOEFNMFD@PKCS11?3?3C_WrapKey?$AA@ 000000018006e7b8     pkcs11.obj
 0002:0000c7d0       ??_C@_0BE@JJENIDAM@PKCS11?3?3C_UnwrapKey?$AA@ 000000018006e7d0     pkcs11.obj
 0002:0000c7e8       ??_C@_0BE@EIJOBLIG@PKCS11?3?3C_DeriveKey?$AA@ 000000018006e7e8     pkcs11.obj
 0002:0000c800       ??_C@_0BF@JPMABIP@PKCS11?3?3C_SeedRandom?$AA@ 000000018006e800     pkcs11.obj
 0002:0000c818       ??_C@_0BJ@LGPKAGP@PKCS11?3?3C_GenerateRandom?$AA@ 000000018006e818     pkcs11.obj
 0002:0000c838       ??_7?$_Ref_count_obj@UKEY_PAIR@@@std@@6B@ 000000018006e838     pkcs11.obj
 0002:0000c858       ??_7?$_Ref_count_obj@UCK_TOKEN_INFO@@@std@@6B@ 000000018006e858     pkcs11.obj
 0002:0000c878       ??_7?$_Ref_count_obj@UCK_MECHANISM_INFO@@@std@@6B@ 000000018006e878     pkcs11.obj
 0002:0000c878       ??_7?$_Ref_count_obj@UCK_SESSION_INFO@@@std@@6B@ 000000018006e878     pkcs11.obj
 0002:0000c898       ??_7?$_Ref_count_obj@UCK_INFO@@@std@@6B@ 000000018006e898     pkcs11.obj
 0002:0000c8b8       ??_7?$_Ref_count@VAttributes@@@std@@6B@ 000000018006e8b8     pkcs11.obj
 0002:0000c8d8       ??_7?$_Ref_count_obj@UCK_SLOT_INFO@@@std@@6B@ 000000018006e8d8     pkcs11.obj
 0002:0000c900       ??_C@_1JA@MEPBCHKG@?$AAC?$AA?3?$AA?2?$AAv?$AAe?$AAh?$AAi?$AAc?$AAl?$AAe?$AA?9?$AAt?$AAr?$AAa?$AAc?$AAk?$AAe?$AAr?$AA?2?$AAB?$AAl?$AAo?$AAc?$AAk?$AAC?$AAh?$AAa?$AAi?$AAn?$AAS?$AAa?$AAm@ 000000018006e900     async.obj
 0002:0000c990       ??_C@_1FM@LOELJOFK@?$AAs?$AAi?$AAz?$AAe?$AA?5?$AA?$DM?$AA?$DN?$AA?5?$AAi?$AAm?$AAp?$AA?3?$AA?3?$AAk?$AAM?$AAa?$AAx?$AAL?$AAe?$AAn?$AAg?$AAt?$AAh?$AA?5?$AA?$CG?$AA?$CG?$AA?5?$AA?$CC?$AAt?$AAo?$AAo?$AA?5@ 000000018006e990     async.obj
 0002:0000c9f0       ??_C@_0L@BCENACFO@privateKey?$AA@ 000000018006e9f0     async.obj
 0002:0000ca00       ??_C@_09IDENFCJL@publicKey?$AA@ 000000018006ea00     async.obj
 0002:0000ca10       ??_C@_1IE@LKFOJBKE@?$AAC?$AA?3?$AA?2?$AAU?$AAs?$AAe?$AAr?$AAs?$AA?2?$AAn?$AAp?$AAa?$AAt?$AAe?$AAl?$AA3?$AA?2?$AA?4?$AAn?$AAo?$AAd?$AAe?$AA?9?$AAg?$AAy?$AAp?$AA?2?$AA6?$AA?4?$AA1?$AA1?$AA?4@ 000000018006ea10     node.obj
 0002:0000ca98       ??_C@_1DG@OKCGPKIB@?$AAp?$AAe?$AAr?$AAs?$AAi?$AAs?$AAt?$AAe?$AAn?$AAt?$AA?$CI?$AA?$CJ?$AA?4?$AAI?$AAs?$AAN?$AAe?$AAa?$AAr?$AAD?$AAe?$AAa?$AAt?$AAh?$AA?$CI?$AA?$CJ?$AA?$AA@ 000000018006ea98     node.obj
 0002:0000cad0       ??_C@_1CO@EGNPJLKI@?$AAp?$AAe?$AAr?$AAs?$AAi?$AAs?$AAt?$AAe?$AAn?$AAt?$AA?$CI?$AA?$CJ?$AA?4?$AAI?$AAs?$AAE?$AAm?$AAp?$AAt?$AAy?$AA?$CI?$AA?$CJ?$AA?$AA@ 000000018006ead0     node.obj
 0002:0000cb00       ??_C@_1EC@NOLNIHNJ@?$AAh?$AAa?$AAn?$AAd?$AAl?$AAe?$AA?9?$AA?$DO?$AAI?$AAn?$AAt?$AAe?$AAr?$AAn?$AAa?$AAl?$AAF?$AAi?$AAe?$AAl?$AAd?$AAC?$AAo?$AAu?$AAn?$AAt?$AA?$CI?$AA?$CJ?$AA?5?$AA?$DO?$AA?5?$AA0@ 000000018006eb00     node.obj
 0002:0000cb48       ??_C@_1DA@FBGAEOIO@?$AA?$CB?$AAp?$AAe?$AAr?$AAs?$AAi?$AAs?$AAt?$AAe?$AAn?$AAt?$AA?$CI?$AA?$CJ?$AA?4?$AAI?$AAs?$AAE?$AAm?$AAp?$AAt?$AAy?$AA?$CI?$AA?$CJ?$AA?$AA@ 000000018006eb48     node.obj
 0002:0000cb78       ??_C@_1CO@JCKLEFMA@?$AA?$CB?$AAp?$AAe?$AAr?$AAs?$AAi?$AAs?$AAt?$AAe?$AAn?$AAt?$AA?$CI?$AA?$CJ?$AA?4?$AAI?$AAs?$AAW?$AAe?$AAa?$AAk?$AA?$CI?$AA?$CJ?$AA?$AA@ 000000018006eb78     node.obj
 0002:0000cba8       ??_C@_1BE@GMLLOIPJ@?$AAr?$AAe?$AAf?$AAs?$AA_?$AA?5?$AA?$DO?$AA?5?$AA0?$AA?$AA@ 000000018006eba8     node.obj
 0002:0000cbc0       ??_C@_1CC@GBFLAAPF@?$AAw?$AAr?$AAa?$AAp?$AA?9?$AA?$DO?$AAr?$AAe?$AAf?$AAs?$AA_?$AA?5?$AA?$DN?$AA?$DN?$AA?5?$AA0?$AA?$AA@ 000000018006ebc0     node.obj
 0002:0000cbe8       ??_C@_0N@FDHHCDGC@v8_to_handle?$AA@ 000000018006ebe8     node.obj
 0002:0000cbf8       ??_C@_0CH@DHIFDOPA@Buffer?5size?5is?5less?5than?5CK_ULON@ 000000018006ebf8     node.obj
 0002:0000cc20       ??_C@_05FEBMJMCL@major?$AA@ 000000018006ec20     node.obj
 0002:0000cc28       ??_C@_05OLAOEALN@minor?$AA@ 000000018006ec28     node.obj
 0002:0000cc30       ??_C@_06BMGDJFJ@PKCS11?$AA@ 000000018006ec30     node.obj
 0002:0000cc38       ??_C@_04EONOHKEP@load?$AA@ 000000018006ec38     node.obj
 0002:0000cc40       ??_C@_0N@ICFELPDB@C_Initialize?$AA@ 000000018006ec40     node.obj
 0002:0000cc50       ??_C@_0L@LCMAJGMD@C_Finalize?$AA@ 000000018006ec50     node.obj
 0002:0000cc60       ??_C@_09IOFDDIBO@C_GetInfo?$AA@ 000000018006ec60     node.obj
 0002:0000cc70       ??_C@_0O@EAKDCLBH@C_GetSlotList?$AA@ 000000018006ec70     node.obj
 0002:0000cc80       ??_C@_0O@KGEPDGNP@C_GetSlotInfo?$AA@ 000000018006ec80     node.obj
 0002:0000cc90       ??_C@_0P@MJDAJMNN@C_GetTokenInfo?$AA@ 000000018006ec90     node.obj
 0002:0000cca0       ??_C@_0BD@IBFDDKGC@C_GetMechanismList?$AA@ 000000018006eca0     node.obj
 0002:0000ccb8       ??_C@_0BD@GHLPCHKK@C_GetMechanismInfo?$AA@ 000000018006ecb8     node.obj
 0002:0000ccd0       ??_C@_0M@NMCENJBL@C_InitToken?$AA@ 000000018006ecd0     node.obj
 0002:0000cce0       ??_C@_09NAFNIIAI@C_InitPIN?$AA@ 000000018006ece0     node.obj
 0002:0000ccf0       ??_C@_08OOAFMFFD@C_SetPIN?$AA@ 000000018006ecf0     node.obj
 0002:0000cd00       ??_C@_0O@ONOEFJIM@C_OpenSession?$AA@ 000000018006ed00     node.obj
 0002:0000cd10       ??_C@_0P@KILENGLP@C_CloseSession?$AA@ 000000018006ed10     node.obj
 0002:0000cd20       ??_C@_0BD@KCCOIOMO@C_CloseAllSessions?$AA@ 000000018006ed20     node.obj
 0002:0000cd38       ??_C@_0BB@EDABPMBE@C_GetSessionInfo?$AA@ 000000018006ed38     node.obj
 0002:0000cd50       ??_C@_07JBCDCPHB@C_Login?$AA@ 000000018006ed50     node.obj
 0002:0000cd58       ??_C@_08FJNIMNDK@C_Logout?$AA@ 000000018006ed58     node.obj
 0002:0000cd68       ??_C@_0P@EJCGBDNM@C_CreateObject?$AA@ 000000018006ed68     node.obj
 0002:0000cd78       ??_C@_0N@LLBOOCIP@C_CopyObject?$AA@ 000000018006ed78     node.obj
 0002:0000cd88       ??_C@_0BA@HDLLCJCD@C_DestroyObject?$AA@ 000000018006ed88     node.obj
 0002:0000cd98       ??_C@_0BA@ENHPKFCC@C_GetObjectSize?$AA@ 000000018006ed98     node.obj
 0002:0000cda8       ??_C@_0BC@FHBBHIGP@C_FindObjectsInit?$AA@ 000000018006eda8     node.obj
 0002:0000cdc0       ??_C@_0O@GNFAADEI@C_FindObjects?$AA@ 000000018006edc0     node.obj
 0002:0000cdd0       ??_C@_0BD@NAFOHOPN@C_FindObjectsFinal?$AA@ 000000018006edd0     node.obj
 0002:0000cde8       ??_C@_0BE@GCAAKNFP@C_GetAttributeValue?$AA@ 000000018006ede8     node.obj
 0002:0000ce00       ??_C@_0BE@EHALCGEB@C_SetAttributeValue?$AA@ 000000018006ee00     node.obj
 0002:0000ce18       ??_C@_0O@DOAKHMLK@C_EncryptInit?$AA@ 000000018006ee18     node.obj
 0002:0000ce28       ??_C@_09HKAAKLFD@C_Encrypt?$AA@ 000000018006ee28     node.obj
 0002:0000ce38       ??_C@_0BA@KBOOMAM@C_EncryptUpdate?$AA@ 000000018006ee38     node.obj
 0002:0000ce48       ??_C@_0P@CGIOEDKC@C_EncryptFinal?$AA@ 000000018006ee48     node.obj
 0002:0000ce58       ??_C@_0O@IGIOLHJB@C_DecryptInit?$AA@ 000000018006ee58     node.obj
 0002:0000ce68       ??_C@_09LEKNPPDH@C_Decrypt?$AA@ 000000018006ee68     node.obj
 0002:0000ce78       ??_C@_0BA@HANILCNJ@C_DecryptUpdate?$AA@ 000000018006ee78     node.obj
 0002:0000ce88       ??_C@_0P@IKIKDOCJ@C_DecryptFinal?$AA@ 000000018006ee88     node.obj
 0002:0000ce98       ??_C@_0N@JKDFPFDE@C_DigestInit?$AA@ 000000018006ee98     node.obj
 0002:0000cea8       ??_C@_08NHFOPMJG@C_Digest?$AA@ 000000018006eea8     node.obj
 0002:0000ceb8       ??_C@_0P@DLHKMGHC@C_DigestUpdate?$AA@ 000000018006eeb8     node.obj
 0002:0000cec8       ??_C@_0O@CMCKNCAM@C_DigestFinal?$AA@ 000000018006eec8     node.obj
 0002:0000ced8       ??_C@_0M@DBLAACJP@C_DigestKey?$AA@ 000000018006eed8     node.obj
 0002:0000cee8       ??_C@_0L@OJBGMAAP@C_SignInit?$AA@ 000000018006eee8     node.obj
 0002:0000cef4       ??_C@_06GFNDGDFJ@C_Sign?$AA@ 000000018006eef4     node.obj
 0002:0000cf00       ??_C@_0N@FBHLJOEK@C_SignUpdate?$AA@ 000000018006ef00     node.obj
 0002:0000cf10       ??_C@_0M@JNFCBIBN@C_SignFinal?$AA@ 000000018006ef10     node.obj
 0002:0000cf20       ??_C@_0BC@LDHPCBNE@C_SignRecoverInit?$AA@ 000000018006ef20     node.obj
 0002:0000cf38       ??_C@_0O@LMEODEEG@C_SignRecover?$AA@ 000000018006ef38     node.obj
 0002:0000cf48       ??_C@_0N@EOBDNKHG@C_VerifyInit?$AA@ 000000018006ef48     node.obj
 0002:0000cf58       ??_C@_08BNEIAJJG@C_Verify?$AA@ 000000018006ef58     node.obj
 0002:0000cf68       ??_C@_0P@FCOEACIK@C_VerifyUpdate?$AA@ 000000018006ef68     node.obj
 0002:0000cf78       ??_C@_0O@LECMNEJP@C_VerifyFinal?$AA@ 000000018006ef78     node.obj
 0002:0000cf88       ??_C@_0BE@HAJODLBN@C_VerifyRecoverInit?$AA@ 000000018006ef88     node.obj
 0002:0000cfa0       ??_C@_0BA@CHCJGJGK@C_VerifyRecover?$AA@ 000000018006efa0     node.obj
 0002:0000cfb0       ??_C@_0O@HPOFFAGF@C_GenerateKey?$AA@ 000000018006efb0     node.obj
 0002:0000cfc0       ??_C@_0BC@GCHBPGPD@C_GenerateKeyPair?$AA@ 000000018006efc0     node.obj
 0002:0000cfd8       ??_C@_09CGIJLGCI@C_WrapKey?$AA@ 000000018006efd8     node.obj
 0002:0000cfe8       ??_C@_0M@PIOBBDLL@C_UnwrapKey?$AA@ 000000018006efe8     node.obj
 0002:0000cff8       ??_C@_0M@CJDCILDB@C_DeriveKey?$AA@ 000000018006eff8     node.obj
 0002:0000d008       ??_C@_0N@FMJIILDA@C_SeedRandom?$AA@ 000000018006f008     node.obj
 0002:0000d018       ??_C@_0BB@LIEMGLCN@C_GenerateRandom?$AA@ 000000018006f018     node.obj
 0002:0000d030       ??_C@_0L@GAPENNGB@Parameter?5?$AA@ 000000018006f030     node.obj
 0002:0000d040       ??_C@_0N@OMAIHFDG@?5is?5REQUIRED?$AA@ 000000018006f040     node.obj
 0002:0000d050       ??_C@_09GPGHAJIF@?5MUST?5be?5?$AA@ 000000018006f050     node.obj
 0002:0000d05c       ??_C@_06ENNEIMBA@String?$AA@ 000000018006f05c     node.obj
 0002:0000d068       ??_C@_0BA@CCPJBLAF@cryptokiVersion?$AA@ 000000018006f068     node.obj
 0002:0000d078       ??_C@_0P@IHICGLLO@manufacturerID?$AA@ 000000018006f078     node.obj
 0002:0000d088       ??_C@_05GECEPKB@flags?$AA@ 000000018006f088     node.obj
 0002:0000d090       ??_C@_0BD@OAEGDBON@libraryDescription?$AA@ 000000018006f090     node.obj
 0002:0000d0a8       ??_C@_0P@NINAKELA@libraryVersion?$AA@ 000000018006f0a8     node.obj
 0002:0000d0b8       ??_C@_06LBMCOACO@Buffer?$AA@ 000000018006f0b8     node.obj
 0002:0000d0c0       ??_C@_0BA@CBKDOBCM@slotDescription?$AA@ 000000018006f0c0     node.obj
 0002:0000d0d0       ??_C@_0BA@ONMJCOP@hardwareVersion?$AA@ 000000018006f0d0     node.obj
 0002:0000d0e0       ??_C@_0BA@GGECKCCL@firmwareVersion?$AA@ 000000018006f0e0     node.obj
 0002:0000d0f0       ??_C@_05IDCCNNGI@label?$AA@ 000000018006f0f0     node.obj
 0002:0000d0f8       ??_C@_05NCCFOPHA@model?$AA@ 000000018006f0f8     node.obj
 0002:0000d100       ??_C@_0N@OMOHFKCJ@serialNumber?$AA@ 000000018006f100     node.obj
 0002:0000d110       ??_C@_0BA@JKGECCLK@maxSessionCount?$AA@ 000000018006f110     node.obj
 0002:0000d120       ??_C@_0N@NICNJIDO@sessionCount?$AA@ 000000018006f120     node.obj
 0002:0000d130       ??_C@_0BC@OGNHKBIC@maxRwSessionCount?$AA@ 000000018006f130     node.obj
 0002:0000d148       ??_C@_0P@JCIMOEBG@rwSessionCount?$AA@ 000000018006f148     node.obj
 0002:0000d158       ??_C@_09ECENNBOF@maxPinLen?$AA@ 000000018006f158     node.obj
 0002:0000d168       ??_C@_09EDEBELFB@minPinLen?$AA@ 000000018006f168     node.obj
 0002:0000d178       ??_C@_07DLBCCALN@utcTime?$AA@ 000000018006f178     node.obj
 0002:0000d180       ??_C@_0BC@LHNHFCPL@totalPublicMemory?$AA@ 000000018006f180     node.obj
 0002:0000d198       ??_C@_0BB@MNOOFIFP@freePublicMemory?$AA@ 000000018006f198     node.obj
 0002:0000d1b0       ??_C@_0BD@KBJPNAJK@totalPrivateMemory?$AA@ 000000018006f1b0     node.obj
 0002:0000d1c8       ??_C@_0BC@HAFOIOGB@freePrivateMemory?$AA@ 000000018006f1c8     node.obj
 0002:0000d1dc       ??_C@_06IONACMBM@Number?$AA@ 000000018006f1dc     node.obj
 0002:0000d1e8       ??_C@_0L@EPEOHOKG@minKeySize?$AA@ 000000018006f1e8     node.obj
 0002:0000d1f8       ??_C@_0L@IDEDAFKJ@maxKeySize?$AA@ 000000018006f1f8     node.obj
 0002:0000d204       ??_C@_06NEEEMOAP@slotID?$AA@ 000000018006f204     node.obj
 0002:0000d20c       ??_C@_05HDBKIDE@state?$AA@ 000000018006f20c     node.obj
 0002:0000d218       ??_C@_0M@EBLDIFKJ@deviceError?$AA@ 000000018006f218     node.obj
 0002:0000d228       ??_C@_1CE@IAEMMFJ@?$AA?$CB?$AAh?$AAa?$AAn?$AAd?$AAl?$AAe?$AA?4?$AAI?$AAs?$AAE?$AAm?$AAp?$AAt?$AAy?$AA?$CI?$AA?$CJ?$AA?$AA@ 000000018006f228     node.obj
 0002:0000d250       ??_7ObjectWrap@node@@6B@   000000018006f250     node.obj
 0002:0000d268       ??_7AsyncWorker@Nan@@6B@   000000018006f268     node.obj
 0002:0000d298       ??_7AsyncGenerateKey@@6B@  000000018006f298     node.obj
 0002:0000d2c8       ??_7WPKCS11@@6B@           000000018006f2c8     node.obj
 0002:0000d2e0       ??_7AsyncGenerateKeyPair@@6B@ 000000018006f2e0     node.obj
 0002:0000d310       ??_7AsyncCrypto@@6B@       000000018006f310     node.obj
 0002:0000d340       ??_7AsyncWrapKey@@6B@      000000018006f340     node.obj
 0002:0000d370       ??_7AsyncUnwrapKey@@6B@    000000018006f370     node.obj
 0002:0000d3a0       ??_7?$_Ref_count@VMechanism@@@std@@6B@ 000000018006f3a0     node.obj
 0002:0000d3c0       ??_7AsyncDeriveKey@@6B@    000000018006f3c0     node.obj
 0002:0000d3f0       ??_C@_08HCOMDCCD@iojs?4exe?$AA@ 000000018006f3f0     win_delay_load_hook.obj
 0002:0000d400       ??_C@_08JDDNMFDB@node?4exe?$AA@ 000000018006f400     win_delay_load_hook.obj
 0002:0000d410       __pfnDliNotifyHook2        000000018006f410     win_delay_load_hook.obj
 0002:0000d440       __real@3ff0000000000000    000000018006f440     const.obj
 0002:0000d448       __real@4000000000000000    000000018006f448     const.obj
 0002:0000d450       __real@4008000000000000    000000018006f450     const.obj
 0002:0000d458       __real@4010000000000000    000000018006f458     const.obj
 0002:0000d460       __real@4014000000000000    000000018006f460     const.obj
 0002:0000d468       __real@4018000000000000    000000018006f468     const.obj
 0002:0000d470       __real@401c000000000000    000000018006f470     const.obj
 0002:0000d478       __real@4020000000000000    000000018006f478     const.obj
 0002:0000d480       __real@4022000000000000    000000018006f480     const.obj
 0002:0000d488       __real@4024000000000000    000000018006f488     const.obj
 0002:0000d490       __real@4026000000000000    000000018006f490     const.obj
 0002:0000d498       __real@4028000000000000    000000018006f498     const.obj
 0002:0000d4a0       __real@402a000000000000    000000018006f4a0     const.obj
 0002:0000d4a8       __real@402c000000000000    000000018006f4a8     const.obj
 0002:0000d4b0       __real@4030000000000000    000000018006f4b0     const.obj
 0002:0000d4b8       __real@4031000000000000    000000018006f4b8     const.obj
 0002:0000d4c0       __real@4032000000000000    000000018006f4c0     const.obj
 0002:0000d4c8       __real@4033000000000000    000000018006f4c8     const.obj
 0002:0000d4d0       __real@4034000000000000    000000018006f4d0     const.obj
 0002:0000d4d8       __real@4035000000000000    000000018006f4d8     const.obj
 0002:0000d4e0       __real@4036000000000000    000000018006f4e0     const.obj
 0002:0000d4e8       __real@4037000000000000    000000018006f4e8     const.obj
 0002:0000d4f0       __real@4038000000000000    000000018006f4f0     const.obj
 0002:0000d4f8       __real@4039000000000000    000000018006f4f8     const.obj
 0002:0000d500       __real@403a000000000000    000000018006f500     const.obj
 0002:0000d508       __real@403b000000000000    000000018006f508     const.obj
 0002:0000d510       __real@403c000000000000    000000018006f510     const.obj
 0002:0000d518       __real@403d000000000000    000000018006f518     const.obj
 0002:0000d520       __real@403e000000000000    000000018006f520     const.obj
 0002:0000d528       __real@403f000000000000    000000018006f528     const.obj
 0002:0000d530       __real@4040000000000000    000000018006f530     const.obj
 0002:0000d538       __real@4040800000000000    000000018006f538     const.obj
 0002:0000d540       __real@4041000000000000    000000018006f540     const.obj
 0002:0000d548       __real@4041800000000000    000000018006f548     const.obj
 0002:0000d550       __real@4042000000000000    000000018006f550     const.obj
 0002:0000d558       __real@4042800000000000    000000018006f558     const.obj
 0002:0000d560       __real@4043000000000000    000000018006f560     const.obj
 0002:0000d568       __real@4043800000000000    000000018006f568     const.obj
 0002:0000d570       __real@4044000000000000    000000018006f570     const.obj
 0002:0000d578       __real@4044800000000000    000000018006f578     const.obj
 0002:0000d580       __real@4045000000000000    000000018006f580     const.obj
 0002:0000d588       __real@4045800000000000    000000018006f588     const.obj
 0002:0000d590       __real@4046000000000000    000000018006f590     const.obj
 0002:0000d598       __real@4046800000000000    000000018006f598     const.obj
 0002:0000d5a0       __real@4047000000000000    000000018006f5a0     const.obj
 0002:0000d5a8       __real@4047800000000000    000000018006f5a8     const.obj
 0002:0000d5b0       __real@4048000000000000    000000018006f5b0     const.obj
 0002:0000d5b8       __real@4048800000000000    000000018006f5b8     const.obj
 0002:0000d5c0       __real@4049000000000000    000000018006f5c0     const.obj
 0002:0000d5c8       __real@4049800000000000    000000018006f5c8     const.obj
 0002:0000d5d0       __real@4050000000000000    000000018006f5d0     const.obj
 0002:0000d5d8       __real@4050400000000000    000000018006f5d8     const.obj
 0002:0000d5e0       __real@4050800000000000    000000018006f5e0     const.obj
 0002:0000d5e8       __real@4050c00000000000    000000018006f5e8     const.obj
 0002:0000d5f0       __real@4051000000000000    000000018006f5f0     const.obj
 0002:0000d5f8       __real@4051400000000000    000000018006f5f8     const.obj
 0002:0000d600       __real@4051800000000000    000000018006f600     const.obj
 0002:0000d608       __real@4051c00000000000    000000018006f608     const.obj
 0002:0000d610       __real@4060000000000000    000000018006f610     const.obj
 0002:0000d618       __real@4060200000000000    000000018006f618     const.obj
 0002:0000d620       __real@4060400000000000    000000018006f620     const.obj
 0002:0000d628       __real@4060600000000000    000000018006f628     const.obj
 0002:0000d630       __real@4060800000000000    000000018006f630     const.obj
 0002:0000d638       __real@4060a00000000000    000000018006f638     const.obj
 0002:0000d640       __real@4060c00000000000    000000018006f640     const.obj
 0002:0000d648       __real@4060e00000000000    000000018006f648     const.obj
 0002:0000d650       __real@4061000000000000    000000018006f650     const.obj
 0002:0000d658       __real@4061200000000000    000000018006f658     const.obj
 0002:0000d660       __real@4061400000000000    000000018006f660     const.obj
 0002:0000d668       __real@4061600000000000    000000018006f668     const.obj
 0002:0000d670       __real@4062000000000000    000000018006f670     const.obj
 0002:0000d678       __real@4070000000000000    000000018006f678     const.obj
 0002:0000d680       __real@4070100000000000    000000018006f680     const.obj
 0002:0000d688       __real@4070200000000000    000000018006f688     const.obj
 0002:0000d690       __real@4070300000000000    000000018006f690     const.obj
 0002:0000d698       __real@4070400000000000    000000018006f698     const.obj
 0002:0000d6a0       __real@4070500000000000    000000018006f6a0     const.obj
 0002:0000d6a8       __real@4070600000000000    000000018006f6a8     const.obj
 0002:0000d6b0       __real@4070700000000000    000000018006f6b0     const.obj
 0002:0000d6b8       __real@4070800000000000    000000018006f6b8     const.obj
 0002:0000d6c0       __real@4070900000000000    000000018006f6c0     const.obj
 0002:0000d6c8       __real@4070a00000000000    000000018006f6c8     const.obj
 0002:0000d6d0       __real@4070b00000000000    000000018006f6d0     const.obj
 0002:0000d6d8       __real@4070c00000000000    000000018006f6d8     const.obj
 0002:0000d6e0       __real@4071000000000000    000000018006f6e0     const.obj
 0002:0000d6e8       __real@4071100000000000    000000018006f6e8     const.obj
 0002:0000d6f0       __real@4072000000000000    000000018006f6f0     const.obj
 0002:0000d6f8       __real@4072100000000000    000000018006f6f8     const.obj
 0002:0000d700       __real@4072200000000000    000000018006f700     const.obj
 0002:0000d708       __real@4072300000000000    000000018006f708     const.obj
 0002:0000d710       __real@4072400000000000    000000018006f710     const.obj
 0002:0000d718       __real@4072500000000000    000000018006f718     const.obj
 0002:0000d720       __real@4072600000000000    000000018006f720     const.obj
 0002:0000d728       __real@4072700000000000    000000018006f728     const.obj
 0002:0000d730       __real@4072800000000000    000000018006f730     const.obj
 0002:0000d738       __real@4073000000000000    000000018006f738     const.obj
 0002:0000d740       __real@4073100000000000    000000018006f740     const.obj
 0002:0000d748       __real@4073200000000000    000000018006f748     const.obj
 0002:0000d750       __real@4073300000000000    000000018006f750     const.obj
 0002:0000d758       __real@4073400000000000    000000018006f758     const.obj
 0002:0000d760       __real@4073500000000000    000000018006f760     const.obj
 0002:0000d768       __real@4073600000000000    000000018006f768     const.obj
 0002:0000d770       __real@4073700000000000    000000018006f770     const.obj
 0002:0000d778       __real@4073800000000000    000000018006f778     const.obj
 0002:0000d780       __real@4074000000000000    000000018006f780     const.obj
 0002:0000d788       __real@4074100000000000    000000018006f788     const.obj
 0002:0000d790       __real@4074200000000000    000000018006f790     const.obj
 0002:0000d798       __real@4074300000000000    000000018006f798     const.obj
 0002:0000d7a0       __real@4074400000000000    000000018006f7a0     const.obj
 0002:0000d7a8       __real@4074500000000000    000000018006f7a8     const.obj
 0002:0000d7b0       __real@4075000000000000    000000018006f7b0     const.obj
 0002:0000d7b8       __real@4075100000000000    000000018006f7b8     const.obj
 0002:0000d7c0       __real@4075200000000000    000000018006f7c0     const.obj
 0002:0000d7c8       __real@4075300000000000    000000018006f7c8     const.obj
 0002:0000d7d0       __real@4076000000000000    000000018006f7d0     const.obj
 0002:0000d7d8       __real@4076100000000000    000000018006f7d8     const.obj
 0002:0000d7e0       __real@4076200000000000    000000018006f7e0     const.obj
 0002:0000d7e8       __real@4076300000000000    000000018006f7e8     const.obj
 0002:0000d7f0       __real@4076400000000000    000000018006f7f0     const.obj
 0002:0000d7f8       __real@4076500000000000    000000018006f7f8     const.obj
 0002:0000d800       __real@4076600000000000    000000018006f800     const.obj
 0002:0000d808       __real@4077000000000000    000000018006f808     const.obj
 0002:0000d810       __real@4078000000000000    000000018006f810     const.obj
 0002:0000d818       __real@4078100000000000    000000018006f818     const.obj
 0002:0000d820       __real@4080000000000000    000000018006f820     const.obj
 0002:0000d828       __real@4080080000000000    000000018006f828     const.obj
 0002:0000d830       __real@4080100000000000    000000018006f830     const.obj
 0002:0000d838       __real@4080800000000000    000000018006f838     const.obj
 0002:0000d840       __real@4080880000000000    000000018006f840     const.obj
 0002:0000d848       __real@4080900000000000    000000018006f848     const.obj
 0002:0000d850       __real@4081000000000000    000000018006f850     const.obj
 0002:0000d858       __real@4081080000000000    000000018006f858     const.obj
 0002:0000d860       __real@4081100000000000    000000018006f860     const.obj
 0002:0000d868       __real@4081180000000000    000000018006f868     const.obj
 0002:0000d870       __real@4081200000000000    000000018006f870     const.obj
 0002:0000d878       __real@4081280000000000    000000018006f878     const.obj
 0002:0000d880       __real@4081300000000000    000000018006f880     const.obj
 0002:0000d888       __real@4081380000000000    000000018006f888     const.obj
 0002:0000d890       __real@4081500000000000    000000018006f890     const.obj
 0002:0000d898       __real@4081580000000000    000000018006f898     const.obj
 0002:0000d8a0       __real@4081600000000000    000000018006f8a0     const.obj
 0002:0000d8a8       __real@4081680000000000    000000018006f8a8     const.obj
 0002:0000d8b0       __real@4081700000000000    000000018006f8b0     const.obj
 0002:0000d8b8       __real@4081780000000000    000000018006f8b8     const.obj
 0002:0000d8c0       __real@4081800000000000    000000018006f8c0     const.obj
 0002:0000d8c8       __real@4081880000000000    000000018006f8c8     const.obj
 0002:0000d8d0       __real@4081900000000000    000000018006f8d0     const.obj
 0002:0000d8d8       __real@4082000000000000    000000018006f8d8     const.obj
 0002:0000d8e0       __real@4082080000000000    000000018006f8e0     const.obj
 0002:0000d8e8       __real@4082100000000000    000000018006f8e8     const.obj
 0002:0000d8f0       __real@4082800000000000    000000018006f8f0     const.obj
 0002:0000d8f8       __real@4082880000000000    000000018006f8f8     const.obj
 0002:0000d900       __real@4082900000000000    000000018006f900     const.obj
 0002:0000d908       __real@4082a80000000000    000000018006f908     const.obj
 0002:0000d910       __real@4082b00000000000    000000018006f910     const.obj
 0002:0000d918       __real@4082b80000000000    000000018006f918     const.obj
 0002:0000d920       __real@4083000000000000    000000018006f920     const.obj
 0002:0000d928       __real@4083080000000000    000000018006f928     const.obj
 0002:0000d930       __real@4083100000000000    000000018006f930     const.obj
 0002:0000d938       __real@4083800000000000    000000018006f938     const.obj
 0002:0000d940       __real@4083880000000000    000000018006f940     const.obj
 0002:0000d948       __real@4083900000000000    000000018006f948     const.obj
 0002:0000d950       __real@4084000000000000    000000018006f950     const.obj
 0002:0000d958       __real@4084100000000000    000000018006f958     const.obj
 0002:0000d960       __real@4084800000000000    000000018006f960     const.obj
 0002:0000d968       __real@4084880000000000    000000018006f968     const.obj
 0002:0000d970       __real@4085000000000000    000000018006f970     const.obj
 0002:0000d978       __real@4085080000000000    000000018006f978     const.obj
 0002:0000d980       __real@4088000000000000    000000018006f980     const.obj
 0002:0000d988       __real@4088080000000000    000000018006f988     const.obj
 0002:0000d990       __real@4088100000000000    000000018006f990     const.obj
 0002:0000d998       __real@4088180000000000    000000018006f998     const.obj
 0002:0000d9a0       __real@4088200000000000    000000018006f9a0     const.obj
 0002:0000d9a8       __real@4088280000000000    000000018006f9a8     const.obj
 0002:0000d9b0       __real@4088800000000000    000000018006f9b0     const.obj
 0002:0000d9b8       __real@4088880000000000    000000018006f9b8     const.obj
 0002:0000d9c0       __real@4088900000000000    000000018006f9c0     const.obj
 0002:0000d9c8       __real@4088980000000000    000000018006f9c8     const.obj
 0002:0000d9d0       __real@4088a00000000000    000000018006f9d0     const.obj
 0002:0000d9d8       __real@4088a80000000000    000000018006f9d8     const.obj
 0002:0000d9e0       __real@4089000000000000    000000018006f9e0     const.obj
 0002:0000d9e8       __real@4089080000000000    000000018006f9e8     const.obj
 0002:0000d9f0       __real@4089100000000000    000000018006f9f0     const.obj
 0002:0000d9f8       __real@4089180000000000    000000018006f9f8     const.obj
 0002:0000da00       __real@4089200000000000    000000018006fa00     const.obj
 0002:0000da08       __real@4089280000000000    000000018006fa08     const.obj
 0002:0000da10       __real@4089800000000000    000000018006fa10     const.obj
 0002:0000da18       __real@4089880000000000    000000018006fa18     const.obj
 0002:0000da20       __real@4089900000000000    000000018006fa20     const.obj
 0002:0000da28       __real@4089980000000000    000000018006fa28     const.obj
 0002:0000da30       __real@4089a00000000000    000000018006fa30     const.obj
 0002:0000da38       __real@4089a80000000000    000000018006fa38     const.obj
 0002:0000da40       __real@408a000000000000    000000018006fa40     const.obj
 0002:0000da48       __real@408a080000000000    000000018006fa48     const.obj
 0002:0000da50       __real@408a100000000000    000000018006fa50     const.obj
 0002:0000da58       __real@408a180000000000    000000018006fa58     const.obj
 0002:0000da60       __real@408a200000000000    000000018006fa60     const.obj
 0002:0000da68       __real@408a280000000000    000000018006fa68     const.obj
 0002:0000da70       __real@408a800000000000    000000018006fa70     const.obj
 0002:0000da78       __real@408b000000000000    000000018006fa78     const.obj
 0002:0000da80       __real@408b100000000000    000000018006fa80     const.obj
 0002:0000da88       __real@408b180000000000    000000018006fa88     const.obj
 0002:0000da90       __real@408b200000000000    000000018006fa90     const.obj
 0002:0000da98       __real@408b280000000000    000000018006fa98     const.obj
 0002:0000daa0       __real@408b800000000000    000000018006faa0     const.obj
 0002:0000daa8       __real@408b880000000000    000000018006faa8     const.obj
 0002:0000dab0       __real@408b900000000000    000000018006fab0     const.obj
 0002:0000dab8       __real@408b980000000000    000000018006fab8     const.obj
 0002:0000dac0       __real@408ba00000000000    000000018006fac0     const.obj
 0002:0000dac8       __real@408ba80000000000    000000018006fac8     const.obj
 0002:0000dad0       __real@408bb00000000000    000000018006fad0     const.obj
 0002:0000dad8       __real@408bb80000000000    000000018006fad8     const.obj
 0002:0000dae0       __real@408bc00000000000    000000018006fae0     const.obj
 0002:0000dae8       __real@408c000000000000    000000018006fae8     const.obj
 0002:0000daf0       __real@408c080000000000    000000018006faf0     const.obj
 0002:0000daf8       __real@408c800000000000    000000018006faf8     const.obj
 0002:0000db00       __real@408c880000000000    000000018006fb00     const.obj
 0002:0000db08       __real@408c900000000000    000000018006fb08     const.obj
 0002:0000db10       __real@408c980000000000    000000018006fb10     const.obj
 0002:0000db18       __real@408ca00000000000    000000018006fb18     const.obj
 0002:0000db20       __real@408ca80000000000    000000018006fb20     const.obj
 0002:0000db28       __real@408cb00000000000    000000018006fb28     const.obj
 0002:0000db30       __real@408d000000000000    000000018006fb30     const.obj
 0002:0000db38       __real@408d080000000000    000000018006fb38     const.obj
 0002:0000db40       __real@408d100000000000    000000018006fb40     const.obj
 0002:0000db48       __real@408d180000000000    000000018006fb48     const.obj
 0002:0000db50       __real@408d200000000000    000000018006fb50     const.obj
 0002:0000db58       __real@408d280000000000    000000018006fb58     const.obj
 0002:0000db60       __real@408d300000000000    000000018006fb60     const.obj
 0002:0000db68       __real@408d380000000000    000000018006fb68     const.obj
 0002:0000db70       __real@408d400000000000    000000018006fb70     const.obj
 0002:0000db78       __real@408d480000000000    000000018006fb78     const.obj
 0002:0000db80       __real@408d500000000000    000000018006fb80     const.obj
 0002:0000db88       __real@408d580000000000    000000018006fb88     const.obj
 0002:0000db90       __real@408d800000000000    000000018006fb90     const.obj
 0002:0000db98       __real@408e000000000000    000000018006fb98     const.obj
 0002:0000dba0       __real@408e800000000000    000000018006fba0     const.obj
 0002:0000dba8       __real@408e880000000000    000000018006fba8     const.obj
 0002:0000dbb0       __real@408e900000000000    000000018006fbb0     const.obj
 0002:0000dbb8       __real@408e980000000000    000000018006fbb8     const.obj
 0002:0000dbc0       __real@408ea00000000000    000000018006fbc0     const.obj
 0002:0000dbc8       __real@408ea80000000000    000000018006fbc8     const.obj
 0002:0000dbd0       __real@4090000000000000    000000018006fbd0     const.obj
 0002:0000dbd8       __real@4090040000000000    000000018006fbd8     const.obj
 0002:0000dbe0       __real@4090080000000000    000000018006fbe0     const.obj
 0002:0000dbe8       __real@40900c0000000000    000000018006fbe8     const.obj
 0002:0000dbf0       __real@4090100000000000    000000018006fbf0     const.obj
 0002:0000dbf8       __real@4090140000000000    000000018006fbf8     const.obj
 0002:0000dc00       __real@4090180000000000    000000018006fc00     const.obj
 0002:0000dc08       __real@4092000000000000    000000018006fc08     const.obj
 0002:0000dc10       __real@4092040000000000    000000018006fc10     const.obj
 0002:0000dc18       __real@4092080000000000    000000018006fc18     const.obj
 0002:0000dc20       __real@4094000000000000    000000018006fc20     const.obj
 0002:0000dc28       __real@4094040000000000    000000018006fc28     const.obj
 0002:0000dc30       __real@4094080000000000    000000018006fc30     const.obj
 0002:0000dc38       __real@40940c0000000000    000000018006fc38     const.obj
 0002:0000dc40       __real@4095400000000000    000000018006fc40     const.obj
 0002:0000dc48       __real@4095440000000000    000000018006fc48     const.obj
 0002:0000dc50       __real@4095480000000000    000000018006fc50     const.obj
 0002:0000dc58       __real@40954c0000000000    000000018006fc58     const.obj
 0002:0000dc60       __real@4095500000000000    000000018006fc60     const.obj
 0002:0000dc68       __real@4095540000000000    000000018006fc68     const.obj
 0002:0000dc70       __real@4095580000000000    000000018006fc70     const.obj
 0002:0000dc78       __real@40955c0000000000    000000018006fc78     const.obj
 0002:0000dc80       __real@4095600000000000    000000018006fc80     const.obj
 0002:0000dc88       __real@4095800000000000    000000018006fc88     const.obj
 0002:0000dc90       __real@4095840000000000    000000018006fc90     const.obj
 0002:0000dc98       __real@4095880000000000    000000018006fc98     const.obj
 0002:0000dca0       __real@40958c0000000000    000000018006fca0     const.obj
 0002:0000dca8       __real@4095900000000000    000000018006fca8     const.obj
 0002:0000dcb0       __real@4095940000000000    000000018006fcb0     const.obj
 0002:0000dcb8       __real@4095980000000000    000000018006fcb8     const.obj
 0002:0000dcc0       __real@40959c0000000000    000000018006fcc0     const.obj
 0002:0000dcc8       __real@4099400000000000    000000018006fcc8     const.obj
 0002:0000dcd0       __real@4099440000000000    000000018006fcd0     const.obj
 0002:0000dcd8       __real@4099480000000000    000000018006fcd8     const.obj
 0002:0000dce0       __real@40994c0000000000    000000018006fce0     const.obj
 0002:0000dce8       __real@4099500000000000    000000018006fce8     const.obj
 0002:0000dcf0       __real@4099540000000000    000000018006fcf0     const.obj
 0002:0000dcf8       __real@4099580000000000    000000018006fcf8     const.obj
 0002:0000dd00       __real@40995c0000000000    000000018006fd00     const.obj
 0002:0000dd08       __real@40a0000000000000    000000018006fd08     const.obj
 0002:0000dd10       __real@40b0000000000000    000000018006fd10     const.obj
 0002:0000dd18       __real@40b0010000000000    000000018006fd18     const.obj
 0002:0000dd20       __real@40b0020000000000    000000018006fd20     const.obj
 0002:0000dd28       __real@40b0030000000000    000000018006fd28     const.obj
 0002:0000dd30       __real@40b0040000000000    000000018006fd30     const.obj
 0002:0000dd38       __real@40b0050000000000    000000018006fd38     const.obj
 0002:0000dd40       __real@40b0060000000000    000000018006fd40     const.obj
 0002:0000dd48       __real@40b0070000000000    000000018006fd48     const.obj
 0002:0000dd50       __real@40b0080000000000    000000018006fd50     const.obj
 0002:0000dd58       __real@40b0090000000000    000000018006fd58     const.obj
 0002:0000dd60       __real@40b00a0000000000    000000018006fd60     const.obj
 0002:0000dd68       __real@40b0100000000000    000000018006fd68     const.obj
 0002:0000dd70       __real@40b0110000000000    000000018006fd70     const.obj
 0002:0000dd78       __real@40b0200000000000    000000018006fd78     const.obj
 0002:0000dd80       __real@40b0300000000000    000000018006fd80     const.obj
 0002:0000dd88       __real@40b0310000000000    000000018006fd88     const.obj
 0002:0000dd90       __real@40b0320000000000    000000018006fd90     const.obj
 0002:0000dd98       __real@40b0330000000000    000000018006fd98     const.obj
 0002:0000dda0       __real@40b0340000000000    000000018006fda0     const.obj
 0002:0000dda8       __real@40b0350000000000    000000018006fda8     const.obj
 0002:0000ddb0       __real@40b0360000000000    000000018006fdb0     const.obj
 0002:0000ddb8       __real@40b0400000000000    000000018006fdb8     const.obj
 0002:0000ddc0       __real@40b0410000000000    000000018006fdc0     const.obj
 0002:0000ddc8       __real@40b0420000000000    000000018006fdc8     const.obj
 0002:0000ddd0       __real@40b0430000000000    000000018006fdd0     const.obj
 0002:0000ddd8       __real@40b0440000000000    000000018006fdd8     const.obj
 0002:0000dde0       __real@40b0450000000000    000000018006fde0     const.obj
 0002:0000dde8       __real@40b0460000000000    000000018006fde8     const.obj
 0002:0000ddf0       __real@40b0500000000000    000000018006fdf0     const.obj
 0002:0000ddf8       __real@40b0510000000000    000000018006fdf8     const.obj
 0002:0000de00       __real@40b0520000000000    000000018006fe00     const.obj
 0002:0000de08       __real@40b0600000000000    000000018006fe08     const.obj
 0002:0000de10       __real@40b0610000000000    000000018006fe10     const.obj
 0002:0000de18       __real@40b0620000000000    000000018006fe18     const.obj
 0002:0000de20       __real@40b0630000000000    000000018006fe20     const.obj
 0002:0000de28       __real@40b0640000000000    000000018006fe28     const.obj
 0002:0000de30       __real@40b0650000000000    000000018006fe30     const.obj
 0002:0000de38       __real@40b0700000000000    000000018006fe38     const.obj
 0002:0000de40       __real@40b0800000000000    000000018006fe40     const.obj
 0002:0000de48       __real@40b0810000000000    000000018006fe48     const.obj
 0002:0000de50       __real@40b0820000000000    000000018006fe50     const.obj
 0002:0000de58       __real@40b0830000000000    000000018006fe58     const.obj
 0002:0000de60       __real@40b0840000000000    000000018006fe60     const.obj
 0002:0000de68       __real@40b0850000000000    000000018006fe68     const.obj
 0002:0000de70       __real@40b0860000000000    000000018006fe70     const.obj
 0002:0000de78       __real@40b0870000000000    000000018006fe78     const.obj
 0002:0000de80       __real@40b0880000000000    000000018006fe80     const.obj
 0002:0000de88       __real@40b0890000000000    000000018006fe88     const.obj
 0002:0000de90       __real@40b08a0000000000    000000018006fe90     const.obj
 0002:0000de98       __real@40b08b0000000000    000000018006fe98     const.obj
 0002:0000dea0       __real@40b0900000000000    000000018006fea0     const.obj
 0002:0000dea8       __real@40b0910000000000    000000018006fea8     const.obj
 0002:0000deb0       __real@40b0920000000000    000000018006feb0     const.obj
 0002:0000deb8       __real@40b0930000000000    000000018006feb8     const.obj
 0002:0000dec0       __real@40b0940000000000    000000018006fec0     const.obj
 0002:0000dec8       __real@40b0950000000000    000000018006fec8     const.obj
 0002:0000ded0       __real@40b1000000000000    000000018006fed0     const.obj
 0002:0000ded8       __real@40b1010000000000    000000018006fed8     const.obj
 0002:0000dee0       __real@40b1020000000000    000000018006fee0     const.obj
 0002:0000dee8       __real@40b1030000000000    000000018006fee8     const.obj
 0002:0000def0       __real@40b1040000000000    000000018006fef0     const.obj
 0002:0000def8       __real@40b1050000000000    000000018006fef8     const.obj
 0002:0000df00       __real@40b2000000000000    000000018006ff00     const.obj
 0002:0000df08       __real@40b2010000000000    000000018006ff08     const.obj
 0002:0000df10       __real@40b2020000000000    000000018006ff10     const.obj
 0002:0000df18       __real@40b2030000000000    000000018006ff18     const.obj
 0002:0000df20       __real@40b2040000000000    000000018006ff20     const.obj
 0002:0000df28       __real@40b2100000000000    000000018006ff28     const.obj
 0002:0000df30       __real@40b2110000000000    000000018006ff30     const.obj
 0002:0000df38       __real@40b2200000000000    000000018006ff38     const.obj
 0002:0000df40       __real@40b2210000000000    000000018006ff40     const.obj
 0002:0000df48       __real@40b2220000000000    000000018006ff48     const.obj
 0002:0000df50       __real@40b2230000000000    000000018006ff50     const.obj
 0002:0000df58       __real@40b2240000000000    000000018006ff58     const.obj
 0002:0000df60       __real@40c0000000000000    000000018006ff60     const.obj
 0002:0000df68       __real@40c0008000000000    000000018006ff68     const.obj
 0002:0000df70       __real@40c0010000000000    000000018006ff70     const.obj
 0002:0000df78       __real@40c0820000000000    000000018006ff78     const.obj
 0002:0000df80       __real@40c0828000000000    000000018006ff80     const.obj
 0002:0000df88       __real@40c0830000000000    000000018006ff88     const.obj
 0002:0000df90       __real@40c0838000000000    000000018006ff90     const.obj
 0002:0000df98       __real@40d0000000000000    000000018006ff98     const.obj
 0002:0000dfa0       __real@40d0004000000000    000000018006ffa0     const.obj
 0002:0000dfa8       __real@40d0008000000000    000000018006ffa8     const.obj
 0002:0000dfb0       __real@40e0000000000000    000000018006ffb0     const.obj
 0002:0000dfb8       __real@40f0000000000000    000000018006ffb8     const.obj
 0002:0000dfc0       __real@4100000000000000    000000018006ffc0     const.obj
 0002:0000dfc8       __real@4110000000000000    000000018006ffc8     const.obj
 0002:0000dfd0       __real@4120000000000000    000000018006ffd0     const.obj
 0002:0000dfd8       __real@4130000000000000    000000018006ffd8     const.obj
 0002:0000dfe0       __real@4140000000000000    000000018006ffe0     const.obj
 0002:0000dfe8       __real@4150000000000000    000000018006ffe8     const.obj
 0002:0000dff0       __real@4160000000000000    000000018006fff0     const.obj
 0002:0000dff8       __real@4170000000000000    000000018006fff8     const.obj
 0002:0000e000       __real@41d0000084400000    0000000180070000     const.obj
 0002:0000e008       __real@41d0000084800000    0000000180070008     const.obj
 0002:0000e010       __real@41d0000084c00000    0000000180070010     const.obj
 0002:0000e018       __real@41d0000180000000    0000000180070018     const.obj
 0002:0000e020       __real@41e0000000000000    0000000180070020     const.obj
 0002:0000ffc8       _tls_used                  0000000180071fc8     LIBCMT:tlssup.obj
 0002:0000fff0       ??_R4exception@std@@6B@    0000000180071ff0     libcpmt:xthrow.obj
 0002:00010018       ??_R3exception@std@@8      0000000180072018     libcpmt:xthrow.obj
 0002:00010030       ??_R2exception@std@@8      0000000180072030     libcpmt:xthrow.obj
 0002:00010040       ??_R1A@?0A@EA@exception@std@@8 0000000180072040     libcpmt:xthrow.obj
 0002:00010068       ??_R4bad_alloc@std@@6B@    0000000180072068     libcpmt:xthrow.obj
 0002:00010090       ??_R3bad_alloc@std@@8      0000000180072090     libcpmt:xthrow.obj
 0002:000100a8       ??_R2bad_alloc@std@@8      00000001800720a8     libcpmt:xthrow.obj
 0002:000100c0       ??_R1A@?0A@EA@bad_alloc@std@@8 00000001800720c0     libcpmt:xthrow.obj
 0002:000100e8       ??_R4logic_error@std@@6B@  00000001800720e8     libcpmt:xthrow.obj
 0002:00010110       ??_R3logic_error@std@@8    0000000180072110     libcpmt:xthrow.obj
 0002:00010128       ??_R2logic_error@std@@8    0000000180072128     libcpmt:xthrow.obj
 0002:00010140       ??_R1A@?0A@EA@logic_error@std@@8 0000000180072140     libcpmt:xthrow.obj
 0002:00010168       ??_R4length_error@std@@6B@ 0000000180072168     libcpmt:xthrow.obj
 0002:00010190       ??_R3length_error@std@@8   0000000180072190     libcpmt:xthrow.obj
 0002:000101a8       ??_R2length_error@std@@8   00000001800721a8     libcpmt:xthrow.obj
 0002:000101c8       ??_R1A@?0A@EA@length_error@std@@8 00000001800721c8     libcpmt:xthrow.obj
 0002:000101f0       ??_R4out_of_range@std@@6B@ 00000001800721f0     libcpmt:xthrow.obj
 0002:00010218       ??_R3out_of_range@std@@8   0000000180072218     libcpmt:xthrow.obj
 0002:00010230       ??_R2out_of_range@std@@8   0000000180072230     libcpmt:xthrow.obj
 0002:00010250       ??_R1A@?0A@EA@out_of_range@std@@8 0000000180072250     libcpmt:xthrow.obj
 0002:00010278       ??_R4type_info@@6B@        0000000180072278     LIBCMT:std_type_info_static.obj
 0002:000102a0       ??_R3type_info@@8          00000001800722a0     LIBCMT:std_type_info_static.obj
 0002:000102b8       ??_R2type_info@@8          00000001800722b8     LIBCMT:std_type_info_static.obj
 0002:000102c8       ??_R1A@?0A@EA@type_info@@8 00000001800722c8     LIBCMT:std_type_info_static.obj
 0002:000102f0       ??_R4bad_array_new_length@std@@6B@ 00000001800722f0     LIBCMT:throw_bad_alloc.obj
 0002:00010318       ??_R3bad_array_new_length@std@@8 0000000180072318     LIBCMT:throw_bad_alloc.obj
 0002:00010330       ??_R2bad_array_new_length@std@@8 0000000180072330     LIBCMT:throw_bad_alloc.obj
 0002:00010350       ??_R1A@?0A@EA@bad_array_new_length@std@@8 0000000180072350     LIBCMT:throw_bad_alloc.obj
 0002:00010378       ??_R4bad_exception@std@@6B@ 0000000180072378     libvcruntime:frame.obj
 0002:000103a0       ??_R3bad_exception@std@@8  00000001800723a0     libvcruntime:frame.obj
 0002:000103b8       ??_R2bad_exception@std@@8  00000001800723b8     libvcruntime:frame.obj
 0002:000103d0       ??_R1A@?0A@EA@bad_exception@std@@8 00000001800723d0     libvcruntime:frame.obj
 0002:00010888       __rtc_iaa                  0000000180072888     LIBCMT:_initsect_.obj
 0002:00010890       __rtc_izz                  0000000180072890     LIBCMT:_initsect_.obj
 0002:00010898       __rtc_taa                  0000000180072898     LIBCMT:_initsect_.obj
 0002:000108a0       __rtc_tzz                  00000001800728a0     LIBCMT:_initsect_.obj
 0002:0001dfd8       _TI2?AVbad_alloc@std@@     000000018007ffd8     libcpmt:xthrow.obj
 0002:0001dff8       _CTA2?AVbad_alloc@std@@    000000018007fff8     libcpmt:xthrow.obj
 0002:0001e010       _CT??_R0?AVbad_alloc@std@@@8??0bad_alloc@std@@QEAA@AEBV01@@Z24 0000000180080010     libcpmt:xthrow.obj
 0002:0001e038       _CT??_R0?AVexception@std@@@8??0exception@std@@QEAA@AEBV01@@Z24 0000000180080038     libcpmt:xthrow.obj
 0002:0001e060       _CT??_R0?AVlogic_error@std@@@8??0logic_error@std@@QEAA@AEBV01@@Z24 0000000180080060     libcpmt:xthrow.obj
 0002:0001e088       _TI3?AVlength_error@std@@  0000000180080088     libcpmt:xthrow.obj
 0002:0001e0a8       _CTA3?AVlength_error@std@@ 00000001800800a8     libcpmt:xthrow.obj
 0002:0001e0c8       _CT??_R0?AVlength_error@std@@@8??0length_error@std@@QEAA@AEBV01@@Z24 00000001800800c8     libcpmt:xthrow.obj
 0002:0001e0f0       _TI3?AVout_of_range@std@@  00000001800800f0     libcpmt:xthrow.obj
 0002:0001e110       _CTA3?AVout_of_range@std@@ 0000000180080110     libcpmt:xthrow.obj
 0002:0001e130       _CT??_R0?AVout_of_range@std@@@8??0out_of_range@std@@QEAA@AEBV01@@Z24 0000000180080130     libcpmt:xthrow.obj
 0002:0001e158       _TI3?AVbad_array_new_length@std@@ 0000000180080158     LIBCMT:throw_bad_alloc.obj
 0002:0001e178       _CTA3?AVbad_array_new_length@std@@ 0000000180080178     LIBCMT:throw_bad_alloc.obj
 0002:0001e198       _CT??_R0?AVbad_array_new_length@std@@@8??0bad_array_new_length@std@@QEAA@AEBV01@@Z24 0000000180080198     LIBCMT:throw_bad_alloc.obj
 0002:0001e1c0       _TI2?AVbad_exception@std@@ 00000001800801c0     libvcruntime:frame.obj
 0002:0001e1e0       _CTA2?AVbad_exception@std@@ 00000001800801e0     libvcruntime:frame.obj
 0002:0001e1f8       _CT??_R0?AVbad_exception@std@@@8??0bad_exception@std@@QEAA@AEBV01@@Z24 00000001800801f8     libvcruntime:frame.obj
 0002:0001e220       _TI2?AV?$shared_ptr@VError@@@std@@ 0000000180080220     template.obj
 0002:0001e240       _CT??_R0?AV?$_Ptr_base@VError@@@std@@@816 0000000180080240     template.obj
 0002:0001e268       _CTA2?AV?$shared_ptr@VError@@@std@@ 0000000180080268     template.obj
 0002:0001e280       _CT??_R0?AV?$shared_ptr@VError@@@std@@@816 0000000180080280     template.obj
 0002:0001e2a4       __DELAY_IMPORT_DESCRIPTOR_node_exe 00000001800802a4     node:node.exe
 0002:0001e2c4       __NULL_DELAY_IMPORT_DESCRIPTOR 00000001800802c4     node:node.exe
 0002:0001e548       \177node_NULL_THUNK_DATA_DLN 0000000180080548     node:node.exe
 0002:0001f8c0       \177node_NULL_THUNK_DATA_DLB 00000001800818c0     node:node.exe
 0002:0001fb70       __IMPORT_DESCRIPTOR_KERNEL32 0000000180081b70     kernel32:KERNEL32.dll
 0002:0001fb84       __NULL_IMPORT_DESCRIPTOR   0000000180081b84     kernel32:KERNEL32.dll
 0003:00000000       _Init_global_epoch         0000000180083000     LIBCMT:thread_safe_statics.obj
 0003:00000004       __scrt_native_dllmain_reason 0000000180083004     LIBCMT:utility.obj
 0003:00000008       __security_cookie          0000000180083008     LIBCMT:gs_cookie.obj
 0003:00000010       __security_cookie_complement 0000000180083010     LIBCMT:gs_cookie.obj
 0003:00000018       __isa_available            0000000180083018     LIBCMT:_cpu_disp_.obj
 0003:0000001c       __isa_enabled              000000018008301c     LIBCMT:_cpu_disp_.obj
 0003:00000020       __memcpy_nt_iters          0000000180083020     LIBCMT:_cpu_disp_.obj
 0003:00000040       __abort_behavior           0000000180083040     libucrt:abort.obj
 0003:00000050       _iob                       0000000180083050     libucrt:_file.obj
 0003:00000160       __acrt_initial_locale_data 0000000180083160     libucrt:nlsdata.obj
 0003:000002b8       __acrt_initial_locale_pointers 00000001800832b8     libucrt:nlsdata.obj
 0003:000002c8       __acrt_wide_c_locale_string 00000001800832c8     libucrt:nlsdata.obj
 0003:000002d0       __badioinfo                00000001800832d0     libucrt:ioinit.obj
 0003:00000310       __acrt_initial_multibyte_data 0000000180083310     libucrt:mbctype.obj
 0003:00000538       __acrt_current_multibyte_data 0000000180083538     libucrt:mbctype.obj
 0003:00000640       _mbctype                   0000000180083640     libucrt:mbctype.obj
 0003:00000750       _mbcasemap                 0000000180083750     libucrt:mbctype.obj
 0003:00000850       _pwctype                   0000000180083850     libucrt:ctype.obj
 0003:00000858       __globallocalestatus       0000000180083858     libucrt:glstatus.obj
 0003:00000860       __acrt_lconv_c             0000000180083860     libucrt:localeconv.obj
 0003:000008f8       __acrt_lconv_static_decimal 00000001800838f8     libucrt:localeconv.obj
 0003:000008fc       __acrt_lconv_static_W_decimal 00000001800838fc     libucrt:localeconv.obj
 0003:00000910       __dcrt_lowio_console_output_handle 0000000180083910     libucrt:initcon.obj
 0003:00000930       _fltused                   0000000180083930     LIBCMT:fltused.obj
 0003:00000980       ??_R0?AVbad_alloc@std@@@8  0000000180083980     libcpmt:xthrow.obj
 0003:000009a8       ??_R0?AVexception@std@@@8  00000001800839a8     libcpmt:xthrow.obj
 0003:000009d0       ??_R0?AVlogic_error@std@@@8 00000001800839d0     libcpmt:xthrow.obj
 0003:000009f8       ??_R0?AVlength_error@std@@@8 00000001800839f8     libcpmt:xthrow.obj
 0003:00000a20       ??_R0?AVout_of_range@std@@@8 0000000180083a20     libcpmt:xthrow.obj
 0003:00000a48       ??_R0?AVtype_info@@@8      0000000180083a48     LIBCMT:std_type_info_static.obj
 0003:00000a68       ??_R0?AVbad_array_new_length@std@@@8 0000000180083a68     LIBCMT:throw_bad_alloc.obj
 0003:00000a98       ??_R0?AVbad_exception@std@@@8 0000000180083a98     libvcruntime:frame.obj
 0003:00000ac0       ??_R0?AV?$shared_ptr@VError@@@std@@@8 0000000180083ac0     template.obj
 0003:00000af0       ??_R0?AV?$_Ptr_base@VError@@@std@@@8 0000000180083af0     template.obj
 0003:00000b20       __imp_?GetCurrent@Isolate@v8@@SAPEAV12@XZ 0000000180083b20     node:node.exe
 0003:00000b28       __imp_??1HandleScope@v8@@QEAA@XZ 0000000180083b28     node:node.exe
 0003:00000b30       __imp_??0HandleScope@v8@@QEAA@PEAVIsolate@1@@Z 0000000180083b30     node:node.exe
 0003:00000b38       __imp_node_module_register 0000000180083b38     node:node.exe
 0003:00000b40       __imp_?GetCurrentContext@Isolate@v8@@QEAA?AV?$Local@VContext@v8@@@2@XZ 0000000180083b40     node:node.exe
 0003:00000b48       __imp_?ToLocalEmpty@V8@v8@@CAXXZ 0000000180083b48     node:node.exe
 0003:00000b50       __imp_?NewFromUtf8@String@v8@@SA?AV?$MaybeLocal@VString@v8@@@2@PEAVIsolate@2@PEBDW4NewStringType@2@H@Z 0000000180083b50     node:node.exe
 0003:00000b58       __imp_?New@Number@v8@@SA?AV?$Local@VNumber@v8@@@2@PEAVIsolate@2@N@Z 0000000180083b58     node:node.exe
 0003:00000b60       __imp_?ForceSet@Object@v8@@QEAA?AV?$Maybe@_N@2@V?$Local@VContext@v8@@@2@V?$Local@VValue@v8@@@2@1W4PropertyAttribute@2@@Z 0000000180083b60     node:node.exe
 0003:00000b68       __imp_?New@Array@v8@@SA?AV?$Local@VArray@v8@@@2@PEAVIsolate@2@H@Z 0000000180083b68     node:node.exe
 0003:00000b70       __imp_?Value@Boolean@v8@@QEBA_NXZ 0000000180083b70     node:node.exe
 0003:00000b78       __imp_?Uint32Value@Value@v8@@QEBAIXZ 0000000180083b78     node:node.exe
 0003:00000b80       __imp_?ToNumber@Value@v8@@QEBA?AV?$MaybeLocal@VNumber@v8@@@2@V?$Local@VContext@v8@@@2@@Z 0000000180083b80     node:node.exe
 0003:00000b88       __imp_?IsNumber@Value@v8@@QEBA_NXZ 0000000180083b88     node:node.exe
 0003:00000b90       __imp_?IsBoolean@Value@v8@@QEBA_NXZ 0000000180083b90     node:node.exe
 0003:00000b98       __imp_?IsObject@Value@v8@@QEBA_NXZ 0000000180083b98     node:node.exe
 0003:00000ba0       __imp_?IsArray@Value@v8@@QEBA_NXZ 0000000180083ba0     node:node.exe
 0003:00000ba8       __imp_?Escape@EscapableHandleScope@v8@@AEAAPEAPEAVObject@internal@2@PEAPEAV342@@Z 0000000180083ba8     node:node.exe
 0003:00000bb0       __imp_??0EscapableHandleScope@v8@@QEAA@PEAVIsolate@1@@Z 0000000180083bb0     node:node.exe
 0003:00000bb8       __imp_??1Utf8Value@String@v8@@QEAA@XZ 0000000180083bb8     node:node.exe
 0003:00000bc0       __imp_??0Utf8Value@String@v8@@QEAA@V?$Local@VValue@v8@@@2@@Z 0000000180083bc0     node:node.exe
 0003:00000bc8       __imp_?New@Object@v8@@SA?AV?$Local@VObject@v8@@@2@PEAVIsolate@2@@Z 0000000180083bc8     node:node.exe
 0003:00000bd0       __imp_?Get@Object@v8@@QEAA?AV?$Local@VValue@v8@@@2@V32@@Z 0000000180083bd0     node:node.exe
 0003:00000bd8       __imp_?Get@Object@v8@@QEAA?AV?$Local@VValue@v8@@@2@I@Z 0000000180083bd8     node:node.exe
 0003:00000be0       __imp_?Set@Object@v8@@QEAA_NV?$Local@VValue@v8@@@2@0@Z 0000000180083be0     node:node.exe
 0003:00000be8       __imp_?Set@Object@v8@@QEAA_NIV?$Local@VValue@v8@@@2@@Z 0000000180083be8     node:node.exe
 0003:00000bf0       __imp_?HasInstance@Buffer@node@@YA_NV?$Local@VValue@v8@@@v8@@@Z 0000000180083bf0     node:node.exe
 0003:00000bf8       __imp_?Data@Buffer@node@@YAPEADV?$Local@VValue@v8@@@v8@@@Z 0000000180083bf8     node:node.exe
 0003:00000c00       __imp_?Copy@Buffer@node@@YA?AV?$MaybeLocal@VObject@v8@@@v8@@PEAVIsolate@4@PEBD_K@Z 0000000180083c00     node:node.exe
 0003:00000c08       __imp_?Length@Buffer@node@@YA_KV?$Local@VValue@v8@@@v8@@@Z 0000000180083c08     node:node.exe
 0003:00000c10       __imp_?ToObject@Value@v8@@QEBA?AV?$Local@VObject@v8@@@2@XZ 0000000180083c10     node:node.exe
 0003:00000c18       __imp_?ToBoolean@Value@v8@@QEBA?AV?$Local@VBoolean@v8@@@2@XZ 0000000180083c18     node:node.exe
 0003:00000c20       __imp_??1EscapableHandleScope@v8@@QEAA@XZ 0000000180083c20     node:node.exe
 0003:00000c28       __imp_?HasInstance@Buffer@node@@YA_NV?$Local@VObject@v8@@@v8@@@Z 0000000180083c28     node:node.exe
 0003:00000c30       __imp_?Data@Buffer@node@@YAPEADV?$Local@VObject@v8@@@v8@@@Z 0000000180083c30     node:node.exe
 0003:00000c38       __imp_?Length@Buffer@node@@YA_KV?$Local@VObject@v8@@@v8@@@Z 0000000180083c38     node:node.exe
 0003:00000c40       __imp_?Global@Context@v8@@QEAA?AV?$Local@VObject@v8@@@2@XZ 0000000180083c40     node:node.exe
 0003:00000c48       __imp_?CreateHandle@HandleScope@v8@@KAPEAPEAVObject@internal@2@PEAVIsolate@42@PEAV342@@Z 0000000180083c48     node:node.exe
 0003:00000c50       __imp_?New@Buffer@node@@YA?AV?$MaybeLocal@VObject@v8@@@v8@@PEAVIsolate@4@_K@Z 0000000180083c50     node:node.exe
 0003:00000c58       __imp_?MakeCallback@node@@YA?AV?$Local@VValue@v8@@@v8@@PEAVIsolate@3@V?$Local@VObject@v8@@@3@V?$Local@VFunction@v8@@@3@HPEAV23@@Z 0000000180083c58     node:node.exe
 0003:00000c60       __imp_uv_queue_work        0000000180083c60     node:node.exe
 0003:00000c68       __imp_?Value@External@v8@@QEBAPEAXXZ 0000000180083c68     node:node.exe
 0003:00000c70       __imp_?New@External@v8@@SA?AV?$Local@VExternal@v8@@@2@PEAVIsolate@2@PEAX@Z 0000000180083c70     node:node.exe
 0003:00000c78       __imp_?NewFromUnsigned@Integer@v8@@SA?AV?$Local@VInteger@v8@@@2@PEAVIsolate@2@I@Z 0000000180083c78     node:node.exe
 0003:00000c80       __imp_?New@Integer@v8@@SA?AV?$Local@VInteger@v8@@@2@PEAVIsolate@2@H@Z 0000000180083c80     node:node.exe
 0003:00000c88       __imp_?New@Signature@v8@@SA?AV?$Local@VSignature@v8@@@2@PEAVIsolate@2@V?$Local@VFunctionTemplate@v8@@@2@@Z 0000000180083c88     node:node.exe
 0003:00000c90       __imp_?ThrowException@Isolate@v8@@QEAA?AV?$Local@VValue@v8@@@2@V32@@Z 0000000180083c90     node:node.exe
 0003:00000c98       __imp_?CreateHandle@HandleScope@v8@@CAPEAPEAVObject@internal@2@PEAVHeapObject@42@PEAV342@@Z 0000000180083c98     node:node.exe
 0003:00000ca0       __imp_?Set@Template@v8@@QEAAXV?$Local@VName@v8@@@2@V?$Local@VData@v8@@@2@W4PropertyAttribute@2@@Z 0000000180083ca0     node:node.exe
 0003:00000ca8       __imp_?Error@Exception@v8@@SA?AV?$Local@VValue@v8@@@2@V?$Local@VString@v8@@@2@@Z 0000000180083ca8     node:node.exe
 0003:00000cb0       __imp_?TypeError@Exception@v8@@SA?AV?$Local@VValue@v8@@@2@V?$Local@VString@v8@@@2@@Z 0000000180083cb0     node:node.exe
 0003:00000cb8       __imp_?SetClassName@FunctionTemplate@v8@@QEAAXV?$Local@VString@v8@@@2@@Z 0000000180083cb8     node:node.exe
 0003:00000cc0       __imp_?PrototypeTemplate@FunctionTemplate@v8@@QEAA?AV?$Local@VObjectTemplate@v8@@@2@XZ 0000000180083cc0     node:node.exe
 0003:00000cc8       __imp_?InstanceTemplate@FunctionTemplate@v8@@QEAA?AV?$Local@VObjectTemplate@v8@@@2@XZ 0000000180083cc8     node:node.exe
 0003:00000cd0       __imp_?GetFunction@FunctionTemplate@v8@@QEAA?AV?$Local@VFunction@v8@@@2@XZ 0000000180083cd0     node:node.exe
 0003:00000cd8       __imp_?GetFunction@FunctionTemplate@v8@@QEAA?AV?$MaybeLocal@VFunction@v8@@@2@V?$Local@VContext@v8@@@2@@Z 0000000180083cd8     node:node.exe
 0003:00000ce0       __imp_?New@FunctionTemplate@v8@@SA?AV?$Local@VFunctionTemplate@v8@@@2@PEAVIsolate@2@P6AXAEBV?$FunctionCallbackInfo@VValue@v8@@@2@@ZV?$Local@VValue@v8@@@2@V?$Local@VSignature@v8@@@2@H@Z 0000000180083ce0     node:node.exe
 0003:00000ce8       __imp_?ClearWeak@V8@v8@@CAPEAXPEAPEAVObject@internal@2@@Z 0000000180083ce8     node:node.exe
 0003:00000cf0       __imp_?MakeWeak@V8@v8@@CAXPEAPEAVObject@internal@2@PEAXP6AXAEBV?$WeakCallbackInfo@X@2@@ZW4WeakCallbackType@2@@Z 0000000180083cf0     node:node.exe
 0003:00000cf8       __imp_?DisposeGlobal@V8@v8@@CAXPEAPEAVObject@internal@2@@Z 0000000180083cf8     node:node.exe
 0003:00000d00       __imp_?GlobalizeReference@V8@v8@@CAPEAPEAVObject@internal@2@PEAVIsolate@42@PEAPEAV342@@Z 0000000180083d00     node:node.exe
 0003:00000d08       __imp_?ToInt32@Value@v8@@QEBA?AV?$MaybeLocal@VInt32@v8@@@2@V?$Local@VContext@v8@@@2@@Z 0000000180083d08     node:node.exe
 0003:00000d10       __imp_?ToUint32@Value@v8@@QEBA?AV?$MaybeLocal@VUint32@v8@@@2@V?$Local@VContext@v8@@@2@@Z 0000000180083d10     node:node.exe
 0003:00000d18       __imp_?IsFunction@Value@v8@@QEBA_NXZ 0000000180083d18     node:node.exe
 0003:00000d20       __imp_?Concat@String@v8@@SA?AV?$Local@VString@v8@@@2@V32@0@Z 0000000180083d20     node:node.exe
 0003:00000d28       __imp_?SlowGetAlignedPointerFromInternalField@Object@v8@@AEAAPEAXH@Z 0000000180083d28     node:node.exe
 0003:00000d30       __imp_?SlowGetInternalField@Object@v8@@AEAA?AV?$Local@VValue@v8@@@2@H@Z 0000000180083d30     node:node.exe
 0003:00000d38       __imp_?SetAlignedPointerInInternalField@Object@v8@@QEAAXHPEAX@Z 0000000180083d38     node:node.exe
 0003:00000d40       __imp_?SetInternalField@Object@v8@@QEAAXHV?$Local@VValue@v8@@@2@@Z 0000000180083d40     node:node.exe
 0003:00000d48       __imp_?InternalFieldCount@Object@v8@@QEAAHXZ 0000000180083d48     node:node.exe
 0003:00000d50       __imp_?NewInstance@Function@v8@@QEBA?AV?$MaybeLocal@VObject@v8@@@2@V?$Local@VContext@v8@@@2@HQEAV?$Local@VValue@v8@@@2@@Z 0000000180083d50     node:node.exe
 0003:00000d58       __imp_?SetInternalFieldCount@ObjectTemplate@v8@@QEAAXH@Z 0000000180083d58     node:node.exe
 0003:00000d60       __imp_?NewInstance@ObjectTemplate@v8@@QEAA?AV?$MaybeLocal@VObject@v8@@@2@V?$Local@VContext@v8@@@2@@Z 0000000180083d60     node:node.exe
 0003:00000d68       __imp_?New@ObjectTemplate@v8@@SA?AV?$Local@VObjectTemplate@v8@@@2@PEAVIsolate@2@V?$Local@VFunctionTemplate@v8@@@2@@Z 0000000180083d68     node:node.exe
 0003:00000d70       __imp_uv_default_loop      0000000180083d70     node:node.exe
 0003:00000d78       __imp_?ToString@Value@v8@@QEBA?AV?$Local@VString@v8@@@2@XZ 0000000180083d78     node:node.exe
 0003:00000d80       \177node_NULL_THUNK_DATA_DLA 0000000180083d80     node:node.exe
 0003:00000d90       __hmod__node_exe           0000000180083d90     node:node.exe
 0003:00000de0       __scrt_current_native_startup_state 0000000180083de0     LIBCMT:utility.obj
 0003:00000de8       __scrt_native_startup_lock 0000000180083de8     LIBCMT:utility.obj
 0003:000013a0       __scrt_debugger_hook_flag  00000001800843a0     LIBCMT:utility_desktop.obj
 0003:000013a4       _tls_index                 00000001800843a4     LIBCMT:tlssup.obj
 0003:000013a8       __favor                    00000001800843a8     LIBCMT:_cpu_disp_.obj
 0003:000013b0       ?__type_info_root_node@@3U__type_info_node@@A 00000001800843b0     LIBCMT:tncleanup.obj
 0003:000013c0       ?_OptionsStorage@?1??__local_stdio_scanf_options@@9@4_KA 00000001800843c0     LIBCMT:default_local_stdio_options.obj
 0003:000013c8       ?g_OutOfMemoryExceptionCallback@@3P6APEAXXZEA 00000001800843c8     libvcruntime:frame.obj
 0003:000014b8       __pPurecall                00000001800844b8     libvcruntime:purevirt_data.obj
 0003:000014f0       ?pArgList@UnDecorator@@0PEAVReplicator@@EA 00000001800844f0     libvcruntime:undname.obj
 0003:000014f8       ?pZNameList@UnDecorator@@0PEAVReplicator@@EA 00000001800844f8     libvcruntime:undname.obj
 0003:00001500       ?pTemplateArgList@UnDecorator@@0PEAVReplicator@@EA 0000000180084500     libvcruntime:undname.obj
 0003:00001508       ?gName@UnDecorator@@0PEBDEB 0000000180084508     libvcruntime:undname.obj
 0003:00001510       ?name@UnDecorator@@0PEBDEB 0000000180084510     libvcruntime:undname.obj
 0003:00001518       ?outputString@UnDecorator@@0PEADEA 0000000180084518     libvcruntime:undname.obj
 0003:00001520       ?maxStringLength@UnDecorator@@0HA 0000000180084520     libvcruntime:undname.obj
 0003:00001524       ?disableFlags@UnDecorator@@0KA 0000000180084524     libvcruntime:undname.obj
 0003:00001528       ?fExplicitTemplateParams@UnDecorator@@0_NA 0000000180084528     libvcruntime:undname.obj
 0003:00001529       ?fGetTemplateArgumentList@UnDecorator@@0_NA 0000000180084529     libvcruntime:undname.obj
 0003:00001530       ?m_pGetParameter@UnDecorator@@0P6APEADJ@ZEA 0000000180084530     libvcruntime:undname.obj
 0003:00001698       _environ_table             0000000180084698     libucrt:environment_initialization.obj
 0003:000016a0       _wenviron_table            00000001800846a0     libucrt:environment_initialization.obj
 0003:000016a8       __dcrt_initial_wide_environment 00000001800846a8     libucrt:environment_initialization.obj
 0003:000016b0       __dcrt_initial_narrow_environment 00000001800846b0     libucrt:environment_initialization.obj
 0003:000016b8       __acrt_atexit_table        00000001800846b8     libucrt:onexit.obj
 0003:000016d0       __acrt_at_quick_exit_table 00000001800846d0     libucrt:onexit.obj
 0003:000016e8       _nstream                   00000001800846e8     libucrt:_file.obj
 0003:000016f0       __piob                     00000001800846f0     libucrt:_file.obj
 0003:000016f8       _cflush                    00000001800846f8     libucrt:_file.obj
 0003:00001708       __acrt_stdout_buffer       0000000180084708     libucrt:_sftbuf.obj
 0003:00001710       __acrt_stderr_buffer       0000000180084710     libucrt:_sftbuf.obj
 0003:00001718       __acrt_locale_changed_data 0000000180084718     libucrt:wsetlocale.obj
 0003:00001720       __acrt_current_locale_data 0000000180084720     libucrt:nlsdata.obj
 0003:00001730       __pioinfo                  0000000180084730     libucrt:ioinit.obj
 0003:00001b30       _nhandle                   0000000180084b30     libucrt:ioinit.obj
 0003:00001f14       __mbcodepage               0000000180084f14     libucrt:mbctype.obj
 0003:00001f18       __ismbcodepage             0000000180084f18     libucrt:mbctype.obj
 0003:00001f20       __mbulinfo                 0000000180084f20     libucrt:mbctype.obj
 0003:00001f30       __mblocalename             0000000180084f30     libucrt:mbctype.obj
 0003:00001f3c       __argc                     0000000180084f3c     libucrt:argv_data.obj
 0003:00001f40       __argv                     0000000180084f40     libucrt:argv_data.obj
 0003:00001f48       __wargv                    0000000180084f48     libucrt:argv_data.obj
 0003:00001f50       _acmdln                    0000000180084f50     libucrt:argv_data.obj
 0003:00001f58       _wcmdln                    0000000180084f58     libucrt:argv_data.obj
 0003:00001f60       _pgmptr                    0000000180084f60     libucrt:argv_data.obj
 0003:00001f68       __acrt_heap                0000000180084f68     libucrt:heap_handle.obj
 0003:00001f7c       __acrt_lconv_static_null   0000000180084f7c     libucrt:localeconv.obj
 0003:00001f80       __acrt_lconv_static_W_null 0000000180084f80     libucrt:localeconv.obj
 0003:00001f84       __fma3_is_available        0000000180084f84     libucrt:fma3_available.obj
 0003:00001f88       __use_fma3_lib             0000000180084f88     libucrt:fma3_available.obj
 0003:00001f90       ?DloadKernel32@@3PEAUHINSTANCE__@@EA 0000000180084f90     DelayImp:delayhlp.obj
 0003:00001f98       ?DloadAcquireSRWLockExclusive@@3P6AXPEA_K@ZEA 0000000180084f98     DelayImp:delayhlp.obj
 0003:00001fa0       ?DloadReleaseSRWLockExclusive@@3P6AXPEA_K@ZEA 0000000180084fa0     DelayImp:delayhlp.obj
 0003:00001fa8       ?DloadSrwLock@@3_KA        0000000180084fa8     DelayImp:delayhlp.obj
 0003:00001fb0       ?DloadSectionLockCount@@3KA 0000000180084fb0     DelayImp:delayhlp.obj
 0003:00001fb4       ?DloadSectionOldProtection@@3KA 0000000180084fb4     DelayImp:delayhlp.obj
 0003:00001fb8       ?DloadSectionCommitPermanent@@3KA 0000000180084fb8     DelayImp:delayhlp.obj
 0003:00001fc0       ?_OptionsStorage@?1??__local_stdio_printf_options@@9@4_KA 0000000180084fc0     dl.obj
 0003:00002010       ?my_constructor@?1??constructor@WPKCS11@@KAAEAV?$Persistent@VFunction@v8@@V?$NonCopyablePersistentTraits@VFunction@v8@@@2@@Nan@@XZ@4V34@A 0000000180085010     node.obj
 0003:00002018       ?$TSS0@?1??constructor@WPKCS11@@KAAEAV?$Persistent@VFunction@v8@@V?$NonCopyablePersistentTraits@VFunction@v8@@@2@@Nan@@XZ@4HA 0000000180085018     node.obj
 0003:00002020       __dyn_tls_init_callback    0000000180085020     <common>
 0003:00002028       __scrt_ucrt_dll_is_in_use  0000000180085028     <common>
 0006:00000000       _tls_start                 000000018008b000     LIBCMT:tlssup.obj
 0006:00000004       _Init_thread_epoch         000000018008b004     LIBCMT:thread_safe_statics.obj
 0006:00000008       _tls_end                   000000018008b008     LIBCMT:tlssup.obj

 entry point at        0001:0003dcf0

 Static symbols

 0000:fff72000       .debug$S                   0000000180000000     node:node.exe
 0000:fff72000       .debug$S                   0000000180000000     node:node.exe
 0000:fff72000       .debug$S                   0000000180000000     node:node.exe
 0000:fff72000       .debug$S                   0000000180000000     node:node.exe
 0000:fff72000       .debug$S                   0000000180000000     node:node.exe
 0000:fff72000       .debug$S                   0000000180000000     node:node.exe
 0000:fff72000       .debug$S                   0000000180000000     node:node.exe
 0000:fff72000       .debug$S                   0000000180000000     node:node.exe
 0000:fff72000       .debug$S                   0000000180000000     node:node.exe
 0000:fff72000       .debug$S                   0000000180000000     node:node.exe
 0000:fff72000       .debug$S                   0000000180000000     node:node.exe
 0000:fff72000       .debug$S                   0000000180000000     node:node.exe
 0000:fff72000       .debug$S                   0000000180000000     node:node.exe
 0000:fff72000       .debug$S                   0000000180000000     node:node.exe
 0000:fff72000       .debug$S                   0000000180000000     node:node.exe
 0000:fff72000       .debug$S                   0000000180000000     node:node.exe
 0000:fff72000       .debug$S                   0000000180000000     node:node.exe
 0000:fff72000       .debug$S                   0000000180000000     node:node.exe
 0000:fff72000       .debug$S                   0000000180000000     node:node.exe
 0000:fff72000       .debug$S                   0000000180000000     node:node.exe
 0000:fff72000       .debug$S                   0000000180000000     node:node.exe
 0000:fff72000       .debug$S                   0000000180000000     node:node.exe
 0000:fff72000       .debug$S                   0000000180000000     node:node.exe
 0000:fff72000       .debug$S                   0000000180000000     node:node.exe
 0000:fff72000       .debug$S                   0000000180000000     node:node.exe
 0000:fff72000       .debug$S                   0000000180000000     node:node.exe
 0000:fff72000       .debug$S                   0000000180000000     node:node.exe
 0000:fff72000       .debug$S                   0000000180000000     node:node.exe
 0000:fff72000       .debug$S                   0000000180000000     node:node.exe
 0000:fff72000       .debug$S                   0000000180000000     node:node.exe
 0000:fff72000       .debug$S                   0000000180000000     node:node.exe
 0000:fff72000       .debug$S                   0000000180000000     node:node.exe
 0000:fff72000       .debug$S                   0000000180000000     node:node.exe
 0000:fff72000       .debug$S                   0000000180000000     node:node.exe
 0000:fff72000       .debug$S                   0000000180000000     node:node.exe
 0000:fff72000       .debug$S                   0000000180000000     node:node.exe
 0000:fff72000       .debug$S                   0000000180000000     node:node.exe
 0000:fff72000       .debug$S                   0000000180000000     node:node.exe
 0000:fff72000       .debug$S                   0000000180000000     node:node.exe
 0000:fff72000       .debug$S                   0000000180000000     node:node.exe
 0000:fff72000       .debug$S                   0000000180000000     node:node.exe
 0000:fff72000       .debug$S                   0000000180000000     node:node.exe
 0000:fff72000       .debug$S                   0000000180000000     node:node.exe
 0000:fff72000       .debug$S                   0000000180000000     node:node.exe
 0000:fff72000       .debug$S                   0000000180000000     node:node.exe
 0000:fff72000       .debug$S                   0000000180000000     pkcs11.exp
 0000:fff72000       .debug$S                   0000000180000000     node:node.exe
 0000:fff72000       .debug$S                   0000000180000000     node:node.exe
 0000:fff72000       .debug$S                   0000000180000000     node:node.exe
 0000:fff72000       .debug$S                   0000000180000000     node:node.exe
 0000:fff72000       .debug$S                   0000000180000000     node:node.exe
 0000:fff72000       .debug$S                   0000000180000000     node:node.exe
 0000:fff72000       .debug$S                   0000000180000000     node:node.exe
 0000:fff72000       .debug$S                   0000000180000000     node:node.exe
 0000:fff72000       .debug$S                   0000000180000000     node:node.exe
 0000:fff72000       .debug$S                   0000000180000000     node:node.exe
 0000:fff72000       .debug$S                   0000000180000000     node:node.exe
 0000:fff72000       .debug$S                   0000000180000000     node:node.exe
 0000:fff72000       .debug$S                   0000000180000000     node:node.exe
 0000:fff72000       .debug$S                   0000000180000000     node:node.exe
 0000:fff72000       .debug$S                   0000000180000000     node:node.exe
 0000:fff72000       .debug$S                   0000000180000000     node:node.exe
 0000:fff72000       .debug$S                   0000000180000000     kernel32:KERNEL32.dll
 0000:fff72000       .debug$S                   0000000180000000     kernel32:KERNEL32.dll
 0000:fff72000       .debug$S                   0000000180000000     node:node.exe
 0000:fff72000       .debug$S                   0000000180000000     kernel32:KERNEL32.dll
 0000:fff72000       .debug$S                   0000000180000000     kernel32:KERNEL32.dll
 0000:fff72000       .debug$S                   0000000180000000     node:node.exe
 0000:fff72000       .debug$S                   0000000180000000     kernel32:KERNEL32.dll
 0000:fff72000       .debug$S                   0000000180000000     kernel32:KERNEL32.dll
 0000:fff72000       .debug$S                   0000000180000000     node:node.exe
 0000:fff72000       .debug$S                   0000000180000000     kernel32:KERNEL32.dll
 0000:fff72000       .debug$S                   0000000180000000     kernel32:KERNEL32.dll
 0000:fff72000       .debug$S                   0000000180000000     node:node.exe
 0000:fff72000       .debug$S                   0000000180000000     kernel32:KERNEL32.dll
 0000:fff72000       .debug$S                   0000000180000000     kernel32:KERNEL32.dll
 0000:fff72000       .debug$S                   0000000180000000     node:node.exe
 0000:fff72000       .debug$S                   0000000180000000     kernel32:KERNEL32.dll
 0000:fff72000       .debug$S                   0000000180000000     node:node.exe
 0000:fff72000       .debug$S                   0000000180000000     kernel32:KERNEL32.dll
 0000:fff72000       .debug$S                   0000000180000000     kernel32:KERNEL32.dll
 0000:fff72000       .debug$S                   0000000180000000     kernel32:KERNEL32.dll
 0000:fff72000       .debug$S                   0000000180000000     kernel32:KERNEL32.dll
 0000:fff72000       .debug$S                   0000000180000000     kernel32:KERNEL32.dll
 0000:fff72000       .debug$S                   0000000180000000     kernel32:KERNEL32.dll
 0000:fff72000       .debug$S                   0000000180000000     kernel32:KERNEL32.dll
 0000:fff72000       .debug$S                   0000000180000000     kernel32:KERNEL32.dll
 0000:fff72000       .debug$S                   0000000180000000     kernel32:KERNEL32.dll
 0000:fff72000       .debug$S                   0000000180000000     kernel32:KERNEL32.dll
 0000:fff72000       .debug$S                   0000000180000000     kernel32:KERNEL32.dll
 0000:fff72000       .debug$S                   0000000180000000     kernel32:KERNEL32.dll
 0000:fff72000       .debug$S                   0000000180000000     kernel32:KERNEL32.dll
 0000:fff72000       .debug$S                   0000000180000000     kernel32:KERNEL32.dll
 0000:fff72000       .debug$S                   0000000180000000     kernel32:KERNEL32.dll
 0000:fff72000       .debug$S                   0000000180000000     kernel32:KERNEL32.dll
 0000:fff72000       .debug$S                   0000000180000000     kernel32:KERNEL32.dll
 0000:fff72000       .debug$S                   0000000180000000     kernel32:KERNEL32.dll
 0000:fff72000       .debug$S                   0000000180000000     kernel32:KERNEL32.dll
 0000:fff72000       .debug$S                   0000000180000000     kernel32:KERNEL32.dll
 0000:fff72000       .debug$S                   0000000180000000     node:node.exe
 0000:fff72000       .debug$S                   0000000180000000     kernel32:KERNEL32.dll
 0000:fff72000       .debug$S                   0000000180000000     kernel32:KERNEL32.dll
 0000:fff72000       .debug$S                   0000000180000000     kernel32:KERNEL32.dll
 0000:fff72000       .debug$S                   0000000180000000     kernel32:KERNEL32.dll
 0000:fff72000       .debug$S                   0000000180000000     kernel32:KERNEL32.dll
 0000:fff72000       .debug$S                   0000000180000000     node:node.exe
 0000:fff72000       .debug$S                   0000000180000000     kernel32:KERNEL32.dll
 0000:fff72000       .debug$S                   0000000180000000     kernel32:KERNEL32.dll
 0000:fff72000       .debug$S                   0000000180000000     kernel32:KERNEL32.dll
 0000:fff72000       .debug$S                   0000000180000000     kernel32:KERNEL32.dll
 0000:fff72000       .debug$S                   0000000180000000     kernel32:KERNEL32.dll
 0000:fff72000       .debug$S                   0000000180000000     kernel32:KERNEL32.dll
 0000:fff72000       .debug$S                   0000000180000000     kernel32:KERNEL32.dll
 0000:fff72000       .debug$S                   0000000180000000     kernel32:KERNEL32.dll
 0000:fff72000       .debug$S                   0000000180000000     node:node.exe
 0000:fff72000       .debug$S                   0000000180000000     kernel32:KERNEL32.dll
 0000:fff72000       .debug$S                   0000000180000000     kernel32:KERNEL32.dll
 0000:fff72000       .debug$S                   0000000180000000     node:node.exe
 0000:fff72000       .debug$S                   0000000180000000     kernel32:KERNEL32.dll
 0000:fff72000       .debug$S                   0000000180000000     node:node.exe
 0000:fff72000       .debug$S                   0000000180000000     kernel32:KERNEL32.dll
 0000:fff72000       .debug$S                   0000000180000000     node:node.exe
 0000:fff72000       .debug$S                   0000000180000000     node:node.exe
 0000:fff72000       .debug$S                   0000000180000000     kernel32:KERNEL32.dll
 0000:fff72000       .debug$S                   0000000180000000     kernel32:KERNEL32.dll
 0000:fff72000       .debug$S                   0000000180000000     node:node.exe
 0000:fff72000       .debug$S                   0000000180000000     kernel32:KERNEL32.dll
 0000:fff72000       .debug$S                   0000000180000000     kernel32:KERNEL32.dll
 0000:fff72000       .debug$S                   0000000180000000     kernel32:KERNEL32.dll
 0000:fff72000       .debug$S                   0000000180000000     kernel32:KERNEL32.dll
 0000:fff72000       .debug$S                   0000000180000000     kernel32:KERNEL32.dll
 0000:fff72000       .debug$S                   0000000180000000     node:node.exe
 0000:fff72000       .debug$S                   0000000180000000     kernel32:KERNEL32.dll
 0000:fff72000       .debug$S                   0000000180000000     kernel32:KERNEL32.dll
 0000:fff72000       .debug$S                   0000000180000000     kernel32:KERNEL32.dll
 0000:fff72000       .debug$S                   0000000180000000     kernel32:KERNEL32.dll
 0000:fff72000       .debug$S                   0000000180000000     kernel32:KERNEL32.dll
 0000:fff72000       .debug$S                   0000000180000000     kernel32:KERNEL32.dll
 0000:fff72000       .debug$S                   0000000180000000     kernel32:KERNEL32.dll
 0000:fff72000       .debug$S                   0000000180000000     kernel32:KERNEL32.dll
 0000:fff72000       .debug$S                   0000000180000000     kernel32:KERNEL32.dll
 0000:fff72000       .debug$S                   0000000180000000     kernel32:KERNEL32.dll
 0000:fff72000       .debug$S                   0000000180000000     kernel32:KERNEL32.dll
 0000:fff72000       .debug$S                   0000000180000000     node:node.exe
 0000:fff72000       .debug$S                   0000000180000000     kernel32:KERNEL32.dll
 0000:fff72000       .debug$S                   0000000180000000     kernel32:KERNEL32.dll
 0000:fff72000       .debug$S                   0000000180000000     node:node.exe
 0000:fff72000       .debug$S                   0000000180000000     kernel32:KERNEL32.dll
 0000:fff72000       .debug$S                   0000000180000000     kernel32:KERNEL32.dll
 0000:fff72000       .debug$S                   0000000180000000     node:node.exe
 0000:fff72000       .debug$S                   0000000180000000     kernel32:KERNEL32.dll
 0000:fff72000       .debug$S                   0000000180000000     kernel32:KERNEL32.dll
 0000:fff72000       .debug$S                   0000000180000000     node:node.exe
 0000:fff72000       .debug$S                   0000000180000000     kernel32:KERNEL32.dll
 0000:fff72000       .debug$S                   0000000180000000     kernel32:KERNEL32.dll
 0000:fff72000       .debug$S                   0000000180000000     kernel32:KERNEL32.dll
 0000:fff72000       .debug$S                   0000000180000000     kernel32:KERNEL32.dll
 0000:fff72000       .debug$S                   0000000180000000     node:node.exe
 0000:fff72000       .debug$S                   0000000180000000     kernel32:KERNEL32.dll
 0000:fff72000       .debug$S                   0000000180000000     kernel32:KERNEL32.dll
 0000:fff72000       .debug$S                   0000000180000000     node:node.exe
 0000:fff72000       .debug$S                   0000000180000000     kernel32:KERNEL32.dll
 0000:fff72000       .debug$S                   0000000180000000     node:node.exe
 0000:fff72000       .debug$S                   0000000180000000     kernel32:KERNEL32.dll
 0000:fff72000       .debug$S                   0000000180000000     node:node.exe
 0000:fff72000       .debug$S                   0000000180000000     kernel32:KERNEL32.dll
 0000:fff72000       .debug$S                   0000000180000000     kernel32:KERNEL32.dll
 0000:fff72000       .debug$S                   0000000180000000     node:node.exe
 0000:fff72000       .debug$S                   0000000180000000     kernel32:KERNEL32.dll
 0000:fff72000       .debug$S                   0000000180000000     kernel32:KERNEL32.dll
 0000:fff72000       .debug$S                   0000000180000000     kernel32:KERNEL32.dll
 0000:fff72000       .debug$S                   0000000180000000     kernel32:KERNEL32.dll
 0000:fff72000       .debug$S                   0000000180000000     kernel32:KERNEL32.dll
 0000:fff72000       .debug$S                   0000000180000000     kernel32:KERNEL32.dll
 0000:fff72000       .debug$S                   0000000180000000     node:node.exe
 0000:fff72000       .debug$S                   0000000180000000     kernel32:KERNEL32.dll
 0000:fff72000       .debug$S                   0000000180000000     kernel32:KERNEL32.dll
 0000:fff72000       .debug$S                   0000000180000000     node:node.exe
 0000:fff72000       .debug$S                   0000000180000000     kernel32:KERNEL32.dll
 0000:fff72000       .debug$S                   0000000180000000     kernel32:KERNEL32.dll
 0000:fff72000       .debug$S                   0000000180000000     node:node.exe
 0000:fff72000       .debug$S                   0000000180000000     kernel32:KERNEL32.dll
 0000:fff72000       .debug$S                   0000000180000000     node:node.exe
 0000:fff72000       .debug$S                   0000000180000000     kernel32:KERNEL32.dll
 0000:fff72000       .debug$S                   0000000180000000     kernel32:KERNEL32.dll
 0000:fff72000       .debug$S                   0000000180000000     node:node.exe
 0000:fff72000       .debug$S                   0000000180000000     kernel32:KERNEL32.dll
 0000:fff72000       .debug$S                   0000000180000000     kernel32:KERNEL32.dll
 0001:000000b0       _register_pkcs11           00000001800010b0 f   main.obj
 0001:00000130       UTF8toWCHAR                0000000180001130 f   dl.obj
 0001:00011220       ?attr_set_value@@YAXPEAUCK_ATTRIBUTE@@PEBDI@Z 0000000180012220 f   template.obj
 0001:00011280       ?v2c_ATTRIBUTE@@YA?AV?$shared_ptr@UCK_ATTRIBUTE@@@std@@V?$Local@VValue@v8@@@v8@@@Z 0000000180012280 f   template.obj
 0001:00011910       ?c2v_ATTRIBUTE@@YA?AV?$Local@VObject@v8@@@v8@@PEAUCK_ATTRIBUTE@@@Z 0000000180012910 f   template.obj
 0001:00016180       ?get_pkcs11_error@@YA?AV?$shared_ptr@V?$basic_string@DU?$char_traits@D@std@@V?$allocator@D@2@@std@@@std@@K@Z 0000000180017180 f   pkcs11.obj
 0001:00019270       $LN3733                    000000018001a270     pkcs11.obj
 0001:0001936c       $LN3732                    000000018001a36c     pkcs11.obj
 0001:00019460       $LN3731                    000000018001a460     pkcs11.obj
 0001:000194a0       $LN3730                    000000018001a4a0     pkcs11.obj
 0001:00019500       $LN3729                    000000018001a500     pkcs11.obj
 0001:00019520       $LN3728                    000000018001a520     pkcs11.obj
 0001:0001c680       ?crypto_init@@YAXP6AKKPEAUCK_MECHANISM@@K@ZKV?$shared_ptr@VMechanism@@@std@@K@Z 000000018001d680 f   pkcs11.obj
 0001:0001c7f0       ?crypto_update@@YA?AV?$shared_ptr@V?$basic_string@DU?$char_traits@D@std@@V?$allocator@D@2@@std@@@std@@P6AKKPEAEK0PEAK@ZKV12@3@Z 000000018001d7f0 f   pkcs11.obj
 0001:0001ca10       ?crypto_update@@YAXP6AKKPEAEK@ZKV?$shared_ptr@V?$basic_string@DU?$char_traits@D@std@@V?$allocator@D@2@@std@@@std@@@Z 000000018001da10 f   pkcs11.obj
 0001:0001cb90       ?crypto_final@@YA?AV?$shared_ptr@V?$basic_string@DU?$char_traits@D@std@@V?$allocator@D@2@@std@@@std@@P6AKKPEAEPEAK@ZKV12@@Z 000000018001db90 f   pkcs11.obj
 0001:0001ff40       ?handle_to_v8@@YA?AV?$Local@VObject@v8@@@v8@@K@Z 0000000180020f40 f   async.obj
 0001:0001ff40       ?handle_to_v8@@YA?AV?$Local@VObject@v8@@@v8@@K@Z 0000000180020f40 f   node.obj
 0001:000210c0       ?FunctionCallbackWrapper@imp@Nan@@YAXAEBV?$FunctionCallbackInfo@VValue@v8@@@v8@@@Z 00000001800220c0 f   node.obj
 0001:000232e0       ?buffer_to_string@@YA?AV?$shared_ptr@V?$basic_string@DU?$char_traits@D@std@@V?$allocator@D@2@@std@@@std@@V?$Local@VValue@v8@@@v8@@@Z 00000001800242e0 f   node.obj
 0001:000233e0       ?v8_to_handle@@YAKV?$Local@VValue@v8@@@v8@@@Z 00000001800243e0 f   node.obj
 0001:00023540       ?get_string@@YA?AV?$shared_ptr@V?$basic_string@DU?$char_traits@D@std@@V?$allocator@D@2@@std@@@std@@V?$Local@VValue@v8@@@v8@@PEBD@Z 0000000180024540 f   node.obj
 0001:000237a0       ?GetVersion@@YA?AV?$Local@VObject@v8@@@v8@@AEAUCK_VERSION@@@Z 00000001800247a0 f   node.obj
 0001:0003cb40       ?load_exe_hook@@YAP6A_JXZIPEAUDelayLoadInfo@@@Z 000000018003db40 f   win_delay_load_hook.obj
 0001:0003d210       $$000000                   000000018003e210     LIBCMT:_amdsecgs_.obj
 0001:0003d2c4       ?__scrt_initialize_thread_safe_statics@@YAHXZ 000000018003e2c4 f   LIBCMT:thread_safe_statics.obj
 0001:0003d3e4       ?__scrt_uninitialize_thread_safe_statics@@YAXXZ 000000018003e3e4 f   LIBCMT:thread_safe_statics.obj
 0001:0003d9a4       ?dllmain_crt_dispatch@@YAHQEAUHINSTANCE__@@KQEAX@Z 000000018003e9a4 f   LIBCMT:dll_dllmain.obj
 0001:0003d9f4       ?dllmain_crt_process_attach@@YAHQEAUHINSTANCE__@@QEAX@Z 000000018003e9f4 f   LIBCMT:dll_dllmain.obj
 0001:0003db20       ?dllmain_crt_process_detach@@YAH_N@Z 000000018003eb20 f   LIBCMT:dll_dllmain.obj
 0001:0003dba4       ?dllmain_dispatch@@YAHQEAUHINSTANCE__@@KQEAX@Z 000000018003eba4 f   LIBCMT:dll_dllmain.obj
 0001:0003dc9c       ?dllmain_raw@@YAHQEAUHINSTANCE__@@KQEAX@Z 000000018003ec9c f   LIBCMT:dll_dllmain.obj
 0001:0003dee8       capture_current_context    000000018003eee8 f   LIBCMT:gs_report.obj
 0001:0003df58       capture_previous_context   000000018003ef58 f   LIBCMT:gs_report.obj
 0001:0003e64c       ?CatchIt@@YAXPEAUEHExceptionRecord@@PEA_KPEAU_CONTEXT@@PEAU_xDISPATCHER_CONTEXT@@PEBU_s_FuncInfo@@PEBU_s_HandlerType@@PEBU_s_CatchableType@@PEBU_s_TryBlockMapEntry@@H1EE@Z 000000018003f64c f   libvcruntime:frame.obj
 0001:0003e710       ?ExFilterRethrow@@YAHPEAU_EXCEPTION_POINTERS@@PEAUEHExceptionRecord@@PEAH@Z 000000018003f710 f   libvcruntime:frame.obj
 0001:0003e798       ?FindHandler@@YAXPEAUEHExceptionRecord@@PEA_KPEAU_CONTEXT@@PEAU_xDISPATCHER_CONTEXT@@PEBU_s_FuncInfo@@EH1@Z 000000018003f798 f   libvcruntime:frame.obj
 0001:0003ec68       ?FindHandlerForForeignException@@YAXPEAUEHExceptionRecord@@PEA_KPEAU_CONTEXT@@PEAU_xDISPATCHER_CONTEXT@@PEBU_s_FuncInfo@@HH1@Z 000000018003fc68 f   libvcruntime:frame.obj
 0001:0003eed4       ?IsInExceptionSpec@@YAEPEAUEHExceptionRecord@@PEBU_s_ESTypeList@@@Z 000000018003fed4 f   libvcruntime:frame.obj
 0001:0003fa00       $$000000                   0000000180040a00     libvcruntime:memcpy.obj
 0001:0003faa7       MoveSmall                  0000000180040aa7     libvcruntime:memcpy.obj
 0001:00040014       ?try_get_function@@YAPEAXW4function_id@?A0x679b24ab@@QEBDQEBW4module_id@2@2@Z 0000000180041014 f   libvcruntime:winapi_downlevel.obj
 0001:000406d0       $$000000                   00000001800416d0     libvcruntime:memset.obj
 0001:000407bc       MsetTab                    00000001800417bc     libvcruntime:memset.obj
 0001:00040b90       $$000000                   0000000180041b90     libvcruntime:handlers.obj
 0001:00041290       $$000000                   0000000180042290     libvcruntime:_jmpuwind_.obj
 0001:00041928       ??R<lambda_dd75445284c072d0bd3768540cc698fa>@@QEBAHXZ 0000000180042928 f   libucrt:output.obj
 0001:000447e8       ??$common_assert_to_message_box@_W@@YAXQEB_W0IQEAX@Z 00000001800457e8 f   libucrt:assert.obj
 0001:000448ac       ??$common_assert_to_message_box_build_string@_W@@YAXQEA_W_KQEB_W2IQEAX@Z 00000001800458ac f   libucrt:assert.obj
 0001:00045080       ??$common_assert_to_stderr@_W@@YAXQEB_W0I@Z 0000000180046080 f   libucrt:assert.obj
 0001:000451f0       ?get_assert_format@@YAPEB_W_W@Z 00000001800461f0 f   libucrt:assert.obj
 0001:0004566c       ?atexit_exception_filter@@YAHK@Z 000000018004666c f   libucrt:exit.obj
 0001:00045678       ?common_exit@@YAXHW4_crt_exit_cleanup_mode@@W4_crt_exit_return_mode@@@Z 0000000180046678 f   libucrt:exit.obj
 0001:000457e4       ?exit_or_terminate_process@@YAXI@Z 00000001800467e4 f   libucrt:exit.obj
 0001:00045830       ?try_cor_exit_process@@YAXI@Z 0000000180046830 f   libucrt:exit.obj
 0001:000458c8       ??$parse_command_line@D@@YAXPEADPEAPEAD0PEA_K2@Z 00000001800468c8 f   libucrt:argv_parsing.obj
 0001:00045c60       ??$common_initialize_environment_nolock@D@@YAHXZ 0000000180046c60 f   libucrt:environment_initialization.obj
 0001:00045ccc       ??$create_environment@D@@YAQEAPEADQEAD@Z 0000000180046ccc f   libucrt:environment_initialization.obj
 0001:00045dc8       ??$free_environment@D@@YAXQEAPEAD@Z 0000000180046dc8 f   libucrt:environment_initialization.obj
 0001:00045dc8       ??$free_environment@_W@@YAXQEAPEA_W@Z 0000000180046dc8 f   libucrt:environment_initialization.obj
 0001:00045e0c       ??$uninitialize_environment_internal@D@@YAXAEAPEAPEAD@Z 0000000180046e0c f   libucrt:environment_initialization.obj
 0001:00045e28       ??$uninitialize_environment_internal@_W@@YAXAEAPEAPEA_W@Z 0000000180046e28 f   libucrt:environment_initialization.obj
 0001:00046060       ??R<lambda_4e60a939b0d047cfe11ddc22648dfba9>@@QEBAHXZ 0000000180047060 f   libucrt:onexit.obj
 0001:00046310       initialize_global_variables 0000000180047310 f   libucrt:initialization.obj
 0001:00046324       initialize_c               0000000180047324 f   libucrt:initialization.obj
 0001:00046348       uninitialize_global_state_isolation 0000000180047348 f   libucrt:initialization.obj
 0001:00046348       initialize_global_state_isolation 0000000180047348 f   libucrt:initialization.obj
 0001:00046348       initialize_environment     0000000180047348 f   libucrt:initialization.obj
 0001:00046348       report_memory_leaks        0000000180047348 f   libucrt:initialization.obj
 0001:00046348       uninitialize_c             0000000180047348 f   libucrt:initialization.obj
 0001:0004634c       uninitialize_environment   000000018004734c f   libucrt:initialization.obj
 0001:0004635c       initialize_pointers        000000018004735c f   libucrt:initialization.obj
 0001:000463b0       uninitialize_vcruntime     00000001800473b0 f   libucrt:initialization.obj
 0001:000463b8       uninitialize_allocated_memory 00000001800473b8 f   libucrt:initialization.obj
 0001:000471e8       ?internal_isupper_l@@YA_NHQEAU__crt_locale_pointers@@@Z 00000001800481e8 f   libucrt:tolower_toupper.obj
 0001:00047c4c       ?construct_ptd_array@@YAXQEAU__acrt_ptd@@@Z 0000000180048c4c f   libucrt:per_thread_data.obj
 0001:00047d1c       ?destroy_fls@@YAXPEAX@Z    0000000180048d1c f   libucrt:per_thread_data.obj
 0001:00047d3c       ?destroy_ptd_array@@YAXQEAU__acrt_ptd@@@Z 0000000180048d3c f   libucrt:per_thread_data.obj
 0001:00047e34       ?replace_current_thread_locale_nolock@@YAXQEAU__acrt_ptd@@QEAU__crt_locale_data@@@Z 0000000180048e34 f   libucrt:per_thread_data.obj
 0001:00048144       ?fp_format_a@@YAHQEBNPEAD_KQEAD2H_NIQEAU__crt_locale_pointers@@@Z 0000000180049144 f   libucrt:cvt.obj
 0001:000484a4       ?fp_format_e@@YAHQEBNQEAD_K12H_NIQEAU__crt_locale_pointers@@@Z 00000001800494a4 f   libucrt:cvt.obj
 0001:00048574       ?fp_format_e_internal@@YAHQEAD_KH_NIQEAU_strflt@@2QEAU__crt_locale_pointers@@@Z 0000000180049574 f   libucrt:cvt.obj
 0001:00048750       ?fp_format_f_internal@@YAHQEAD_KHQEAU_strflt@@_NQEAU__crt_locale_pointers@@@Z 0000000180049750 f   libucrt:cvt.obj
 0001:00048898       ?fp_format_g@@YAHQEBNQEAD_K12H_NIQEAU__crt_locale_pointers@@@Z 0000000180049898 f   libucrt:cvt.obj
 0001:000489d0       ?fp_format_nan_or_infinity@@YAHW4__acrt_fp_class@@_NPEAD_K1@Z 00000001800499d0 f   libucrt:cvt.obj
 0001:00049234       ?initialize_inherited_file_handles_nolock@@YAXXZ 000000018004a234 f   libucrt:ioinit.obj
 0001:00049320       ?initialize_stdio_handles_nolock@@YAXXZ 000000018004a320 f   libucrt:ioinit.obj
 0001:00049524       ??$common_xtox@K_W@@YAHKQEA_W_KI_N@Z 000000018004a524 f   libucrt:xtoa.obj
 0001:000495d0       ??$common_xtox_s@K_W@@YAHKQEA_W_KI_N@Z 000000018004a5d0 f   libucrt:xtoa.obj
 0001:00049894       ??$message_box_wait_thread@_W@@YAKQEAX@Z 000000018004a894 f   libucrt:crtmbox.obj
 0001:00049aa8       common_flush_all           000000018004aaa8 f   libucrt:fflush.obj
 0001:00049c10       ??R<lambda_b721fa326cdb32351d23dfa67958c160>@@QEBAHXZ 000000018004ac10 f   libucrt:setvbuf.obj
 0001:0004a18c       ?try_get_function@@YAPEAXW4function_id@?A0x63058377@@QEBDQEBW4module_id@2@2@Z 000000018004b18c f   libucrt:winapi_thunks.obj
 0001:0004a9b8       ?<helper_func_cdecl>@<lambda_2feae5270eb4d0d5532525f423405775>@@CAHPEBX0@Z 000000018004b9b8 f   libucrt:argv_wildcards.obj
 0001:0004a9cc       ??$common_expand_argv_wildcards@D@@YAHQEAPEADQEAPEAPEAD@Z 000000018004b9cc f   libucrt:argv_wildcards.obj
 0001:0004abd8       ??$copy_and_add_argument_to_buffer@D@@YAHQEBD0_KAEAV?$argument_list@D@?A0xca0879c4@@@Z 000000018004bbd8 f   libucrt:argv_wildcards.obj
 0001:0004ace8       ??$expand_argument_wildcards@D@@YAHQEAD0AEAV?$argument_list@D@?A0xca0879c4@@@Z 000000018004bce8 f   libucrt:argv_wildcards.obj
 0001:0004af9c       ??R<lambda_ad1ced32f4ac17aa236e5ef05d6b3b7c>@@QEBAXXZ 000000018004bf9c f   libucrt:mbctype.obj
 0001:0004b1b4       ?getSystemCP@@YAHH@Z       000000018004c1b4 f   libucrt:mbctype.obj
 0001:0004b234       ?setSBCS@@YAXPEAU__crt_multibyte_data@@@Z 000000018004c234 f   libucrt:mbctype.obj
 0001:0004b2c4       ?setSBUpLow@@YAXPEAU__crt_multibyte_data@@@Z 000000018004c2c4 f   libucrt:mbctype.obj
 0001:0004b4a8       ?setmbcp_internal@@YAHH_N@Z 000000018004c4a8 f   libucrt:mbctype.obj
 0001:0004b9f0       ?x_ismbbtype_l@@YAHPEAU__crt_locale_pointers@@IHH@Z 000000018004c9f0 f   libucrt:ismbbyte.obj
 0001:0004bfbc       ?__acrt_LCMapStringA_stat@@YAHPEAU__crt_locale_pointers@@PEB_WKPEBDHPEADHHH@Z 000000018004cfbc f   libucrt:lcmapstringa.obj
 0001:0004e0bc       memcpy_s                   000000018004f0bc f   libucrt:cfout.obj
 0001:0004e144       ??$write_buffer_nolock@D@@YA_NDV__crt_stdio_stream@@@Z 000000018004f144 f   libucrt:_flsbuf.obj
 0001:0004e248       ??$write_buffer_nolock@_W@@YA_N_WV__crt_stdio_stream@@@Z 000000018004f248 f   libucrt:_flsbuf.obj
 0001:0004e7f4       ?free_crt_array_internal@@YAXQEAPEBX_K@Z 000000018004f7f4 f   libucrt:inittime.obj
 0001:0004ef44       ?write_double_translated_ansi_nolock@@YA?AUwrite_result@?A0x9c548279@@HQEBDI@Z 000000018004ff44 f   libucrt:write.obj
 0001:0004f14c       ?write_text_ansi_nolock@@YA?AUwrite_result@?A0x9c548279@@HQEBDI@Z 000000018005014c f   libucrt:write.obj
 0001:0004f254       ?write_text_utf16le_nolock@@YA?AUwrite_result@?A0x9c548279@@HQEBDI@Z 0000000180050254 f   libucrt:write.obj
 0001:0004f370       ?write_text_utf8_nolock@@YA?AUwrite_result@?A0x9c548279@@HQEBDI@Z 0000000180050370 f   libucrt:write.obj
 0001:0004f8b4       ?GetTableIndexFromLocaleName@@YAHPEB_W@Z 00000001800508b4 f   libucrt:lcidtoname_downlevel.obj
 0001:0004f9b0       ?shortsort@@YAXPEAD0_KP6AHPEBX2@Z@Z 00000001800509b0 f   libucrt:qsort.obj
 0001:0004ffc8       ?initialize_multibyte@@YAHXZ 0000000180050fc8 f   libucrt:multibyte_initializer.obj
 0001:000501c0       $$000000                   00000001800511c0     libucrt:log10.obj
 0001:0005076c       ??$common_lseek@_J@@YA_JH_JH@Z 000000018005176c f   libucrt:lseek.obj
 0001:0005085c       ??$common_lseek_nolock@_J@@YA_JH_JH@Z 000000018005185c f   libucrt:lseek.obj
 0001:00050be8       common_control87           0000000180051be8 f   libucrt:ieee.obj
 0001:00050e80       _call_matherr              0000000180051e80 f   libucrt:libm_error.obj
 0001:00050ee8       _exception_enabled         0000000180051ee8 f   libucrt:libm_error.obj
 0001:00051180       _log_special_common        0000000180052180 f   libucrt:log_special.obj
 0001:00051490       $$000000                   0000000180052490     libucrt:fpsr.obj
 0001:00052140       $$000000                   0000000180053140     LIBCMT:_chkstk_.obj
 0001:000522f0       $$000000                   00000001800532f0     libvcruntime:memcmp.obj
 0001:00052450       $$000000                   0000000180053450     LIBCMT:_guard_dispatch_.obj
 0001:00052470       ?dtor$0@?0??init@@YAXV?$Local@VObject@v8@@@v8@@@Z@4HA 0000000180053470 f   main.obj
 0001:00052470       ?dtor$0@?0??ThrowTypeError@Nan@@YAXV?$Local@VString@v8@@@v8@@@Z@4HA 0000000180053470 f   node.obj
 0001:00052470       ?dtor$0@?0??WorkComplete@AsyncWorker@Nan@@UEAAXXZ@4HA 0000000180053470 f   node.obj
 0001:00052470       ?dtor$0@?0??HandleOKCallback@AsyncWorker@Nan@@MEAAXXZ@4HA 0000000180053470 f   node.obj
 0001:00052480       ?dtor$0@?0??ForceSet@Nan@@YA?AV?$Maybe@_N@v8@@V?$Local@VObject@v8@@@3@V?$Local@VValue@v8@@@3@1W4PropertyAttribute@3@@Z@4HA 0000000180053480 f   const.obj
 0001:00052490       ?dtor$0@?0??ToString@Error@@QEAA?AV?$shared_ptr@V?$basic_string@DU?$char_traits@D@std@@V?$allocator@D@2@@std@@@std@@XZ@4HA 0000000180053490 f   error.obj
 0001:000524ad       ?dtor$1@?0??ToString@Error@@QEAA?AV?$shared_ptr@V?$basic_string@DU?$char_traits@D@std@@V?$allocator@D@2@@std@@@std@@XZ@4HA 00000001800534ad f   error.obj
 0001:000524d3       ?dtor$2@?0??ToString@Error@@QEAA?AV?$shared_ptr@V?$basic_string@DU?$char_traits@D@std@@V?$allocator@D@2@@std@@@std@@XZ@4HA 00000001800534d3 f   error.obj
 0001:000524e0       ?dtor$0@?0??Stack@Error@@IEAA?AV?$shared_ptr@V?$basic_string@DU?$char_traits@D@std@@V?$allocator@D@2@@std@@@std@@XZ@4HA 00000001800534e0 f   error.obj
 0001:000524fd       ?dtor$1@?0??Stack@Error@@IEAA?AV?$shared_ptr@V?$basic_string@DU?$char_traits@D@std@@V?$allocator@D@2@@std@@@std@@XZ@4HA 00000001800534fd f   error.obj
 0001:00052523       ?dtor$2@?0??Stack@Error@@IEAA?AV?$shared_ptr@V?$basic_string@DU?$char_traits@D@std@@V?$allocator@D@2@@std@@@std@@XZ@4HA 0000000180053523 f   error.obj
 0001:0005252f       ?dtor$3@?0??Stack@Error@@IEAA?AV?$shared_ptr@V?$basic_string@DU?$char_traits@D@std@@V?$allocator@D@2@@std@@@std@@XZ@4HA 000000018005352f f   error.obj
 0001:0005253b       ?dtor$4@?0??Stack@Error@@IEAA?AV?$shared_ptr@V?$basic_string@DU?$char_traits@D@std@@V?$allocator@D@2@@std@@@std@@XZ@4HA 000000018005353b f   error.obj
 0001:00052547       ?dtor$5@?0??Stack@Error@@IEAA?AV?$shared_ptr@V?$basic_string@DU?$char_traits@D@std@@V?$allocator@D@2@@std@@@std@@XZ@4HA 0000000180053547 f   error.obj
 0001:00052553       ?dtor$6@?0??Stack@Error@@IEAA?AV?$shared_ptr@V?$basic_string@DU?$char_traits@D@std@@V?$allocator@D@2@@std@@@std@@XZ@4HA 0000000180053553 f   error.obj
 0001:00052560       ?dtor$0@?0??GetFunction@Nan@@YA?AV?$MaybeLocal@VFunction@v8@@@v8@@V?$Local@VFunctionTemplate@v8@@@3@@Z@4HA 0000000180053560 f   node.obj
 0001:00052560       ?dtor$0@?0??NewInstance@Nan@@YA?AV?$MaybeLocal@VObject@v8@@@v8@@V?$Local@VObjectTemplate@v8@@@3@@Z@4HA 0000000180053560 f   node.obj
 0001:00052560       ?dtor$0@?0??convert@?$ToFactory@VInt32@v8@@@imp@Nan@@SA?AV?$MaybeLocal@VInt32@v8@@@v8@@V?$Local@VValue@v8@@@5@@Z@4HA 0000000180053560 f   node.obj
 0001:00052560       ?dtor$0@?0??convert@?$ToFactory@VUint32@v8@@@imp@Nan@@SA?AV?$MaybeLocal@VUint32@v8@@@v8@@V?$Local@VValue@v8@@@5@@Z@4HA 0000000180053560 f   node.obj
 0001:00052560       ?dtor$0@?0??convert@?$ToFactory@VNumber@v8@@@imp@Nan@@SA?AV?$MaybeLocal@VNumber@v8@@@v8@@V?$Local@VValue@v8@@@5@@Z@4HA 0000000180053560 f   template.obj
 0001:00052570       ?dtor$0@?0???0Error@@QEAA@PEBDV?$shared_ptr@VError@@@std@@0H@Z@4HA 0000000180053570 f   template.obj
 0001:0005257c       ?dtor$1@?0???0Error@@QEAA@PEBDV?$shared_ptr@VError@@@std@@0H@Z@4HA 000000018005357c f   template.obj
 0001:00052588       ?dtor$2@?0???0Error@@QEAA@PEBDV?$shared_ptr@VError@@@std@@0H@Z@4HA 0000000180053588 f   template.obj
 0001:000525a5       ?dtor$3@?0???0Error@@QEAA@PEBDV?$shared_ptr@VError@@@std@@0H@Z@4HA 00000001800535a5 f   template.obj
 0001:000525b5       ?dtor$4@?0???0Error@@QEAA@PEBDV?$shared_ptr@VError@@@std@@0H@Z@4HA 00000001800535b5 f   template.obj
 0001:000525e0       ?dtor$0@?0??v2c_ATTRIBUTE@@YA?AV?$shared_ptr@UCK_ATTRIBUTE@@@std@@V?$Local@VValue@v8@@@v8@@@Z@4HA 00000001800535e0 f   template.obj
 0001:00052600       ?dtor$2@?0??v2c_ATTRIBUTE@@YA?AV?$shared_ptr@UCK_ATTRIBUTE@@@std@@V?$Local@VValue@v8@@@v8@@@Z@4HA 0000000180053600 f   template.obj
 0001:00052620       ?dtor$4@?0??v2c_ATTRIBUTE@@YA?AV?$shared_ptr@UCK_ATTRIBUTE@@@std@@V?$Local@VValue@v8@@@v8@@@Z@4HA 0000000180053620 f   template.obj
 0001:00052640       ?dtor$6@?0??v2c_ATTRIBUTE@@YA?AV?$shared_ptr@UCK_ATTRIBUTE@@@std@@V?$Local@VValue@v8@@@v8@@@Z@4HA 0000000180053640 f   template.obj
 0001:0005264c       ?dtor$7@?0??v2c_ATTRIBUTE@@YA?AV?$shared_ptr@UCK_ATTRIBUTE@@@std@@V?$Local@VValue@v8@@@v8@@@Z@4HA 000000018005364c f   template.obj
 0001:0005265a       ?catch$23@?0??v2c_ATTRIBUTE@@YA?AV?$shared_ptr@UCK_ATTRIBUTE@@@std@@V?$Local@VValue@v8@@@v8@@@Z@4HA 000000018005365a f   template.obj
 0001:00052667       __catch$?v2c_ATTRIBUTE@@YA?AV?$shared_ptr@UCK_ATTRIBUTE@@@std@@V?$Local@VValue@v8@@@v8@@@Z$0 0000000180053667 f   template.obj
 0001:00052695       ?dtor$9@?0??v2c_ATTRIBUTE@@YA?AV?$shared_ptr@UCK_ATTRIBUTE@@@std@@V?$Local@VValue@v8@@@v8@@@Z@4HA 0000000180053695 f   template.obj
 0001:000526a1       ?catch$24@?0??v2c_ATTRIBUTE@@YA?AV?$shared_ptr@UCK_ATTRIBUTE@@@std@@V?$Local@VValue@v8@@@v8@@@Z@4HA 00000001800536a1 f   template.obj
 0001:000526b1       __catch$?v2c_ATTRIBUTE@@YA?AV?$shared_ptr@UCK_ATTRIBUTE@@@std@@V?$Local@VValue@v8@@@v8@@@Z$1 00000001800536b1 f   template.obj
 0001:000527a5       ?dtor$10@?0??v2c_ATTRIBUTE@@YA?AV?$shared_ptr@UCK_ATTRIBUTE@@@std@@V?$Local@VValue@v8@@@v8@@@Z@4HA 00000001800537a5 f   template.obj
 0001:000527d0       ?dtor$1@?0??c2v_ATTRIBUTE@@YA?AV?$Local@VObject@v8@@@v8@@PEAUCK_ATTRIBUTE@@@Z@4HA 00000001800537d0 f   template.obj
 0001:000527f0       ?catch$12@?0??c2v_ATTRIBUTE@@YA?AV?$Local@VObject@v8@@@v8@@PEAUCK_ATTRIBUTE@@@Z@4HA 00000001800537f0 f   template.obj
 0001:000527fd       __catch$?c2v_ATTRIBUTE@@YA?AV?$Local@VObject@v8@@@v8@@PEAUCK_ATTRIBUTE@@@Z$0 00000001800537fd f   template.obj
 0001:0005282b       ?dtor$3@?0??c2v_ATTRIBUTE@@YA?AV?$Local@VObject@v8@@@v8@@PEAUCK_ATTRIBUTE@@@Z@4HA 000000018005382b f   template.obj
 0001:00052837       ?catch$13@?0??c2v_ATTRIBUTE@@YA?AV?$Local@VObject@v8@@@v8@@PEAUCK_ATTRIBUTE@@@Z@4HA 0000000180053837 f   template.obj
 0001:00052847       __catch$?c2v_ATTRIBUTE@@YA?AV?$Local@VObject@v8@@@v8@@PEAUCK_ATTRIBUTE@@@Z$1 0000000180053847 f   template.obj
 0001:00052923       ?dtor$4@?0??c2v_ATTRIBUTE@@YA?AV?$Local@VObject@v8@@@v8@@PEAUCK_ATTRIBUTE@@@Z@4HA 0000000180053923 f   template.obj
 0001:00052950       ?dtor$0@?0??Push@Attributes@@QEAAXPEAUCK_ATTRIBUTE@@@Z@4HA 0000000180053950 f   template.obj
 0001:00052970       ?catch$10@?0??Push@Attributes@@QEAAXPEAUCK_ATTRIBUTE@@@Z@4HA 0000000180053970 f   template.obj
 0001:0005297d       __catch$?Push@Attributes@@QEAAXPEAUCK_ATTRIBUTE@@@Z$0 000000018005397d f   template.obj
 0001:000529ab       ?dtor$2@?0??Push@Attributes@@QEAAXPEAUCK_ATTRIBUTE@@@Z@4HA 00000001800539ab f   template.obj
 0001:000529b7       ?catch$9@?0??Push@Attributes@@QEAAXPEAUCK_ATTRIBUTE@@@Z@4HA 00000001800539b7 f   template.obj
 0001:000529c7       __catch$?Push@Attributes@@QEAAXPEAUCK_ATTRIBUTE@@@Z$1 00000001800539c7 f   template.obj
 0001:00052aa6       ?dtor$3@?0??Push@Attributes@@QEAAXPEAUCK_ATTRIBUTE@@@Z@4HA 0000000180053aa6 f   template.obj
 0001:00052ad0       ?dtor$1@?0??FromV8@Attributes@@UEAAXV?$Local@VValue@v8@@@v8@@@Z@4HA 0000000180053ad0 f   template.obj
 0001:00052af0       ?dtor$3@?0??FromV8@Attributes@@UEAAXV?$Local@VValue@v8@@@v8@@@Z@4HA 0000000180053af0 f   template.obj
 0001:00052afc       ?catch$14@?0??FromV8@Attributes@@UEAAXV?$Local@VValue@v8@@@v8@@@Z@4HA 0000000180053afc f   template.obj
 0001:00052b09       __catch$?FromV8@Attributes@@UEAAXV?$Local@VValue@v8@@@v8@@@Z$0 0000000180053b09 f   template.obj
 0001:00052b37       ?dtor$4@?0??FromV8@Attributes@@UEAAXV?$Local@VValue@v8@@@v8@@@Z@4HA 0000000180053b37 f   template.obj
 0001:00052b43       ?catch$15@?0??FromV8@Attributes@@UEAAXV?$Local@VValue@v8@@@v8@@@Z@4HA 0000000180053b43 f   template.obj
 0001:00052b53       __catch$?FromV8@Attributes@@UEAAXV?$Local@VValue@v8@@@v8@@@Z$1 0000000180053b53 f   template.obj
 0001:00052c35       ?dtor$5@?0??FromV8@Attributes@@UEAAXV?$Local@VValue@v8@@@v8@@@Z@4HA 0000000180053c35 f   template.obj
 0001:00052c60       ?catch$8@?0??ToV8@Attributes@@UEAA?AV?$Local@VObject@v8@@@v8@@XZ@4HA 0000000180053c60 f   template.obj
 0001:00052c6d       __catch$?ToV8@Attributes@@UEAA?AV?$Local@VObject@v8@@@v8@@XZ$0 0000000180053c6d f   template.obj
 0001:00052c95       ?dtor$1@?0??ToV8@Attributes@@UEAA?AV?$Local@VObject@v8@@@v8@@XZ@4HA 0000000180053c95 f   template.obj
 0001:00052ca1       ?catch$9@?0??ToV8@Attributes@@UEAA?AV?$Local@VObject@v8@@@v8@@XZ@4HA 0000000180053ca1 f   template.obj
 0001:00052cb1       __catch$?ToV8@Attributes@@UEAA?AV?$Local@VObject@v8@@@v8@@XZ$1 0000000180053cb1 f   template.obj
 0001:00052d8a       ?dtor$2@?0??ToV8@Attributes@@UEAA?AV?$Local@VObject@v8@@@v8@@XZ@4HA 0000000180053d8a f   template.obj
 0001:00052db0       ?dtor$1@?0??FromV8@Mechanism@@UEAAXV?$Local@VValue@v8@@@v8@@@Z@4HA 0000000180053db0 f   mech.obj
 0001:00052dd0       ?dtor$3@?0??FromV8@Mechanism@@UEAAXV?$Local@VValue@v8@@@v8@@@Z@4HA 0000000180053dd0 f   mech.obj
 0001:00052ded       ?dtor$5@?0??FromV8@Mechanism@@UEAAXV?$Local@VValue@v8@@@v8@@@Z@4HA 0000000180053ded f   mech.obj
 0001:00052e0a       ?dtor$12@?0??FromV8@Mechanism@@UEAAXV?$Local@VValue@v8@@@v8@@@Z@4HA 0000000180053e0a f   mech.obj
 0001:00052e2a       ?catch$36@?0??FromV8@Mechanism@@UEAAXV?$Local@VValue@v8@@@v8@@@Z@4HA 0000000180053e2a f   mech.obj
 0001:00052e37       __catch$?FromV8@Mechanism@@UEAAXV?$Local@VValue@v8@@@v8@@@Z$0 0000000180053e37 f   mech.obj
 0001:00052e65       ?dtor$14@?0??FromV8@Mechanism@@UEAAXV?$Local@VValue@v8@@@v8@@@Z@4HA 0000000180053e65 f   mech.obj
 0001:00052e71       ?catch$37@?0??FromV8@Mechanism@@UEAAXV?$Local@VValue@v8@@@v8@@@Z@4HA 0000000180053e71 f   mech.obj
 0001:00052e81       __catch$?FromV8@Mechanism@@UEAAXV?$Local@VValue@v8@@@v8@@@Z$1 0000000180053e81 f   mech.obj
 0001:00052f75       ?dtor$15@?0??FromV8@Mechanism@@UEAAXV?$Local@VValue@v8@@@v8@@@Z@4HA 0000000180053f75 f   mech.obj
 0001:00052fa0       ?catch$8@?0??ToV8@Mechanism@@UEAA?AV?$Local@VObject@v8@@@v8@@XZ@4HA 0000000180053fa0 f   mech.obj
 0001:00052fad       __catch$?ToV8@Mechanism@@UEAA?AV?$Local@VObject@v8@@@v8@@XZ$0 0000000180053fad f   mech.obj
 0001:00052fdb       ?dtor$1@?0??ToV8@Mechanism@@UEAA?AV?$Local@VObject@v8@@@v8@@XZ@4HA 0000000180053fdb f   mech.obj
 0001:00052fe7       ?catch$9@?0??ToV8@Mechanism@@UEAA?AV?$Local@VObject@v8@@@v8@@XZ@4HA 0000000180053fe7 f   mech.obj
 0001:00052ff7       __catch$?ToV8@Mechanism@@UEAA?AV?$Local@VObject@v8@@@v8@@XZ$1 0000000180053ff7 f   mech.obj
 0001:000530d3       ?dtor$2@?0??ToV8@Mechanism@@UEAA?AV?$Local@VObject@v8@@@v8@@XZ@4HA 00000001800540d3 f   mech.obj
 0001:00053100       ?dtor$0@?0??ToV8@?$V8Converter@UCK_AES_CCM_PARAMS@@@@UEAA?AV?$Local@VObject@v8@@@v8@@XZ@4HA 0000000180054100 f   mech.obj
 0001:00053100       ?dtor$0@?0??ToV8@?$V8Converter@UCK_RSA_PKCS_PSS_PARAMS@@@@UEAA?AV?$Local@VObject@v8@@@v8@@XZ@4HA 0000000180054100 f   mech.obj
 0001:00053100       ?dtor$0@?0??ToV8@?$V8Converter@UCK_ECDH1_DERIVE_PARAMS@@@@UEAA?AV?$Local@VObject@v8@@@v8@@XZ@4HA 0000000180054100 f   mech.obj
 0001:00053100       ?dtor$0@?0??ToV8@?$V8Converter@UCK_RSA_PKCS_OAEP_PARAMS@@@@UEAA?AV?$Local@VObject@v8@@@v8@@XZ@4HA 0000000180054100 f   mech.obj
 0001:00053100       ?dtor$0@?0??ToV8@?$V8Converter@UCK_AES_GCM_PARAMS@@@@UEAA?AV?$Local@VObject@v8@@@v8@@XZ@4HA 0000000180054100 f   mech.obj
 0001:00053120       ?dtor$1@?0??FromV8@ParamAesCCM@@UEAAXV?$Local@VValue@v8@@@v8@@@Z@4HA 0000000180054120 f   param_aes.obj
 0001:00053140       ?dtor$3@?0??FromV8@ParamAesCCM@@UEAAXV?$Local@VValue@v8@@@v8@@@Z@4HA 0000000180054140 f   param_aes.obj
 0001:0005315d       ?dtor$5@?0??FromV8@ParamAesCCM@@UEAAXV?$Local@VValue@v8@@@v8@@@Z@4HA 000000018005415d f   param_aes.obj
 0001:0005317a       ?dtor$7@?0??FromV8@ParamAesCCM@@UEAAXV?$Local@VValue@v8@@@v8@@@Z@4HA 000000018005417a f   param_aes.obj
 0001:00053197       ?dtor$9@?0??FromV8@ParamAesCCM@@UEAAXV?$Local@VValue@v8@@@v8@@@Z@4HA 0000000180054197 f   param_aes.obj
 0001:000531b4       ?catch$33@?0??FromV8@ParamAesCCM@@UEAAXV?$Local@VValue@v8@@@v8@@@Z@4HA 00000001800541b4 f   param_aes.obj
 0001:000531c1       __catch$?FromV8@ParamAesCCM@@UEAAXV?$Local@VValue@v8@@@v8@@@Z$0 00000001800541c1 f   param_aes.obj
 0001:000531ef       ?dtor$11@?0??FromV8@ParamAesCCM@@UEAAXV?$Local@VValue@v8@@@v8@@@Z@4HA 00000001800541ef f   param_aes.obj
 0001:000531fb       ?catch$34@?0??FromV8@ParamAesCCM@@UEAAXV?$Local@VValue@v8@@@v8@@@Z@4HA 00000001800541fb f   param_aes.obj
 0001:0005320b       __catch$?FromV8@ParamAesCCM@@UEAAXV?$Local@VValue@v8@@@v8@@@Z$1 000000018005420b f   param_aes.obj
 0001:000532ff       ?dtor$12@?0??FromV8@ParamAesCCM@@UEAAXV?$Local@VValue@v8@@@v8@@@Z@4HA 00000001800542ff f   param_aes.obj
 0001:00053320       ?dtor$1@?0??FromV8@ParamAesGCM@@UEAAXV?$Local@VValue@v8@@@v8@@@Z@4HA 0000000180054320 f   param_aes.obj
 0001:00053340       ?dtor$3@?0??FromV8@ParamAesGCM@@UEAAXV?$Local@VValue@v8@@@v8@@@Z@4HA 0000000180054340 f   param_aes.obj
 0001:0005335d       ?dtor$5@?0??FromV8@ParamAesGCM@@UEAAXV?$Local@VValue@v8@@@v8@@@Z@4HA 000000018005435d f   param_aes.obj
 0001:0005337a       ?dtor$7@?0??FromV8@ParamAesGCM@@UEAAXV?$Local@VValue@v8@@@v8@@@Z@4HA 000000018005437a f   param_aes.obj
 0001:00053397       ?dtor$9@?0??FromV8@ParamAesGCM@@UEAAXV?$Local@VValue@v8@@@v8@@@Z@4HA 0000000180054397 f   param_aes.obj
 0001:000533b4       ?catch$33@?0??FromV8@ParamAesGCM@@UEAAXV?$Local@VValue@v8@@@v8@@@Z@4HA 00000001800543b4 f   param_aes.obj
 0001:000533c1       __catch$?FromV8@ParamAesGCM@@UEAAXV?$Local@VValue@v8@@@v8@@@Z$0 00000001800543c1 f   param_aes.obj
 0001:000533ef       ?dtor$11@?0??FromV8@ParamAesGCM@@UEAAXV?$Local@VValue@v8@@@v8@@@Z@4HA 00000001800543ef f   param_aes.obj
 0001:000533fb       ?catch$34@?0??FromV8@ParamAesGCM@@UEAAXV?$Local@VValue@v8@@@v8@@@Z@4HA 00000001800543fb f   param_aes.obj
 0001:0005340b       __catch$?FromV8@ParamAesGCM@@UEAAXV?$Local@VValue@v8@@@v8@@@Z$1 000000018005440b f   param_aes.obj
 0001:000534ff       ?dtor$12@?0??FromV8@ParamAesGCM@@UEAAXV?$Local@VValue@v8@@@v8@@@Z@4HA 00000001800544ff f   param_aes.obj
 0001:00053520       ?dtor$1@?0??FromV8@ParamRsaOAEP@@UEAAXV?$Local@VValue@v8@@@v8@@@Z@4HA 0000000180054520 f   param_rsa.obj
 0001:00053540       ?dtor$3@?0??FromV8@ParamRsaOAEP@@UEAAXV?$Local@VValue@v8@@@v8@@@Z@4HA 0000000180054540 f   param_rsa.obj
 0001:0005355d       ?dtor$5@?0??FromV8@ParamRsaOAEP@@UEAAXV?$Local@VValue@v8@@@v8@@@Z@4HA 000000018005455d f   param_rsa.obj
 0001:0005357a       ?dtor$7@?0??FromV8@ParamRsaOAEP@@UEAAXV?$Local@VValue@v8@@@v8@@@Z@4HA 000000018005457a f   param_rsa.obj
 0001:00053597       ?dtor$9@?0??FromV8@ParamRsaOAEP@@UEAAXV?$Local@VValue@v8@@@v8@@@Z@4HA 0000000180054597 f   param_rsa.obj
 0001:000535b4       ?catch$34@?0??FromV8@ParamRsaOAEP@@UEAAXV?$Local@VValue@v8@@@v8@@@Z@4HA 00000001800545b4 f   param_rsa.obj
 0001:000535c1       __catch$?FromV8@ParamRsaOAEP@@UEAAXV?$Local@VValue@v8@@@v8@@@Z$0 00000001800545c1 f   param_rsa.obj
 0001:000535ef       ?dtor$11@?0??FromV8@ParamRsaOAEP@@UEAAXV?$Local@VValue@v8@@@v8@@@Z@4HA 00000001800545ef f   param_rsa.obj
 0001:000535fb       ?catch$35@?0??FromV8@ParamRsaOAEP@@UEAAXV?$Local@VValue@v8@@@v8@@@Z@4HA 00000001800545fb f   param_rsa.obj
 0001:0005360b       __catch$?FromV8@ParamRsaOAEP@@UEAAXV?$Local@VValue@v8@@@v8@@@Z$1 000000018005460b f   param_rsa.obj
 0001:000536ff       ?dtor$12@?0??FromV8@ParamRsaOAEP@@UEAAXV?$Local@VValue@v8@@@v8@@@Z@4HA 00000001800546ff f   param_rsa.obj
 0001:00053720       ?dtor$1@?0??FromV8@ParamRsaPSS@@UEAAXV?$Local@VValue@v8@@@v8@@@Z@4HA 0000000180054720 f   param_rsa.obj
 0001:00053740       ?dtor$3@?0??FromV8@ParamRsaPSS@@UEAAXV?$Local@VValue@v8@@@v8@@@Z@4HA 0000000180054740 f   param_rsa.obj
 0001:0005375d       ?dtor$5@?0??FromV8@ParamRsaPSS@@UEAAXV?$Local@VValue@v8@@@v8@@@Z@4HA 000000018005475d f   param_rsa.obj
 0001:0005377a       ?dtor$7@?0??FromV8@ParamRsaPSS@@UEAAXV?$Local@VValue@v8@@@v8@@@Z@4HA 000000018005477a f   param_rsa.obj
 0001:00053797       ?catch$30@?0??FromV8@ParamRsaPSS@@UEAAXV?$Local@VValue@v8@@@v8@@@Z@4HA 0000000180054797 f   param_rsa.obj
 0001:000537a4       __catch$?FromV8@ParamRsaPSS@@UEAAXV?$Local@VValue@v8@@@v8@@@Z$0 00000001800547a4 f   param_rsa.obj
 0001:000537d2       ?dtor$9@?0??FromV8@ParamRsaPSS@@UEAAXV?$Local@VValue@v8@@@v8@@@Z@4HA 00000001800547d2 f   param_rsa.obj
 0001:000537de       ?catch$31@?0??FromV8@ParamRsaPSS@@UEAAXV?$Local@VValue@v8@@@v8@@@Z@4HA 00000001800547de f   param_rsa.obj
 0001:000537ee       __catch$?FromV8@ParamRsaPSS@@UEAAXV?$Local@VValue@v8@@@v8@@@Z$1 00000001800547ee f   param_rsa.obj
 0001:000538e2       ?dtor$10@?0??FromV8@ParamRsaPSS@@UEAAXV?$Local@VValue@v8@@@v8@@@Z@4HA 00000001800548e2 f   param_rsa.obj
 0001:00053910       ?dtor$1@?0??FromV8@ParamEcdh1@@UEAAXV?$Local@VValue@v8@@@v8@@@Z@4HA 0000000180054910 f   param_ecdh.obj
 0001:00053930       ?dtor$3@?0??FromV8@ParamEcdh1@@UEAAXV?$Local@VValue@v8@@@v8@@@Z@4HA 0000000180054930 f   param_ecdh.obj
 0001:0005394d       ?dtor$5@?0??FromV8@ParamEcdh1@@UEAAXV?$Local@VValue@v8@@@v8@@@Z@4HA 000000018005494d f   param_ecdh.obj
 0001:0005396a       ?dtor$7@?0??FromV8@ParamEcdh1@@UEAAXV?$Local@VValue@v8@@@v8@@@Z@4HA 000000018005496a f   param_ecdh.obj
 0001:00053987       ?catch$25@?0??FromV8@ParamEcdh1@@UEAAXV?$Local@VValue@v8@@@v8@@@Z@4HA 0000000180054987 f   param_ecdh.obj
 0001:00053994       __catch$?FromV8@ParamEcdh1@@UEAAXV?$Local@VValue@v8@@@v8@@@Z$0 0000000180054994 f   param_ecdh.obj
 0001:000539c2       ?dtor$9@?0??FromV8@ParamEcdh1@@UEAAXV?$Local@VValue@v8@@@v8@@@Z@4HA 00000001800549c2 f   param_ecdh.obj
 0001:000539ce       ?catch$26@?0??FromV8@ParamEcdh1@@UEAAXV?$Local@VValue@v8@@@v8@@@Z@4HA 00000001800549ce f   param_ecdh.obj
 0001:000539de       __catch$?FromV8@ParamEcdh1@@UEAAXV?$Local@VValue@v8@@@v8@@@Z$1 00000001800549de f   param_ecdh.obj
 0001:00053ad2       ?dtor$10@?0??FromV8@ParamEcdh1@@UEAAXV?$Local@VValue@v8@@@v8@@@Z@4HA 0000000180054ad2 f   param_ecdh.obj
 0001:00053b00       ?dtor$0@?0??get_pkcs11_error@@YA?AV?$shared_ptr@V?$basic_string@DU?$char_traits@D@std@@V?$allocator@D@2@@std@@@std@@K@Z@4HA 0000000180054b00 f   pkcs11.obj
 0001:00053b1d       ?dtor$1@?0??get_pkcs11_error@@YA?AV?$shared_ptr@V?$basic_string@DU?$char_traits@D@std@@V?$allocator@D@2@@std@@@std@@K@Z@4HA 0000000180054b1d f   pkcs11.obj
 0001:00053b29       ?dtor$2@?0??get_pkcs11_error@@YA?AV?$shared_ptr@V?$basic_string@DU?$char_traits@D@std@@V?$allocator@D@2@@std@@@std@@K@Z@4HA 0000000180054b29 f   pkcs11.obj
 0001:00053b35       ?dtor$4@?0??get_pkcs11_error@@YA?AV?$shared_ptr@V?$basic_string@DU?$char_traits@D@std@@V?$allocator@D@2@@std@@@std@@K@Z@4HA 0000000180054b35 f   pkcs11.obj
 0001:00053b52       ?dtor$5@?0??get_pkcs11_error@@YA?AV?$shared_ptr@V?$basic_string@DU?$char_traits@D@std@@V?$allocator@D@2@@std@@@std@@K@Z@4HA 0000000180054b52 f   pkcs11.obj
 0001:00053b5e       ?dtor$6@?0??get_pkcs11_error@@YA?AV?$shared_ptr@V?$basic_string@DU?$char_traits@D@std@@V?$allocator@D@2@@std@@@std@@K@Z@4HA 0000000180054b5e f   pkcs11.obj
 0001:00053b6a       ?dtor$7@?0??get_pkcs11_error@@YA?AV?$shared_ptr@V?$basic_string@DU?$char_traits@D@std@@V?$allocator@D@2@@std@@@std@@K@Z@4HA 0000000180054b6a f   pkcs11.obj
 0001:00053b87       ?dtor$8@?0??get_pkcs11_error@@YA?AV?$shared_ptr@V?$basic_string@DU?$char_traits@D@std@@V?$allocator@D@2@@std@@@std@@K@Z@4HA 0000000180054b87 f   pkcs11.obj
 0001:00053b93       ?dtor$9@?0??get_pkcs11_error@@YA?AV?$shared_ptr@V?$basic_string@DU?$char_traits@D@std@@V?$allocator@D@2@@std@@@std@@K@Z@4HA 0000000180054b93 f   pkcs11.obj
 0001:00053b9f       ?dtor$10@?0??get_pkcs11_error@@YA?AV?$shared_ptr@V?$basic_string@DU?$char_traits@D@std@@V?$allocator@D@2@@std@@@std@@K@Z@4HA 0000000180054b9f f   pkcs11.obj
 0001:00053bbc       ?dtor$11@?0??get_pkcs11_error@@YA?AV?$shared_ptr@V?$basic_string@DU?$char_traits@D@std@@V?$allocator@D@2@@std@@@std@@K@Z@4HA 0000000180054bbc f   pkcs11.obj
 0001:00053bc8       ?dtor$12@?0??get_pkcs11_error@@YA?AV?$shared_ptr@V?$basic_string@DU?$char_traits@D@std@@V?$allocator@D@2@@std@@@std@@K@Z@4HA 0000000180054bc8 f   pkcs11.obj
 0001:00053bd4       ?dtor$13@?0??get_pkcs11_error@@YA?AV?$shared_ptr@V?$basic_string@DU?$char_traits@D@std@@V?$allocator@D@2@@std@@@std@@K@Z@4HA 0000000180054bd4 f   pkcs11.obj
 0001:00053bf1       ?dtor$14@?0??get_pkcs11_error@@YA?AV?$shared_ptr@V?$basic_string@DU?$char_traits@D@std@@V?$allocator@D@2@@std@@@std@@K@Z@4HA 0000000180054bf1 f   pkcs11.obj
 0001:00053bfd       ?dtor$15@?0??get_pkcs11_error@@YA?AV?$shared_ptr@V?$basic_string@DU?$char_traits@D@std@@V?$allocator@D@2@@std@@@std@@K@Z@4HA 0000000180054bfd f   pkcs11.obj
 0001:00053c09       ?dtor$16@?0??get_pkcs11_error@@YA?AV?$shared_ptr@V?$basic_string@DU?$char_traits@D@std@@V?$allocator@D@2@@std@@@std@@K@Z@4HA 0000000180054c09 f   pkcs11.obj
 0001:00053c26       ?dtor$17@?0??get_pkcs11_error@@YA?AV?$shared_ptr@V?$basic_string@DU?$char_traits@D@std@@V?$allocator@D@2@@std@@@std@@K@Z@4HA 0000000180054c26 f   pkcs11.obj
 0001:00053c32       ?dtor$18@?0??get_pkcs11_error@@YA?AV?$shared_ptr@V?$basic_string@DU?$char_traits@D@std@@V?$allocator@D@2@@std@@@std@@K@Z@4HA 0000000180054c32 f   pkcs11.obj
 0001:00053c3e       ?dtor$19@?0??get_pkcs11_error@@YA?AV?$shared_ptr@V?$basic_string@DU?$char_traits@D@std@@V?$allocator@D@2@@std@@@std@@K@Z@4HA 0000000180054c3e f   pkcs11.obj
 0001:00053c5b       ?dtor$20@?0??get_pkcs11_error@@YA?AV?$shared_ptr@V?$basic_string@DU?$char_traits@D@std@@V?$allocator@D@2@@std@@@std@@K@Z@4HA 0000000180054c5b f   pkcs11.obj
 0001:00053c67       ?dtor$21@?0??get_pkcs11_error@@YA?AV?$shared_ptr@V?$basic_string@DU?$char_traits@D@std@@V?$allocator@D@2@@std@@@std@@K@Z@4HA 0000000180054c67 f   pkcs11.obj
 0001:00053c73       ?dtor$22@?0??get_pkcs11_error@@YA?AV?$shared_ptr@V?$basic_string@DU?$char_traits@D@std@@V?$allocator@D@2@@std@@@std@@K@Z@4HA 0000000180054c73 f   pkcs11.obj
 0001:00053c90       ?dtor$23@?0??get_pkcs11_error@@YA?AV?$shared_ptr@V?$basic_string@DU?$char_traits@D@std@@V?$allocator@D@2@@std@@@std@@K@Z@4HA 0000000180054c90 f   pkcs11.obj
 0001:00053c9c       ?dtor$24@?0??get_pkcs11_error@@YA?AV?$shared_ptr@V?$basic_string@DU?$char_traits@D@std@@V?$allocator@D@2@@std@@@std@@K@Z@4HA 0000000180054c9c f   pkcs11.obj
 0001:00053ca8       ?dtor$25@?0??get_pkcs11_error@@YA?AV?$shared_ptr@V?$basic_string@DU?$char_traits@D@std@@V?$allocator@D@2@@std@@@std@@K@Z@4HA 0000000180054ca8 f   pkcs11.obj
 0001:00053cc5       ?dtor$26@?0??get_pkcs11_error@@YA?AV?$shared_ptr@V?$basic_string@DU?$char_traits@D@std@@V?$allocator@D@2@@std@@@std@@K@Z@4HA 0000000180054cc5 f   pkcs11.obj
 0001:00053cd1       ?dtor$27@?0??get_pkcs11_error@@YA?AV?$shared_ptr@V?$basic_string@DU?$char_traits@D@std@@V?$allocator@D@2@@std@@@std@@K@Z@4HA 0000000180054cd1 f   pkcs11.obj
 0001:00053cdd       ?dtor$28@?0??get_pkcs11_error@@YA?AV?$shared_ptr@V?$basic_string@DU?$char_traits@D@std@@V?$allocator@D@2@@std@@@std@@K@Z@4HA 0000000180054cdd f   pkcs11.obj
 0001:00053cfa       ?dtor$29@?0??get_pkcs11_error@@YA?AV?$shared_ptr@V?$basic_string@DU?$char_traits@D@std@@V?$allocator@D@2@@std@@@std@@K@Z@4HA 0000000180054cfa f   pkcs11.obj
 0001:00053d06       ?dtor$30@?0??get_pkcs11_error@@YA?AV?$shared_ptr@V?$basic_string@DU?$char_traits@D@std@@V?$allocator@D@2@@std@@@std@@K@Z@4HA 0000000180054d06 f   pkcs11.obj
 0001:00053d12       ?dtor$31@?0??get_pkcs11_error@@YA?AV?$shared_ptr@V?$basic_string@DU?$char_traits@D@std@@V?$allocator@D@2@@std@@@std@@K@Z@4HA 0000000180054d12 f   pkcs11.obj
 0001:00053d2f       ?dtor$32@?0??get_pkcs11_error@@YA?AV?$shared_ptr@V?$basic_string@DU?$char_traits@D@std@@V?$allocator@D@2@@std@@@std@@K@Z@4HA 0000000180054d2f f   pkcs11.obj
 0001:00053d3b       ?dtor$33@?0??get_pkcs11_error@@YA?AV?$shared_ptr@V?$basic_string@DU?$char_traits@D@std@@V?$allocator@D@2@@std@@@std@@K@Z@4HA 0000000180054d3b f   pkcs11.obj
 0001:00053d47       ?dtor$34@?0??get_pkcs11_error@@YA?AV?$shared_ptr@V?$basic_string@DU?$char_traits@D@std@@V?$allocator@D@2@@std@@@std@@K@Z@4HA 0000000180054d47 f   pkcs11.obj
 0001:00053d64       ?dtor$35@?0??get_pkcs11_error@@YA?AV?$shared_ptr@V?$basic_string@DU?$char_traits@D@std@@V?$allocator@D@2@@std@@@std@@K@Z@4HA 0000000180054d64 f   pkcs11.obj
 0001:00053d70       ?dtor$36@?0??get_pkcs11_error@@YA?AV?$shared_ptr@V?$basic_string@DU?$char_traits@D@std@@V?$allocator@D@2@@std@@@std@@K@Z@4HA 0000000180054d70 f   pkcs11.obj
 0001:00053d7c       ?dtor$37@?0??get_pkcs11_error@@YA?AV?$shared_ptr@V?$basic_string@DU?$char_traits@D@std@@V?$allocator@D@2@@std@@@std@@K@Z@4HA 0000000180054d7c f   pkcs11.obj
 0001:00053d99       ?dtor$38@?0??get_pkcs11_error@@YA?AV?$shared_ptr@V?$basic_string@DU?$char_traits@D@std@@V?$allocator@D@2@@std@@@std@@K@Z@4HA 0000000180054d99 f   pkcs11.obj
 0001:00053da5       ?dtor$39@?0??get_pkcs11_error@@YA?AV?$shared_ptr@V?$basic_string@DU?$char_traits@D@std@@V?$allocator@D@2@@std@@@std@@K@Z@4HA 0000000180054da5 f   pkcs11.obj
 0001:00053db1       ?dtor$40@?0??get_pkcs11_error@@YA?AV?$shared_ptr@V?$basic_string@DU?$char_traits@D@std@@V?$allocator@D@2@@std@@@std@@K@Z@4HA 0000000180054db1 f   pkcs11.obj
 0001:00053dce       ?dtor$41@?0??get_pkcs11_error@@YA?AV?$shared_ptr@V?$basic_string@DU?$char_traits@D@std@@V?$allocator@D@2@@std@@@std@@K@Z@4HA 0000000180054dce f   pkcs11.obj
 0001:00053dda       ?dtor$42@?0??get_pkcs11_error@@YA?AV?$shared_ptr@V?$basic_string@DU?$char_traits@D@std@@V?$allocator@D@2@@std@@@std@@K@Z@4HA 0000000180054dda f   pkcs11.obj
 0001:00053de6       ?dtor$43@?0??get_pkcs11_error@@YA?AV?$shared_ptr@V?$basic_string@DU?$char_traits@D@std@@V?$allocator@D@2@@std@@@std@@K@Z@4HA 0000000180054de6 f   pkcs11.obj
 0001:00053e03       ?dtor$44@?0??get_pkcs11_error@@YA?AV?$shared_ptr@V?$basic_string@DU?$char_traits@D@std@@V?$allocator@D@2@@std@@@std@@K@Z@4HA 0000000180054e03 f   pkcs11.obj
 0001:00053e0f       ?dtor$45@?0??get_pkcs11_error@@YA?AV?$shared_ptr@V?$basic_string@DU?$char_traits@D@std@@V?$allocator@D@2@@std@@@std@@K@Z@4HA 0000000180054e0f f   pkcs11.obj
 0001:00053e1b       ?dtor$46@?0??get_pkcs11_error@@YA?AV?$shared_ptr@V?$basic_string@DU?$char_traits@D@std@@V?$allocator@D@2@@std@@@std@@K@Z@4HA 0000000180054e1b f   pkcs11.obj
 0001:00053e38       ?dtor$47@?0??get_pkcs11_error@@YA?AV?$shared_ptr@V?$basic_string@DU?$char_traits@D@std@@V?$allocator@D@2@@std@@@std@@K@Z@4HA 0000000180054e38 f   pkcs11.obj
 0001:00053e44       ?dtor$48@?0??get_pkcs11_error@@YA?AV?$shared_ptr@V?$basic_string@DU?$char_traits@D@std@@V?$allocator@D@2@@std@@@std@@K@Z@4HA 0000000180054e44 f   pkcs11.obj
 0001:00053e50       ?dtor$49@?0??get_pkcs11_error@@YA?AV?$shared_ptr@V?$basic_string@DU?$char_traits@D@std@@V?$allocator@D@2@@std@@@std@@K@Z@4HA 0000000180054e50 f   pkcs11.obj
 0001:00053e6d       ?dtor$50@?0??get_pkcs11_error@@YA?AV?$shared_ptr@V?$basic_string@DU?$char_traits@D@std@@V?$allocator@D@2@@std@@@std@@K@Z@4HA 0000000180054e6d f   pkcs11.obj
 0001:00053e79       ?dtor$51@?0??get_pkcs11_error@@YA?AV?$shared_ptr@V?$basic_string@DU?$char_traits@D@std@@V?$allocator@D@2@@std@@@std@@K@Z@4HA 0000000180054e79 f   pkcs11.obj
 0001:00053e85       ?dtor$52@?0??get_pkcs11_error@@YA?AV?$shared_ptr@V?$basic_string@DU?$char_traits@D@std@@V?$allocator@D@2@@std@@@std@@K@Z@4HA 0000000180054e85 f   pkcs11.obj
 0001:00053ea2       ?dtor$53@?0??get_pkcs11_error@@YA?AV?$shared_ptr@V?$basic_string@DU?$char_traits@D@std@@V?$allocator@D@2@@std@@@std@@K@Z@4HA 0000000180054ea2 f   pkcs11.obj
 0001:00053eae       ?dtor$54@?0??get_pkcs11_error@@YA?AV?$shared_ptr@V?$basic_string@DU?$char_traits@D@std@@V?$allocator@D@2@@std@@@std@@K@Z@4HA 0000000180054eae f   pkcs11.obj
 0001:00053eba       ?dtor$55@?0??get_pkcs11_error@@YA?AV?$shared_ptr@V?$basic_string@DU?$char_traits@D@std@@V?$allocator@D@2@@std@@@std@@K@Z@4HA 0000000180054eba f   pkcs11.obj
 0001:00053ed7       ?dtor$56@?0??get_pkcs11_error@@YA?AV?$shared_ptr@V?$basic_string@DU?$char_traits@D@std@@V?$allocator@D@2@@std@@@std@@K@Z@4HA 0000000180054ed7 f   pkcs11.obj
 0001:00053ee3       ?dtor$57@?0??get_pkcs11_error@@YA?AV?$shared_ptr@V?$basic_string@DU?$char_traits@D@std@@V?$allocator@D@2@@std@@@std@@K@Z@4HA 0000000180054ee3 f   pkcs11.obj
 0001:00053eef       ?dtor$58@?0??get_pkcs11_error@@YA?AV?$shared_ptr@V?$basic_string@DU?$char_traits@D@std@@V?$allocator@D@2@@std@@@std@@K@Z@4HA 0000000180054eef f   pkcs11.obj
 0001:00053f0c       ?dtor$59@?0??get_pkcs11_error@@YA?AV?$shared_ptr@V?$basic_string@DU?$char_traits@D@std@@V?$allocator@D@2@@std@@@std@@K@Z@4HA 0000000180054f0c f   pkcs11.obj
 0001:00053f18       ?dtor$60@?0??get_pkcs11_error@@YA?AV?$shared_ptr@V?$basic_string@DU?$char_traits@D@std@@V?$allocator@D@2@@std@@@std@@K@Z@4HA 0000000180054f18 f   pkcs11.obj
 0001:00053f24       ?dtor$61@?0??get_pkcs11_error@@YA?AV?$shared_ptr@V?$basic_string@DU?$char_traits@D@std@@V?$allocator@D@2@@std@@@std@@K@Z@4HA 0000000180054f24 f   pkcs11.obj
 0001:00053f41       ?dtor$62@?0??get_pkcs11_error@@YA?AV?$shared_ptr@V?$basic_string@DU?$char_traits@D@std@@V?$allocator@D@2@@std@@@std@@K@Z@4HA 0000000180054f41 f   pkcs11.obj
 0001:00053f4d       ?dtor$63@?0??get_pkcs11_error@@YA?AV?$shared_ptr@V?$basic_string@DU?$char_traits@D@std@@V?$allocator@D@2@@std@@@std@@K@Z@4HA 0000000180054f4d f   pkcs11.obj
 0001:00053f59       ?dtor$64@?0??get_pkcs11_error@@YA?AV?$shared_ptr@V?$basic_string@DU?$char_traits@D@std@@V?$allocator@D@2@@std@@@std@@K@Z@4HA 0000000180054f59 f   pkcs11.obj
 0001:00053f76       ?dtor$65@?0??get_pkcs11_error@@YA?AV?$shared_ptr@V?$basic_string@DU?$char_traits@D@std@@V?$allocator@D@2@@std@@@std@@K@Z@4HA 0000000180054f76 f   pkcs11.obj
 0001:00053f82       ?dtor$66@?0??get_pkcs11_error@@YA?AV?$shared_ptr@V?$basic_string@DU?$char_traits@D@std@@V?$allocator@D@2@@std@@@std@@K@Z@4HA 0000000180054f82 f   pkcs11.obj
 0001:00053f8e       ?dtor$67@?0??get_pkcs11_error@@YA?AV?$shared_ptr@V?$basic_string@DU?$char_traits@D@std@@V?$allocator@D@2@@std@@@std@@K@Z@4HA 0000000180054f8e f   pkcs11.obj
 0001:00053fab       ?dtor$68@?0??get_pkcs11_error@@YA?AV?$shared_ptr@V?$basic_string@DU?$char_traits@D@std@@V?$allocator@D@2@@std@@@std@@K@Z@4HA 0000000180054fab f   pkcs11.obj
 0001:00053fb7       ?dtor$69@?0??get_pkcs11_error@@YA?AV?$shared_ptr@V?$basic_string@DU?$char_traits@D@std@@V?$allocator@D@2@@std@@@std@@K@Z@4HA 0000000180054fb7 f   pkcs11.obj
 0001:00053fc3       ?dtor$70@?0??get_pkcs11_error@@YA?AV?$shared_ptr@V?$basic_string@DU?$char_traits@D@std@@V?$allocator@D@2@@std@@@std@@K@Z@4HA 0000000180054fc3 f   pkcs11.obj
 0001:00053fe0       ?dtor$71@?0??get_pkcs11_error@@YA?AV?$shared_ptr@V?$basic_string@DU?$char_traits@D@std@@V?$allocator@D@2@@std@@@std@@K@Z@4HA 0000000180054fe0 f   pkcs11.obj
 0001:00053fec       ?dtor$72@?0??get_pkcs11_error@@YA?AV?$shared_ptr@V?$basic_string@DU?$char_traits@D@std@@V?$allocator@D@2@@std@@@std@@K@Z@4HA 0000000180054fec f   pkcs11.obj
 0001:00053ff8       ?dtor$73@?0??get_pkcs11_error@@YA?AV?$shared_ptr@V?$basic_string@DU?$char_traits@D@std@@V?$allocator@D@2@@std@@@std@@K@Z@4HA 0000000180054ff8 f   pkcs11.obj
 0001:00054015       ?dtor$74@?0??get_pkcs11_error@@YA?AV?$shared_ptr@V?$basic_string@DU?$char_traits@D@std@@V?$allocator@D@2@@std@@@std@@K@Z@4HA 0000000180055015 f   pkcs11.obj
 0001:00054021       ?dtor$75@?0??get_pkcs11_error@@YA?AV?$shared_ptr@V?$basic_string@DU?$char_traits@D@std@@V?$allocator@D@2@@std@@@std@@K@Z@4HA 0000000180055021 f   pkcs11.obj
 0001:0005402d       ?dtor$76@?0??get_pkcs11_error@@YA?AV?$shared_ptr@V?$basic_string@DU?$char_traits@D@std@@V?$allocator@D@2@@std@@@std@@K@Z@4HA 000000018005502d f   pkcs11.obj
 0001:0005404a       ?dtor$77@?0??get_pkcs11_error@@YA?AV?$shared_ptr@V?$basic_string@DU?$char_traits@D@std@@V?$allocator@D@2@@std@@@std@@K@Z@4HA 000000018005504a f   pkcs11.obj
 0001:00054056       ?dtor$78@?0??get_pkcs11_error@@YA?AV?$shared_ptr@V?$basic_string@DU?$char_traits@D@std@@V?$allocator@D@2@@std@@@std@@K@Z@4HA 0000000180055056 f   pkcs11.obj
 0001:00054062       ?dtor$79@?0??get_pkcs11_error@@YA?AV?$shared_ptr@V?$basic_string@DU?$char_traits@D@std@@V?$allocator@D@2@@std@@@std@@K@Z@4HA 0000000180055062 f   pkcs11.obj
 0001:0005407f       ?dtor$80@?0??get_pkcs11_error@@YA?AV?$shared_ptr@V?$basic_string@DU?$char_traits@D@std@@V?$allocator@D@2@@std@@@std@@K@Z@4HA 000000018005507f f   pkcs11.obj
 0001:0005408b       ?dtor$81@?0??get_pkcs11_error@@YA?AV?$shared_ptr@V?$basic_string@DU?$char_traits@D@std@@V?$allocator@D@2@@std@@@std@@K@Z@4HA 000000018005508b f   pkcs11.obj
 0001:00054097       ?dtor$82@?0??get_pkcs11_error@@YA?AV?$shared_ptr@V?$basic_string@DU?$char_traits@D@std@@V?$allocator@D@2@@std@@@std@@K@Z@4HA 0000000180055097 f   pkcs11.obj
 0001:000540b4       ?dtor$83@?0??get_pkcs11_error@@YA?AV?$shared_ptr@V?$basic_string@DU?$char_traits@D@std@@V?$allocator@D@2@@std@@@std@@K@Z@4HA 00000001800550b4 f   pkcs11.obj
 0001:000540c0       ?dtor$84@?0??get_pkcs11_error@@YA?AV?$shared_ptr@V?$basic_string@DU?$char_traits@D@std@@V?$allocator@D@2@@std@@@std@@K@Z@4HA 00000001800550c0 f   pkcs11.obj
 0001:000540cc       ?dtor$85@?0??get_pkcs11_error@@YA?AV?$shared_ptr@V?$basic_string@DU?$char_traits@D@std@@V?$allocator@D@2@@std@@@std@@K@Z@4HA 00000001800550cc f   pkcs11.obj
 0001:000540e9       ?dtor$86@?0??get_pkcs11_error@@YA?AV?$shared_ptr@V?$basic_string@DU?$char_traits@D@std@@V?$allocator@D@2@@std@@@std@@K@Z@4HA 00000001800550e9 f   pkcs11.obj
 0001:000540f5       ?dtor$87@?0??get_pkcs11_error@@YA?AV?$shared_ptr@V?$basic_string@DU?$char_traits@D@std@@V?$allocator@D@2@@std@@@std@@K@Z@4HA 00000001800550f5 f   pkcs11.obj
 0001:00054101       ?dtor$88@?0??get_pkcs11_error@@YA?AV?$shared_ptr@V?$basic_string@DU?$char_traits@D@std@@V?$allocator@D@2@@std@@@std@@K@Z@4HA 0000000180055101 f   pkcs11.obj
 0001:0005411e       ?dtor$89@?0??get_pkcs11_error@@YA?AV?$shared_ptr@V?$basic_string@DU?$char_traits@D@std@@V?$allocator@D@2@@std@@@std@@K@Z@4HA 000000018005511e f   pkcs11.obj
 0001:0005412a       ?dtor$90@?0??get_pkcs11_error@@YA?AV?$shared_ptr@V?$basic_string@DU?$char_traits@D@std@@V?$allocator@D@2@@std@@@std@@K@Z@4HA 000000018005512a f   pkcs11.obj
 0001:00054136       ?dtor$91@?0??get_pkcs11_error@@YA?AV?$shared_ptr@V?$basic_string@DU?$char_traits@D@std@@V?$allocator@D@2@@std@@@std@@K@Z@4HA 0000000180055136 f   pkcs11.obj
 0001:00054153       ?dtor$92@?0??get_pkcs11_error@@YA?AV?$shared_ptr@V?$basic_string@DU?$char_traits@D@std@@V?$allocator@D@2@@std@@@std@@K@Z@4HA 0000000180055153 f   pkcs11.obj
 0001:0005415f       ?dtor$93@?0??get_pkcs11_error@@YA?AV?$shared_ptr@V?$basic_string@DU?$char_traits@D@std@@V?$allocator@D@2@@std@@@std@@K@Z@4HA 000000018005515f f   pkcs11.obj
 0001:0005416b       ?dtor$94@?0??get_pkcs11_error@@YA?AV?$shared_ptr@V?$basic_string@DU?$char_traits@D@std@@V?$allocator@D@2@@std@@@std@@K@Z@4HA 000000018005516b f   pkcs11.obj
 0001:00054188       ?dtor$95@?0??get_pkcs11_error@@YA?AV?$shared_ptr@V?$basic_string@DU?$char_traits@D@std@@V?$allocator@D@2@@std@@@std@@K@Z@4HA 0000000180055188 f   pkcs11.obj
 0001:00054194       ?dtor$96@?0??get_pkcs11_error@@YA?AV?$shared_ptr@V?$basic_string@DU?$char_traits@D@std@@V?$allocator@D@2@@std@@@std@@K@Z@4HA 0000000180055194 f   pkcs11.obj
 0001:000541a0       ?dtor$97@?0??get_pkcs11_error@@YA?AV?$shared_ptr@V?$basic_string@DU?$char_traits@D@std@@V?$allocator@D@2@@std@@@std@@K@Z@4HA 00000001800551a0 f   pkcs11.obj
 0001:000541bd       ?dtor$98@?0??get_pkcs11_error@@YA?AV?$shared_ptr@V?$basic_string@DU?$char_traits@D@std@@V?$allocator@D@2@@std@@@std@@K@Z@4HA 00000001800551bd f   pkcs11.obj
 0001:000541c9       ?dtor$99@?0??get_pkcs11_error@@YA?AV?$shared_ptr@V?$basic_string@DU?$char_traits@D@std@@V?$allocator@D@2@@std@@@std@@K@Z@4HA 00000001800551c9 f   pkcs11.obj
 0001:000541d5       ?dtor$100@?0??get_pkcs11_error@@YA?AV?$shared_ptr@V?$basic_string@DU?$char_traits@D@std@@V?$allocator@D@2@@std@@@std@@K@Z@4HA 00000001800551d5 f   pkcs11.obj
 0001:000541f2       ?dtor$101@?0??get_pkcs11_error@@YA?AV?$shared_ptr@V?$basic_string@DU?$char_traits@D@std@@V?$allocator@D@2@@std@@@std@@K@Z@4HA 00000001800551f2 f   pkcs11.obj
 0001:000541fe       ?dtor$102@?0??get_pkcs11_error@@YA?AV?$shared_ptr@V?$basic_string@DU?$char_traits@D@std@@V?$allocator@D@2@@std@@@std@@K@Z@4HA 00000001800551fe f   pkcs11.obj
 0001:0005420a       ?dtor$103@?0??get_pkcs11_error@@YA?AV?$shared_ptr@V?$basic_string@DU?$char_traits@D@std@@V?$allocator@D@2@@std@@@std@@K@Z@4HA 000000018005520a f   pkcs11.obj
 0001:00054227       ?dtor$104@?0??get_pkcs11_error@@YA?AV?$shared_ptr@V?$basic_string@DU?$char_traits@D@std@@V?$allocator@D@2@@std@@@std@@K@Z@4HA 0000000180055227 f   pkcs11.obj
 0001:00054233       ?dtor$105@?0??get_pkcs11_error@@YA?AV?$shared_ptr@V?$basic_string@DU?$char_traits@D@std@@V?$allocator@D@2@@std@@@std@@K@Z@4HA 0000000180055233 f   pkcs11.obj
 0001:0005423f       ?dtor$106@?0??get_pkcs11_error@@YA?AV?$shared_ptr@V?$basic_string@DU?$char_traits@D@std@@V?$allocator@D@2@@std@@@std@@K@Z@4HA 000000018005523f f   pkcs11.obj
 0001:0005425c       ?dtor$107@?0??get_pkcs11_error@@YA?AV?$shared_ptr@V?$basic_string@DU?$char_traits@D@std@@V?$allocator@D@2@@std@@@std@@K@Z@4HA 000000018005525c f   pkcs11.obj
 0001:00054268       ?dtor$108@?0??get_pkcs11_error@@YA?AV?$shared_ptr@V?$basic_string@DU?$char_traits@D@std@@V?$allocator@D@2@@std@@@std@@K@Z@4HA 0000000180055268 f   pkcs11.obj
 0001:00054274       ?dtor$109@?0??get_pkcs11_error@@YA?AV?$shared_ptr@V?$basic_string@DU?$char_traits@D@std@@V?$allocator@D@2@@std@@@std@@K@Z@4HA 0000000180055274 f   pkcs11.obj
 0001:00054291       ?dtor$110@?0??get_pkcs11_error@@YA?AV?$shared_ptr@V?$basic_string@DU?$char_traits@D@std@@V?$allocator@D@2@@std@@@std@@K@Z@4HA 0000000180055291 f   pkcs11.obj
 0001:0005429d       ?dtor$111@?0??get_pkcs11_error@@YA?AV?$shared_ptr@V?$basic_string@DU?$char_traits@D@std@@V?$allocator@D@2@@std@@@std@@K@Z@4HA 000000018005529d f   pkcs11.obj
 0001:000542a9       ?dtor$112@?0??get_pkcs11_error@@YA?AV?$shared_ptr@V?$basic_string@DU?$char_traits@D@std@@V?$allocator@D@2@@std@@@std@@K@Z@4HA 00000001800552a9 f   pkcs11.obj
 0001:000542c6       ?dtor$113@?0??get_pkcs11_error@@YA?AV?$shared_ptr@V?$basic_string@DU?$char_traits@D@std@@V?$allocator@D@2@@std@@@std@@K@Z@4HA 00000001800552c6 f   pkcs11.obj
 0001:000542d2       ?dtor$114@?0??get_pkcs11_error@@YA?AV?$shared_ptr@V?$basic_string@DU?$char_traits@D@std@@V?$allocator@D@2@@std@@@std@@K@Z@4HA 00000001800552d2 f   pkcs11.obj
 0001:000542de       ?dtor$115@?0??get_pkcs11_error@@YA?AV?$shared_ptr@V?$basic_string@DU?$char_traits@D@std@@V?$allocator@D@2@@std@@@std@@K@Z@4HA 00000001800552de f   pkcs11.obj
 0001:000542fb       ?dtor$116@?0??get_pkcs11_error@@YA?AV?$shared_ptr@V?$basic_string@DU?$char_traits@D@std@@V?$allocator@D@2@@std@@@std@@K@Z@4HA 00000001800552fb f   pkcs11.obj
 0001:00054307       ?dtor$117@?0??get_pkcs11_error@@YA?AV?$shared_ptr@V?$basic_string@DU?$char_traits@D@std@@V?$allocator@D@2@@std@@@std@@K@Z@4HA 0000000180055307 f   pkcs11.obj
 0001:00054313       ?dtor$118@?0??get_pkcs11_error@@YA?AV?$shared_ptr@V?$basic_string@DU?$char_traits@D@std@@V?$allocator@D@2@@std@@@std@@K@Z@4HA 0000000180055313 f   pkcs11.obj
 0001:00054330       ?dtor$119@?0??get_pkcs11_error@@YA?AV?$shared_ptr@V?$basic_string@DU?$char_traits@D@std@@V?$allocator@D@2@@std@@@std@@K@Z@4HA 0000000180055330 f   pkcs11.obj
 0001:0005433c       ?dtor$120@?0??get_pkcs11_error@@YA?AV?$shared_ptr@V?$basic_string@DU?$char_traits@D@std@@V?$allocator@D@2@@std@@@std@@K@Z@4HA 000000018005533c f   pkcs11.obj
 0001:00054348       ?dtor$121@?0??get_pkcs11_error@@YA?AV?$shared_ptr@V?$basic_string@DU?$char_traits@D@std@@V?$allocator@D@2@@std@@@std@@K@Z@4HA 0000000180055348 f   pkcs11.obj
 0001:00054365       ?dtor$122@?0??get_pkcs11_error@@YA?AV?$shared_ptr@V?$basic_string@DU?$char_traits@D@std@@V?$allocator@D@2@@std@@@std@@K@Z@4HA 0000000180055365 f   pkcs11.obj
 0001:00054371       ?dtor$123@?0??get_pkcs11_error@@YA?AV?$shared_ptr@V?$basic_string@DU?$char_traits@D@std@@V?$allocator@D@2@@std@@@std@@K@Z@4HA 0000000180055371 f   pkcs11.obj
 0001:0005437d       ?dtor$124@?0??get_pkcs11_error@@YA?AV?$shared_ptr@V?$basic_string@DU?$char_traits@D@std@@V?$allocator@D@2@@std@@@std@@K@Z@4HA 000000018005537d f   pkcs11.obj
 0001:0005439a       ?dtor$125@?0??get_pkcs11_error@@YA?AV?$shared_ptr@V?$basic_string@DU?$char_traits@D@std@@V?$allocator@D@2@@std@@@std@@K@Z@4HA 000000018005539a f   pkcs11.obj
 0001:000543a6       ?dtor$126@?0??get_pkcs11_error@@YA?AV?$shared_ptr@V?$basic_string@DU?$char_traits@D@std@@V?$allocator@D@2@@std@@@std@@K@Z@4HA 00000001800553a6 f   pkcs11.obj
 0001:000543b2       ?dtor$127@?0??get_pkcs11_error@@YA?AV?$shared_ptr@V?$basic_string@DU?$char_traits@D@std@@V?$allocator@D@2@@std@@@std@@K@Z@4HA 00000001800553b2 f   pkcs11.obj
 0001:000543cf       ?dtor$128@?0??get_pkcs11_error@@YA?AV?$shared_ptr@V?$basic_string@DU?$char_traits@D@std@@V?$allocator@D@2@@std@@@std@@K@Z@4HA 00000001800553cf f   pkcs11.obj
 0001:000543db       ?dtor$129@?0??get_pkcs11_error@@YA?AV?$shared_ptr@V?$basic_string@DU?$char_traits@D@std@@V?$allocator@D@2@@std@@@std@@K@Z@4HA 00000001800553db f   pkcs11.obj
 0001:000543e7       ?dtor$130@?0??get_pkcs11_error@@YA?AV?$shared_ptr@V?$basic_string@DU?$char_traits@D@std@@V?$allocator@D@2@@std@@@std@@K@Z@4HA 00000001800553e7 f   pkcs11.obj
 0001:00054404       ?dtor$131@?0??get_pkcs11_error@@YA?AV?$shared_ptr@V?$basic_string@DU?$char_traits@D@std@@V?$allocator@D@2@@std@@@std@@K@Z@4HA 0000000180055404 f   pkcs11.obj
 0001:00054410       ?dtor$132@?0??get_pkcs11_error@@YA?AV?$shared_ptr@V?$basic_string@DU?$char_traits@D@std@@V?$allocator@D@2@@std@@@std@@K@Z@4HA 0000000180055410 f   pkcs11.obj
 0001:0005441c       ?dtor$133@?0??get_pkcs11_error@@YA?AV?$shared_ptr@V?$basic_string@DU?$char_traits@D@std@@V?$allocator@D@2@@std@@@std@@K@Z@4HA 000000018005541c f   pkcs11.obj
 0001:00054439       ?dtor$134@?0??get_pkcs11_error@@YA?AV?$shared_ptr@V?$basic_string@DU?$char_traits@D@std@@V?$allocator@D@2@@std@@@std@@K@Z@4HA 0000000180055439 f   pkcs11.obj
 0001:00054445       ?dtor$135@?0??get_pkcs11_error@@YA?AV?$shared_ptr@V?$basic_string@DU?$char_traits@D@std@@V?$allocator@D@2@@std@@@std@@K@Z@4HA 0000000180055445 f   pkcs11.obj
 0001:00054451       ?dtor$136@?0??get_pkcs11_error@@YA?AV?$shared_ptr@V?$basic_string@DU?$char_traits@D@std@@V?$allocator@D@2@@std@@@std@@K@Z@4HA 0000000180055451 f   pkcs11.obj
 0001:0005446e       ?dtor$137@?0??get_pkcs11_error@@YA?AV?$shared_ptr@V?$basic_string@DU?$char_traits@D@std@@V?$allocator@D@2@@std@@@std@@K@Z@4HA 000000018005546e f   pkcs11.obj
 0001:0005447a       ?dtor$138@?0??get_pkcs11_error@@YA?AV?$shared_ptr@V?$basic_string@DU?$char_traits@D@std@@V?$allocator@D@2@@std@@@std@@K@Z@4HA 000000018005547a f   pkcs11.obj
 0001:00054486       ?dtor$139@?0??get_pkcs11_error@@YA?AV?$shared_ptr@V?$basic_string@DU?$char_traits@D@std@@V?$allocator@D@2@@std@@@std@@K@Z@4HA 0000000180055486 f   pkcs11.obj
 0001:000544a3       ?dtor$140@?0??get_pkcs11_error@@YA?AV?$shared_ptr@V?$basic_string@DU?$char_traits@D@std@@V?$allocator@D@2@@std@@@std@@K@Z@4HA 00000001800554a3 f   pkcs11.obj
 0001:000544af       ?dtor$141@?0??get_pkcs11_error@@YA?AV?$shared_ptr@V?$basic_string@DU?$char_traits@D@std@@V?$allocator@D@2@@std@@@std@@K@Z@4HA 00000001800554af f   pkcs11.obj
 0001:000544bb       ?dtor$142@?0??get_pkcs11_error@@YA?AV?$shared_ptr@V?$basic_string@DU?$char_traits@D@std@@V?$allocator@D@2@@std@@@std@@K@Z@4HA 00000001800554bb f   pkcs11.obj
 0001:000544d8       ?dtor$143@?0??get_pkcs11_error@@YA?AV?$shared_ptr@V?$basic_string@DU?$char_traits@D@std@@V?$allocator@D@2@@std@@@std@@K@Z@4HA 00000001800554d8 f   pkcs11.obj
 0001:000544e4       ?dtor$144@?0??get_pkcs11_error@@YA?AV?$shared_ptr@V?$basic_string@DU?$char_traits@D@std@@V?$allocator@D@2@@std@@@std@@K@Z@4HA 00000001800554e4 f   pkcs11.obj
 0001:000544f0       ?dtor$145@?0??get_pkcs11_error@@YA?AV?$shared_ptr@V?$basic_string@DU?$char_traits@D@std@@V?$allocator@D@2@@std@@@std@@K@Z@4HA 00000001800554f0 f   pkcs11.obj
 0001:0005450d       ?dtor$146@?0??get_pkcs11_error@@YA?AV?$shared_ptr@V?$basic_string@DU?$char_traits@D@std@@V?$allocator@D@2@@std@@@std@@K@Z@4HA 000000018005550d f   pkcs11.obj
 0001:00054519       ?dtor$147@?0??get_pkcs11_error@@YA?AV?$shared_ptr@V?$basic_string@DU?$char_traits@D@std@@V?$allocator@D@2@@std@@@std@@K@Z@4HA 0000000180055519 f   pkcs11.obj
 0001:00054525       ?dtor$148@?0??get_pkcs11_error@@YA?AV?$shared_ptr@V?$basic_string@DU?$char_traits@D@std@@V?$allocator@D@2@@std@@@std@@K@Z@4HA 0000000180055525 f   pkcs11.obj
 0001:00054542       ?dtor$149@?0??get_pkcs11_error@@YA?AV?$shared_ptr@V?$basic_string@DU?$char_traits@D@std@@V?$allocator@D@2@@std@@@std@@K@Z@4HA 0000000180055542 f   pkcs11.obj
 0001:0005454e       ?dtor$150@?0??get_pkcs11_error@@YA?AV?$shared_ptr@V?$basic_string@DU?$char_traits@D@std@@V?$allocator@D@2@@std@@@std@@K@Z@4HA 000000018005554e f   pkcs11.obj
 0001:0005455a       ?dtor$151@?0??get_pkcs11_error@@YA?AV?$shared_ptr@V?$basic_string@DU?$char_traits@D@std@@V?$allocator@D@2@@std@@@std@@K@Z@4HA 000000018005555a f   pkcs11.obj
 0001:00054577       ?dtor$152@?0??get_pkcs11_error@@YA?AV?$shared_ptr@V?$basic_string@DU?$char_traits@D@std@@V?$allocator@D@2@@std@@@std@@K@Z@4HA 0000000180055577 f   pkcs11.obj
 0001:00054583       ?dtor$153@?0??get_pkcs11_error@@YA?AV?$shared_ptr@V?$basic_string@DU?$char_traits@D@std@@V?$allocator@D@2@@std@@@std@@K@Z@4HA 0000000180055583 f   pkcs11.obj
 0001:0005458f       ?dtor$154@?0??get_pkcs11_error@@YA?AV?$shared_ptr@V?$basic_string@DU?$char_traits@D@std@@V?$allocator@D@2@@std@@@std@@K@Z@4HA 000000018005558f f   pkcs11.obj
 0001:000545ac       ?dtor$155@?0??get_pkcs11_error@@YA?AV?$shared_ptr@V?$basic_string@DU?$char_traits@D@std@@V?$allocator@D@2@@std@@@std@@K@Z@4HA 00000001800555ac f   pkcs11.obj
 0001:000545b8       ?dtor$156@?0??get_pkcs11_error@@YA?AV?$shared_ptr@V?$basic_string@DU?$char_traits@D@std@@V?$allocator@D@2@@std@@@std@@K@Z@4HA 00000001800555b8 f   pkcs11.obj
 0001:000545c4       ?dtor$157@?0??get_pkcs11_error@@YA?AV?$shared_ptr@V?$basic_string@DU?$char_traits@D@std@@V?$allocator@D@2@@std@@@std@@K@Z@4HA 00000001800555c4 f   pkcs11.obj
 0001:000545e1       ?dtor$158@?0??get_pkcs11_error@@YA?AV?$shared_ptr@V?$basic_string@DU?$char_traits@D@std@@V?$allocator@D@2@@std@@@std@@K@Z@4HA 00000001800555e1 f   pkcs11.obj
 0001:000545ed       ?dtor$159@?0??get_pkcs11_error@@YA?AV?$shared_ptr@V?$basic_string@DU?$char_traits@D@std@@V?$allocator@D@2@@std@@@std@@K@Z@4HA 00000001800555ed f   pkcs11.obj
 0001:000545f9       ?dtor$160@?0??get_pkcs11_error@@YA?AV?$shared_ptr@V?$basic_string@DU?$char_traits@D@std@@V?$allocator@D@2@@std@@@std@@K@Z@4HA 00000001800555f9 f   pkcs11.obj
 0001:00054616       ?dtor$161@?0??get_pkcs11_error@@YA?AV?$shared_ptr@V?$basic_string@DU?$char_traits@D@std@@V?$allocator@D@2@@std@@@std@@K@Z@4HA 0000000180055616 f   pkcs11.obj
 0001:00054622       ?dtor$162@?0??get_pkcs11_error@@YA?AV?$shared_ptr@V?$basic_string@DU?$char_traits@D@std@@V?$allocator@D@2@@std@@@std@@K@Z@4HA 0000000180055622 f   pkcs11.obj
 0001:0005462e       ?dtor$163@?0??get_pkcs11_error@@YA?AV?$shared_ptr@V?$basic_string@DU?$char_traits@D@std@@V?$allocator@D@2@@std@@@std@@K@Z@4HA 000000018005562e f   pkcs11.obj
 0001:0005464b       ?dtor$164@?0??get_pkcs11_error@@YA?AV?$shared_ptr@V?$basic_string@DU?$char_traits@D@std@@V?$allocator@D@2@@std@@@std@@K@Z@4HA 000000018005564b f   pkcs11.obj
 0001:00054657       ?dtor$165@?0??get_pkcs11_error@@YA?AV?$shared_ptr@V?$basic_string@DU?$char_traits@D@std@@V?$allocator@D@2@@std@@@std@@K@Z@4HA 0000000180055657 f   pkcs11.obj
 0001:00054663       ?dtor$166@?0??get_pkcs11_error@@YA?AV?$shared_ptr@V?$basic_string@DU?$char_traits@D@std@@V?$allocator@D@2@@std@@@std@@K@Z@4HA 0000000180055663 f   pkcs11.obj
 0001:00054680       ?dtor$167@?0??get_pkcs11_error@@YA?AV?$shared_ptr@V?$basic_string@DU?$char_traits@D@std@@V?$allocator@D@2@@std@@@std@@K@Z@4HA 0000000180055680 f   pkcs11.obj
 0001:0005468c       ?dtor$168@?0??get_pkcs11_error@@YA?AV?$shared_ptr@V?$basic_string@DU?$char_traits@D@std@@V?$allocator@D@2@@std@@@std@@K@Z@4HA 000000018005568c f   pkcs11.obj
 0001:00054698       ?dtor$169@?0??get_pkcs11_error@@YA?AV?$shared_ptr@V?$basic_string@DU?$char_traits@D@std@@V?$allocator@D@2@@std@@@std@@K@Z@4HA 0000000180055698 f   pkcs11.obj
 0001:000546b5       ?dtor$170@?0??get_pkcs11_error@@YA?AV?$shared_ptr@V?$basic_string@DU?$char_traits@D@std@@V?$allocator@D@2@@std@@@std@@K@Z@4HA 00000001800556b5 f   pkcs11.obj
 0001:000546c1       ?dtor$171@?0??get_pkcs11_error@@YA?AV?$shared_ptr@V?$basic_string@DU?$char_traits@D@std@@V?$allocator@D@2@@std@@@std@@K@Z@4HA 00000001800556c1 f   pkcs11.obj
 0001:000546cd       ?dtor$172@?0??get_pkcs11_error@@YA?AV?$shared_ptr@V?$basic_string@DU?$char_traits@D@std@@V?$allocator@D@2@@std@@@std@@K@Z@4HA 00000001800556cd f   pkcs11.obj
 0001:000546ea       ?dtor$173@?0??get_pkcs11_error@@YA?AV?$shared_ptr@V?$basic_string@DU?$char_traits@D@std@@V?$allocator@D@2@@std@@@std@@K@Z@4HA 00000001800556ea f   pkcs11.obj
 0001:000546f6       ?dtor$174@?0??get_pkcs11_error@@YA?AV?$shared_ptr@V?$basic_string@DU?$char_traits@D@std@@V?$allocator@D@2@@std@@@std@@K@Z@4HA 00000001800556f6 f   pkcs11.obj
 0001:00054702       ?dtor$175@?0??get_pkcs11_error@@YA?AV?$shared_ptr@V?$basic_string@DU?$char_traits@D@std@@V?$allocator@D@2@@std@@@std@@K@Z@4HA 0000000180055702 f   pkcs11.obj
 0001:0005471f       ?dtor$176@?0??get_pkcs11_error@@YA?AV?$shared_ptr@V?$basic_string@DU?$char_traits@D@std@@V?$allocator@D@2@@std@@@std@@K@Z@4HA 000000018005571f f   pkcs11.obj
 0001:0005472b       ?dtor$177@?0??get_pkcs11_error@@YA?AV?$shared_ptr@V?$basic_string@DU?$char_traits@D@std@@V?$allocator@D@2@@std@@@std@@K@Z@4HA 000000018005572b f   pkcs11.obj
 0001:00054737       ?dtor$178@?0??get_pkcs11_error@@YA?AV?$shared_ptr@V?$basic_string@DU?$char_traits@D@std@@V?$allocator@D@2@@std@@@std@@K@Z@4HA 0000000180055737 f   pkcs11.obj
 0001:00054754       ?dtor$179@?0??get_pkcs11_error@@YA?AV?$shared_ptr@V?$basic_string@DU?$char_traits@D@std@@V?$allocator@D@2@@std@@@std@@K@Z@4HA 0000000180055754 f   pkcs11.obj
 0001:00054760       ?dtor$180@?0??get_pkcs11_error@@YA?AV?$shared_ptr@V?$basic_string@DU?$char_traits@D@std@@V?$allocator@D@2@@std@@@std@@K@Z@4HA 0000000180055760 f   pkcs11.obj
 0001:0005476c       ?dtor$181@?0??get_pkcs11_error@@YA?AV?$shared_ptr@V?$basic_string@DU?$char_traits@D@std@@V?$allocator@D@2@@std@@@std@@K@Z@4HA 000000018005576c f   pkcs11.obj
 0001:00054789       ?dtor$182@?0??get_pkcs11_error@@YA?AV?$shared_ptr@V?$basic_string@DU?$char_traits@D@std@@V?$allocator@D@2@@std@@@std@@K@Z@4HA 0000000180055789 f   pkcs11.obj
 0001:00054795       ?dtor$183@?0??get_pkcs11_error@@YA?AV?$shared_ptr@V?$basic_string@DU?$char_traits@D@std@@V?$allocator@D@2@@std@@@std@@K@Z@4HA 0000000180055795 f   pkcs11.obj
 0001:000547a1       ?dtor$184@?0??get_pkcs11_error@@YA?AV?$shared_ptr@V?$basic_string@DU?$char_traits@D@std@@V?$allocator@D@2@@std@@@std@@K@Z@4HA 00000001800557a1 f   pkcs11.obj
 0001:000547be       ?dtor$185@?0??get_pkcs11_error@@YA?AV?$shared_ptr@V?$basic_string@DU?$char_traits@D@std@@V?$allocator@D@2@@std@@@std@@K@Z@4HA 00000001800557be f   pkcs11.obj
 0001:000547ca       ?dtor$186@?0??get_pkcs11_error@@YA?AV?$shared_ptr@V?$basic_string@DU?$char_traits@D@std@@V?$allocator@D@2@@std@@@std@@K@Z@4HA 00000001800557ca f   pkcs11.obj
 0001:000547d6       ?dtor$187@?0??get_pkcs11_error@@YA?AV?$shared_ptr@V?$basic_string@DU?$char_traits@D@std@@V?$allocator@D@2@@std@@@std@@K@Z@4HA 00000001800557d6 f   pkcs11.obj
 0001:000547f3       ?dtor$188@?0??get_pkcs11_error@@YA?AV?$shared_ptr@V?$basic_string@DU?$char_traits@D@std@@V?$allocator@D@2@@std@@@std@@K@Z@4HA 00000001800557f3 f   pkcs11.obj
 0001:000547ff       ?dtor$189@?0??get_pkcs11_error@@YA?AV?$shared_ptr@V?$basic_string@DU?$char_traits@D@std@@V?$allocator@D@2@@std@@@std@@K@Z@4HA 00000001800557ff f   pkcs11.obj
 0001:0005480b       ?dtor$190@?0??get_pkcs11_error@@YA?AV?$shared_ptr@V?$basic_string@DU?$char_traits@D@std@@V?$allocator@D@2@@std@@@std@@K@Z@4HA 000000018005580b f   pkcs11.obj
 0001:00054828       ?dtor$191@?0??get_pkcs11_error@@YA?AV?$shared_ptr@V?$basic_string@DU?$char_traits@D@std@@V?$allocator@D@2@@std@@@std@@K@Z@4HA 0000000180055828 f   pkcs11.obj
 0001:00054834       ?dtor$192@?0??get_pkcs11_error@@YA?AV?$shared_ptr@V?$basic_string@DU?$char_traits@D@std@@V?$allocator@D@2@@std@@@std@@K@Z@4HA 0000000180055834 f   pkcs11.obj
 0001:00054840       ?dtor$193@?0??get_pkcs11_error@@YA?AV?$shared_ptr@V?$basic_string@DU?$char_traits@D@std@@V?$allocator@D@2@@std@@@std@@K@Z@4HA 0000000180055840 f   pkcs11.obj
 0001:0005485d       ?dtor$194@?0??get_pkcs11_error@@YA?AV?$shared_ptr@V?$basic_string@DU?$char_traits@D@std@@V?$allocator@D@2@@std@@@std@@K@Z@4HA 000000018005585d f   pkcs11.obj
 0001:00054869       ?dtor$195@?0??get_pkcs11_error@@YA?AV?$shared_ptr@V?$basic_string@DU?$char_traits@D@std@@V?$allocator@D@2@@std@@@std@@K@Z@4HA 0000000180055869 f   pkcs11.obj
 0001:00054875       ?dtor$196@?0??get_pkcs11_error@@YA?AV?$shared_ptr@V?$basic_string@DU?$char_traits@D@std@@V?$allocator@D@2@@std@@@std@@K@Z@4HA 0000000180055875 f   pkcs11.obj
 0001:00054892       ?dtor$197@?0??get_pkcs11_error@@YA?AV?$shared_ptr@V?$basic_string@DU?$char_traits@D@std@@V?$allocator@D@2@@std@@@std@@K@Z@4HA 0000000180055892 f   pkcs11.obj
 0001:0005489e       ?dtor$198@?0??get_pkcs11_error@@YA?AV?$shared_ptr@V?$basic_string@DU?$char_traits@D@std@@V?$allocator@D@2@@std@@@std@@K@Z@4HA 000000018005589e f   pkcs11.obj
 0001:000548aa       ?dtor$199@?0??get_pkcs11_error@@YA?AV?$shared_ptr@V?$basic_string@DU?$char_traits@D@std@@V?$allocator@D@2@@std@@@std@@K@Z@4HA 00000001800558aa f   pkcs11.obj
 0001:000548c7       ?dtor$200@?0??get_pkcs11_error@@YA?AV?$shared_ptr@V?$basic_string@DU?$char_traits@D@std@@V?$allocator@D@2@@std@@@std@@K@Z@4HA 00000001800558c7 f   pkcs11.obj
 0001:000548d3       ?dtor$201@?0??get_pkcs11_error@@YA?AV?$shared_ptr@V?$basic_string@DU?$char_traits@D@std@@V?$allocator@D@2@@std@@@std@@K@Z@4HA 00000001800558d3 f   pkcs11.obj
 0001:000548df       ?dtor$202@?0??get_pkcs11_error@@YA?AV?$shared_ptr@V?$basic_string@DU?$char_traits@D@std@@V?$allocator@D@2@@std@@@std@@K@Z@4HA 00000001800558df f   pkcs11.obj
 0001:000548fc       ?dtor$203@?0??get_pkcs11_error@@YA?AV?$shared_ptr@V?$basic_string@DU?$char_traits@D@std@@V?$allocator@D@2@@std@@@std@@K@Z@4HA 00000001800558fc f   pkcs11.obj
 0001:00054908       ?dtor$204@?0??get_pkcs11_error@@YA?AV?$shared_ptr@V?$basic_string@DU?$char_traits@D@std@@V?$allocator@D@2@@std@@@std@@K@Z@4HA 0000000180055908 f   pkcs11.obj
 0001:00054914       ?dtor$205@?0??get_pkcs11_error@@YA?AV?$shared_ptr@V?$basic_string@DU?$char_traits@D@std@@V?$allocator@D@2@@std@@@std@@K@Z@4HA 0000000180055914 f   pkcs11.obj
 0001:00054931       ?dtor$206@?0??get_pkcs11_error@@YA?AV?$shared_ptr@V?$basic_string@DU?$char_traits@D@std@@V?$allocator@D@2@@std@@@std@@K@Z@4HA 0000000180055931 f   pkcs11.obj
 0001:0005493d       ?dtor$207@?0??get_pkcs11_error@@YA?AV?$shared_ptr@V?$basic_string@DU?$char_traits@D@std@@V?$allocator@D@2@@std@@@std@@K@Z@4HA 000000018005593d f   pkcs11.obj
 0001:00054949       ?dtor$208@?0??get_pkcs11_error@@YA?AV?$shared_ptr@V?$basic_string@DU?$char_traits@D@std@@V?$allocator@D@2@@std@@@std@@K@Z@4HA 0000000180055949 f   pkcs11.obj
 0001:00054966       ?dtor$209@?0??get_pkcs11_error@@YA?AV?$shared_ptr@V?$basic_string@DU?$char_traits@D@std@@V?$allocator@D@2@@std@@@std@@K@Z@4HA 0000000180055966 f   pkcs11.obj
 0001:00054972       ?dtor$210@?0??get_pkcs11_error@@YA?AV?$shared_ptr@V?$basic_string@DU?$char_traits@D@std@@V?$allocator@D@2@@std@@@std@@K@Z@4HA 0000000180055972 f   pkcs11.obj
 0001:0005497e       ?dtor$211@?0??get_pkcs11_error@@YA?AV?$shared_ptr@V?$basic_string@DU?$char_traits@D@std@@V?$allocator@D@2@@std@@@std@@K@Z@4HA 000000018005597e f   pkcs11.obj
 0001:0005499b       ?dtor$212@?0??get_pkcs11_error@@YA?AV?$shared_ptr@V?$basic_string@DU?$char_traits@D@std@@V?$allocator@D@2@@std@@@std@@K@Z@4HA 000000018005599b f   pkcs11.obj
 0001:000549a7       ?dtor$213@?0??get_pkcs11_error@@YA?AV?$shared_ptr@V?$basic_string@DU?$char_traits@D@std@@V?$allocator@D@2@@std@@@std@@K@Z@4HA 00000001800559a7 f   pkcs11.obj
 0001:000549b3       ?dtor$214@?0??get_pkcs11_error@@YA?AV?$shared_ptr@V?$basic_string@DU?$char_traits@D@std@@V?$allocator@D@2@@std@@@std@@K@Z@4HA 00000001800559b3 f   pkcs11.obj
 0001:000549d0       ?dtor$215@?0??get_pkcs11_error@@YA?AV?$shared_ptr@V?$basic_string@DU?$char_traits@D@std@@V?$allocator@D@2@@std@@@std@@K@Z@4HA 00000001800559d0 f   pkcs11.obj
 0001:000549dc       ?dtor$216@?0??get_pkcs11_error@@YA?AV?$shared_ptr@V?$basic_string@DU?$char_traits@D@std@@V?$allocator@D@2@@std@@@std@@K@Z@4HA 00000001800559dc f   pkcs11.obj
 0001:000549e8       ?dtor$217@?0??get_pkcs11_error@@YA?AV?$shared_ptr@V?$basic_string@DU?$char_traits@D@std@@V?$allocator@D@2@@std@@@std@@K@Z@4HA 00000001800559e8 f   pkcs11.obj
 0001:00054a05       ?dtor$218@?0??get_pkcs11_error@@YA?AV?$shared_ptr@V?$basic_string@DU?$char_traits@D@std@@V?$allocator@D@2@@std@@@std@@K@Z@4HA 0000000180055a05 f   pkcs11.obj
 0001:00054a11       ?dtor$219@?0??get_pkcs11_error@@YA?AV?$shared_ptr@V?$basic_string@DU?$char_traits@D@std@@V?$allocator@D@2@@std@@@std@@K@Z@4HA 0000000180055a11 f   pkcs11.obj
 0001:00054a1d       ?dtor$220@?0??get_pkcs11_error@@YA?AV?$shared_ptr@V?$basic_string@DU?$char_traits@D@std@@V?$allocator@D@2@@std@@@std@@K@Z@4HA 0000000180055a1d f   pkcs11.obj
 0001:00054a3a       ?dtor$221@?0??get_pkcs11_error@@YA?AV?$shared_ptr@V?$basic_string@DU?$char_traits@D@std@@V?$allocator@D@2@@std@@@std@@K@Z@4HA 0000000180055a3a f   pkcs11.obj
 0001:00054a46       ?dtor$222@?0??get_pkcs11_error@@YA?AV?$shared_ptr@V?$basic_string@DU?$char_traits@D@std@@V?$allocator@D@2@@std@@@std@@K@Z@4HA 0000000180055a46 f   pkcs11.obj
 0001:00054a52       ?dtor$223@?0??get_pkcs11_error@@YA?AV?$shared_ptr@V?$basic_string@DU?$char_traits@D@std@@V?$allocator@D@2@@std@@@std@@K@Z@4HA 0000000180055a52 f   pkcs11.obj
 0001:00054a6f       ?dtor$224@?0??get_pkcs11_error@@YA?AV?$shared_ptr@V?$basic_string@DU?$char_traits@D@std@@V?$allocator@D@2@@std@@@std@@K@Z@4HA 0000000180055a6f f   pkcs11.obj
 0001:00054a7b       ?dtor$225@?0??get_pkcs11_error@@YA?AV?$shared_ptr@V?$basic_string@DU?$char_traits@D@std@@V?$allocator@D@2@@std@@@std@@K@Z@4HA 0000000180055a7b f   pkcs11.obj
 0001:00054a87       ?dtor$226@?0??get_pkcs11_error@@YA?AV?$shared_ptr@V?$basic_string@DU?$char_traits@D@std@@V?$allocator@D@2@@std@@@std@@K@Z@4HA 0000000180055a87 f   pkcs11.obj
 0001:00054aa4       ?dtor$227@?0??get_pkcs11_error@@YA?AV?$shared_ptr@V?$basic_string@DU?$char_traits@D@std@@V?$allocator@D@2@@std@@@std@@K@Z@4HA 0000000180055aa4 f   pkcs11.obj
 0001:00054ab0       ?dtor$228@?0??get_pkcs11_error@@YA?AV?$shared_ptr@V?$basic_string@DU?$char_traits@D@std@@V?$allocator@D@2@@std@@@std@@K@Z@4HA 0000000180055ab0 f   pkcs11.obj
 0001:00054abc       ?dtor$229@?0??get_pkcs11_error@@YA?AV?$shared_ptr@V?$basic_string@DU?$char_traits@D@std@@V?$allocator@D@2@@std@@@std@@K@Z@4HA 0000000180055abc f   pkcs11.obj
 0001:00054ad9       ?dtor$230@?0??get_pkcs11_error@@YA?AV?$shared_ptr@V?$basic_string@DU?$char_traits@D@std@@V?$allocator@D@2@@std@@@std@@K@Z@4HA 0000000180055ad9 f   pkcs11.obj
 0001:00054ae5       ?dtor$231@?0??get_pkcs11_error@@YA?AV?$shared_ptr@V?$basic_string@DU?$char_traits@D@std@@V?$allocator@D@2@@std@@@std@@K@Z@4HA 0000000180055ae5 f   pkcs11.obj
 0001:00054af1       ?dtor$232@?0??get_pkcs11_error@@YA?AV?$shared_ptr@V?$basic_string@DU?$char_traits@D@std@@V?$allocator@D@2@@std@@@std@@K@Z@4HA 0000000180055af1 f   pkcs11.obj
 0001:00054b0e       ?dtor$233@?0??get_pkcs11_error@@YA?AV?$shared_ptr@V?$basic_string@DU?$char_traits@D@std@@V?$allocator@D@2@@std@@@std@@K@Z@4HA 0000000180055b0e f   pkcs11.obj
 0001:00054b1a       ?dtor$234@?0??get_pkcs11_error@@YA?AV?$shared_ptr@V?$basic_string@DU?$char_traits@D@std@@V?$allocator@D@2@@std@@@std@@K@Z@4HA 0000000180055b1a f   pkcs11.obj
 0001:00054b26       ?dtor$235@?0??get_pkcs11_error@@YA?AV?$shared_ptr@V?$basic_string@DU?$char_traits@D@std@@V?$allocator@D@2@@std@@@std@@K@Z@4HA 0000000180055b26 f   pkcs11.obj
 0001:00054b43       ?dtor$236@?0??get_pkcs11_error@@YA?AV?$shared_ptr@V?$basic_string@DU?$char_traits@D@std@@V?$allocator@D@2@@std@@@std@@K@Z@4HA 0000000180055b43 f   pkcs11.obj
 0001:00054b4f       ?dtor$237@?0??get_pkcs11_error@@YA?AV?$shared_ptr@V?$basic_string@DU?$char_traits@D@std@@V?$allocator@D@2@@std@@@std@@K@Z@4HA 0000000180055b4f f   pkcs11.obj
 0001:00054b5b       ?dtor$238@?0??get_pkcs11_error@@YA?AV?$shared_ptr@V?$basic_string@DU?$char_traits@D@std@@V?$allocator@D@2@@std@@@std@@K@Z@4HA 0000000180055b5b f   pkcs11.obj
 0001:00054b78       ?dtor$239@?0??get_pkcs11_error@@YA?AV?$shared_ptr@V?$basic_string@DU?$char_traits@D@std@@V?$allocator@D@2@@std@@@std@@K@Z@4HA 0000000180055b78 f   pkcs11.obj
 0001:00054b84       ?dtor$240@?0??get_pkcs11_error@@YA?AV?$shared_ptr@V?$basic_string@DU?$char_traits@D@std@@V?$allocator@D@2@@std@@@std@@K@Z@4HA 0000000180055b84 f   pkcs11.obj
 0001:00054b90       ?dtor$241@?0??get_pkcs11_error@@YA?AV?$shared_ptr@V?$basic_string@DU?$char_traits@D@std@@V?$allocator@D@2@@std@@@std@@K@Z@4HA 0000000180055b90 f   pkcs11.obj
 0001:00054bad       ?dtor$242@?0??get_pkcs11_error@@YA?AV?$shared_ptr@V?$basic_string@DU?$char_traits@D@std@@V?$allocator@D@2@@std@@@std@@K@Z@4HA 0000000180055bad f   pkcs11.obj
 0001:00054bb9       ?dtor$243@?0??get_pkcs11_error@@YA?AV?$shared_ptr@V?$basic_string@DU?$char_traits@D@std@@V?$allocator@D@2@@std@@@std@@K@Z@4HA 0000000180055bb9 f   pkcs11.obj
 0001:00054bc5       ?dtor$244@?0??get_pkcs11_error@@YA?AV?$shared_ptr@V?$basic_string@DU?$char_traits@D@std@@V?$allocator@D@2@@std@@@std@@K@Z@4HA 0000000180055bc5 f   pkcs11.obj
 0001:00054be2       ?dtor$245@?0??get_pkcs11_error@@YA?AV?$shared_ptr@V?$basic_string@DU?$char_traits@D@std@@V?$allocator@D@2@@std@@@std@@K@Z@4HA 0000000180055be2 f   pkcs11.obj
 0001:00054bee       ?dtor$246@?0??get_pkcs11_error@@YA?AV?$shared_ptr@V?$basic_string@DU?$char_traits@D@std@@V?$allocator@D@2@@std@@@std@@K@Z@4HA 0000000180055bee f   pkcs11.obj
 0001:00054bfa       ?dtor$247@?0??get_pkcs11_error@@YA?AV?$shared_ptr@V?$basic_string@DU?$char_traits@D@std@@V?$allocator@D@2@@std@@@std@@K@Z@4HA 0000000180055bfa f   pkcs11.obj
 0001:00054c17       ?dtor$248@?0??get_pkcs11_error@@YA?AV?$shared_ptr@V?$basic_string@DU?$char_traits@D@std@@V?$allocator@D@2@@std@@@std@@K@Z@4HA 0000000180055c17 f   pkcs11.obj
 0001:00054c23       ?dtor$249@?0??get_pkcs11_error@@YA?AV?$shared_ptr@V?$basic_string@DU?$char_traits@D@std@@V?$allocator@D@2@@std@@@std@@K@Z@4HA 0000000180055c23 f   pkcs11.obj
 0001:00054c2f       ?dtor$250@?0??get_pkcs11_error@@YA?AV?$shared_ptr@V?$basic_string@DU?$char_traits@D@std@@V?$allocator@D@2@@std@@@std@@K@Z@4HA 0000000180055c2f f   pkcs11.obj
 0001:00054c4c       ?dtor$251@?0??get_pkcs11_error@@YA?AV?$shared_ptr@V?$basic_string@DU?$char_traits@D@std@@V?$allocator@D@2@@std@@@std@@K@Z@4HA 0000000180055c4c f   pkcs11.obj
 0001:00054c58       ?dtor$252@?0??get_pkcs11_error@@YA?AV?$shared_ptr@V?$basic_string@DU?$char_traits@D@std@@V?$allocator@D@2@@std@@@std@@K@Z@4HA 0000000180055c58 f   pkcs11.obj
 0001:00054c64       ?dtor$253@?0??get_pkcs11_error@@YA?AV?$shared_ptr@V?$basic_string@DU?$char_traits@D@std@@V?$allocator@D@2@@std@@@std@@K@Z@4HA 0000000180055c64 f   pkcs11.obj
 0001:00054c81       ?dtor$254@?0??get_pkcs11_error@@YA?AV?$shared_ptr@V?$basic_string@DU?$char_traits@D@std@@V?$allocator@D@2@@std@@@std@@K@Z@4HA 0000000180055c81 f   pkcs11.obj
 0001:00054c8d       ?dtor$255@?0??get_pkcs11_error@@YA?AV?$shared_ptr@V?$basic_string@DU?$char_traits@D@std@@V?$allocator@D@2@@std@@@std@@K@Z@4HA 0000000180055c8d f   pkcs11.obj
 0001:00054c99       ?dtor$256@?0??get_pkcs11_error@@YA?AV?$shared_ptr@V?$basic_string@DU?$char_traits@D@std@@V?$allocator@D@2@@std@@@std@@K@Z@4HA 0000000180055c99 f   pkcs11.obj
 0001:00054cb6       ?dtor$257@?0??get_pkcs11_error@@YA?AV?$shared_ptr@V?$basic_string@DU?$char_traits@D@std@@V?$allocator@D@2@@std@@@std@@K@Z@4HA 0000000180055cb6 f   pkcs11.obj
 0001:00054cc2       ?dtor$258@?0??get_pkcs11_error@@YA?AV?$shared_ptr@V?$basic_string@DU?$char_traits@D@std@@V?$allocator@D@2@@std@@@std@@K@Z@4HA 0000000180055cc2 f   pkcs11.obj
 0001:00054cce       ?dtor$259@?0??get_pkcs11_error@@YA?AV?$shared_ptr@V?$basic_string@DU?$char_traits@D@std@@V?$allocator@D@2@@std@@@std@@K@Z@4HA 0000000180055cce f   pkcs11.obj
 0001:00054ceb       ?dtor$260@?0??get_pkcs11_error@@YA?AV?$shared_ptr@V?$basic_string@DU?$char_traits@D@std@@V?$allocator@D@2@@std@@@std@@K@Z@4HA 0000000180055ceb f   pkcs11.obj
 0001:00054cf7       ?dtor$261@?0??get_pkcs11_error@@YA?AV?$shared_ptr@V?$basic_string@DU?$char_traits@D@std@@V?$allocator@D@2@@std@@@std@@K@Z@4HA 0000000180055cf7 f   pkcs11.obj
 0001:00054d03       ?dtor$262@?0??get_pkcs11_error@@YA?AV?$shared_ptr@V?$basic_string@DU?$char_traits@D@std@@V?$allocator@D@2@@std@@@std@@K@Z@4HA 0000000180055d03 f   pkcs11.obj
 0001:00054d20       ?dtor$263@?0??get_pkcs11_error@@YA?AV?$shared_ptr@V?$basic_string@DU?$char_traits@D@std@@V?$allocator@D@2@@std@@@std@@K@Z@4HA 0000000180055d20 f   pkcs11.obj
 0001:00054d2c       ?dtor$264@?0??get_pkcs11_error@@YA?AV?$shared_ptr@V?$basic_string@DU?$char_traits@D@std@@V?$allocator@D@2@@std@@@std@@K@Z@4HA 0000000180055d2c f   pkcs11.obj
 0001:00054d38       ?dtor$265@?0??get_pkcs11_error@@YA?AV?$shared_ptr@V?$basic_string@DU?$char_traits@D@std@@V?$allocator@D@2@@std@@@std@@K@Z@4HA 0000000180055d38 f   pkcs11.obj
 0001:00054d55       ?dtor$266@?0??get_pkcs11_error@@YA?AV?$shared_ptr@V?$basic_string@DU?$char_traits@D@std@@V?$allocator@D@2@@std@@@std@@K@Z@4HA 0000000180055d55 f   pkcs11.obj
 0001:00054d61       ?dtor$267@?0??get_pkcs11_error@@YA?AV?$shared_ptr@V?$basic_string@DU?$char_traits@D@std@@V?$allocator@D@2@@std@@@std@@K@Z@4HA 0000000180055d61 f   pkcs11.obj
 0001:00054d6d       ?dtor$268@?0??get_pkcs11_error@@YA?AV?$shared_ptr@V?$basic_string@DU?$char_traits@D@std@@V?$allocator@D@2@@std@@@std@@K@Z@4HA 0000000180055d6d f   pkcs11.obj
 0001:00054d8a       ?dtor$269@?0??get_pkcs11_error@@YA?AV?$shared_ptr@V?$basic_string@DU?$char_traits@D@std@@V?$allocator@D@2@@std@@@std@@K@Z@4HA 0000000180055d8a f   pkcs11.obj
 0001:00054d96       ?dtor$270@?0??get_pkcs11_error@@YA?AV?$shared_ptr@V?$basic_string@DU?$char_traits@D@std@@V?$allocator@D@2@@std@@@std@@K@Z@4HA 0000000180055d96 f   pkcs11.obj
 0001:00054da2       ?dtor$271@?0??get_pkcs11_error@@YA?AV?$shared_ptr@V?$basic_string@DU?$char_traits@D@std@@V?$allocator@D@2@@std@@@std@@K@Z@4HA 0000000180055da2 f   pkcs11.obj
 0001:00054dbf       ?dtor$272@?0??get_pkcs11_error@@YA?AV?$shared_ptr@V?$basic_string@DU?$char_traits@D@std@@V?$allocator@D@2@@std@@@std@@K@Z@4HA 0000000180055dbf f   pkcs11.obj
 0001:00054dcb       ?dtor$273@?0??get_pkcs11_error@@YA?AV?$shared_ptr@V?$basic_string@DU?$char_traits@D@std@@V?$allocator@D@2@@std@@@std@@K@Z@4HA 0000000180055dcb f   pkcs11.obj
 0001:00054dd7       ?dtor$274@?0??get_pkcs11_error@@YA?AV?$shared_ptr@V?$basic_string@DU?$char_traits@D@std@@V?$allocator@D@2@@std@@@std@@K@Z@4HA 0000000180055dd7 f   pkcs11.obj
 0001:00054df4       ?dtor$275@?0??get_pkcs11_error@@YA?AV?$shared_ptr@V?$basic_string@DU?$char_traits@D@std@@V?$allocator@D@2@@std@@@std@@K@Z@4HA 0000000180055df4 f   pkcs11.obj
 0001:00054e00       ?dtor$276@?0??get_pkcs11_error@@YA?AV?$shared_ptr@V?$basic_string@DU?$char_traits@D@std@@V?$allocator@D@2@@std@@@std@@K@Z@4HA 0000000180055e00 f   pkcs11.obj
 0001:00054e0c       ?dtor$277@?0??get_pkcs11_error@@YA?AV?$shared_ptr@V?$basic_string@DU?$char_traits@D@std@@V?$allocator@D@2@@std@@@std@@K@Z@4HA 0000000180055e0c f   pkcs11.obj
 0001:00054e29       ?dtor$278@?0??get_pkcs11_error@@YA?AV?$shared_ptr@V?$basic_string@DU?$char_traits@D@std@@V?$allocator@D@2@@std@@@std@@K@Z@4HA 0000000180055e29 f   pkcs11.obj
 0001:00054e35       ?dtor$279@?0??get_pkcs11_error@@YA?AV?$shared_ptr@V?$basic_string@DU?$char_traits@D@std@@V?$allocator@D@2@@std@@@std@@K@Z@4HA 0000000180055e35 f   pkcs11.obj
 0001:00054e41       ?dtor$280@?0??get_pkcs11_error@@YA?AV?$shared_ptr@V?$basic_string@DU?$char_traits@D@std@@V?$allocator@D@2@@std@@@std@@K@Z@4HA 0000000180055e41 f   pkcs11.obj
 0001:00054e60       ?dtor$0@?0??Load@PKCS11@@QEAAXV?$shared_ptr@V?$basic_string@DU?$char_traits@D@std@@V?$allocator@D@2@@std@@@std@@@Z@4HA 0000000180055e60 f   pkcs11.obj
 0001:00054e6c       ?dtor$1@?0??Load@PKCS11@@QEAAXV?$shared_ptr@V?$basic_string@DU?$char_traits@D@std@@V?$allocator@D@2@@std@@@std@@@Z@4HA 0000000180055e6c f   pkcs11.obj
 0001:00054e8c       ?dtor$3@?0??Load@PKCS11@@QEAAXV?$shared_ptr@V?$basic_string@DU?$char_traits@D@std@@V?$allocator@D@2@@std@@@std@@@Z@4HA 0000000180055e8c f   pkcs11.obj
 0001:00054eac       ?dtor$5@?0??Load@PKCS11@@QEAAXV?$shared_ptr@V?$basic_string@DU?$char_traits@D@std@@V?$allocator@D@2@@std@@@std@@@Z@4HA 0000000180055eac f   pkcs11.obj
 0001:00054ecc       ?dtor$6@?0??Load@PKCS11@@QEAAXV?$shared_ptr@V?$basic_string@DU?$char_traits@D@std@@V?$allocator@D@2@@std@@@std@@@Z@4HA 0000000180055ecc f   pkcs11.obj
 0001:00054ed8       ?dtor$7@?0??Load@PKCS11@@QEAAXV?$shared_ptr@V?$basic_string@DU?$char_traits@D@std@@V?$allocator@D@2@@std@@@std@@@Z@4HA 0000000180055ed8 f   pkcs11.obj
 0001:00054f07       ?catch$19@?0??Load@PKCS11@@QEAAXV?$shared_ptr@V?$basic_string@DU?$char_traits@D@std@@V?$allocator@D@2@@std@@@std@@@Z@4HA 0000000180055f07 f   pkcs11.obj
 0001:00054f14       __catch$?Load@PKCS11@@QEAAXV?$shared_ptr@V?$basic_string@DU?$char_traits@D@std@@V?$allocator@D@2@@std@@@std@@@Z$0 0000000180055f14 f   pkcs11.obj
 0001:00054f42       ?dtor$8@?0??Load@PKCS11@@QEAAXV?$shared_ptr@V?$basic_string@DU?$char_traits@D@std@@V?$allocator@D@2@@std@@@std@@@Z@4HA 0000000180055f42 f   pkcs11.obj
 0001:00054f4e       ?catch$20@?0??Load@PKCS11@@QEAAXV?$shared_ptr@V?$basic_string@DU?$char_traits@D@std@@V?$allocator@D@2@@std@@@std@@@Z@4HA 0000000180055f4e f   pkcs11.obj
 0001:00054f5e       __catch$?Load@PKCS11@@QEAAXV?$shared_ptr@V?$basic_string@DU?$char_traits@D@std@@V?$allocator@D@2@@std@@@std@@@Z$1 0000000180055f5e f   pkcs11.obj
 0001:00055043       ?dtor$9@?0??Load@PKCS11@@QEAAXV?$shared_ptr@V?$basic_string@DU?$char_traits@D@std@@V?$allocator@D@2@@std@@@std@@@Z@4HA 0000000180056043 f   pkcs11.obj
 0001:00055070       ?dtor$0@?0??C_Initialize@PKCS11@@QEAAXXZ@4HA 0000000180056070 f   pkcs11.obj
 0001:00055090       ?dtor$1@?0??C_Initialize@PKCS11@@QEAAXXZ@4HA 0000000180056090 f   pkcs11.obj
 0001:0005509c       ?dtor$2@?0??C_Initialize@PKCS11@@QEAAXXZ@4HA 000000018005609c f   pkcs11.obj
 0001:000550cb       ?catch$10@?0??C_Initialize@PKCS11@@QEAAXXZ@4HA 00000001800560cb f   pkcs11.obj
 0001:000550d8       __catch$?C_Initialize@PKCS11@@QEAAXXZ$0 00000001800560d8 f   pkcs11.obj
 0001:00055106       ?dtor$3@?0??C_Initialize@PKCS11@@QEAAXXZ@4HA 0000000180056106 f   pkcs11.obj
 0001:00055112       ?catch$11@?0??C_Initialize@PKCS11@@QEAAXXZ@4HA 0000000180056112 f   pkcs11.obj
 0001:00055122       __catch$?C_Initialize@PKCS11@@QEAAXXZ$1 0000000180056122 f   pkcs11.obj
 0001:00055201       ?dtor$4@?0??C_Initialize@PKCS11@@QEAAXXZ@4HA 0000000180056201 f   pkcs11.obj
 0001:00055230       ?dtor$0@?0??C_Finalize@PKCS11@@QEAAXXZ@4HA 0000000180056230 f   pkcs11.obj
 0001:00055250       ?dtor$1@?0??C_Finalize@PKCS11@@QEAAXXZ@4HA 0000000180056250 f   pkcs11.obj
 0001:0005525c       ?dtor$2@?0??C_Finalize@PKCS11@@QEAAXXZ@4HA 000000018005625c f   pkcs11.obj
 0001:0005528b       ?catch$10@?0??C_Finalize@PKCS11@@QEAAXXZ@4HA 000000018005628b f   pkcs11.obj
 0001:00055298       __catch$?C_Finalize@PKCS11@@QEAAXXZ$0 0000000180056298 f   pkcs11.obj
 0001:000552c6       ?dtor$3@?0??C_Finalize@PKCS11@@QEAAXXZ@4HA 00000001800562c6 f   pkcs11.obj
 0001:000552d2       ?catch$11@?0??C_Finalize@PKCS11@@QEAAXXZ@4HA 00000001800562d2 f   pkcs11.obj
 0001:000552e2       __catch$?C_Finalize@PKCS11@@QEAAXXZ$1 00000001800562e2 f   pkcs11.obj
 0001:000553c1       ?dtor$4@?0??C_Finalize@PKCS11@@QEAAXXZ@4HA 00000001800563c1 f   pkcs11.obj
 0001:000553f0       ?dtor$0@?0??C_GetInfo@PKCS11@@QEAA?AV?$shared_ptr@UCK_INFO@@@std@@XZ@4HA 00000001800563f0 f   pkcs11.obj
 0001:00055419       ?dtor$1@?0??C_GetInfo@PKCS11@@QEAA?AV?$shared_ptr@UCK_INFO@@@std@@XZ@4HA 0000000180056419 f   pkcs11.obj
 0001:00055439       ?dtor$2@?0??C_GetInfo@PKCS11@@QEAA?AV?$shared_ptr@UCK_INFO@@@std@@XZ@4HA 0000000180056439 f   pkcs11.obj
 0001:00055445       ?dtor$3@?0??C_GetInfo@PKCS11@@QEAA?AV?$shared_ptr@UCK_INFO@@@std@@XZ@4HA 0000000180056445 f   pkcs11.obj
 0001:0005546e       ?catch$11@?0??C_GetInfo@PKCS11@@QEAA?AV?$shared_ptr@UCK_INFO@@@std@@XZ@4HA 000000018005646e f   pkcs11.obj
 0001:0005547b       __catch$?C_GetInfo@PKCS11@@QEAA?AV?$shared_ptr@UCK_INFO@@@std@@XZ$0 000000018005647b f   pkcs11.obj
 0001:000554a9       ?dtor$4@?0??C_GetInfo@PKCS11@@QEAA?AV?$shared_ptr@UCK_INFO@@@std@@XZ@4HA 00000001800564a9 f   pkcs11.obj
 0001:000554b5       ?catch$12@?0??C_GetInfo@PKCS11@@QEAA?AV?$shared_ptr@UCK_INFO@@@std@@XZ@4HA 00000001800564b5 f   pkcs11.obj
 0001:000554c5       __catch$?C_GetInfo@PKCS11@@QEAA?AV?$shared_ptr@UCK_INFO@@@std@@XZ$1 00000001800564c5 f   pkcs11.obj
 0001:000555a4       ?dtor$5@?0??C_GetInfo@PKCS11@@QEAA?AV?$shared_ptr@UCK_INFO@@@std@@XZ@4HA 00000001800565a4 f   pkcs11.obj
 0001:000555d0       ?dtor$0@?0??C_GetSlotList@PKCS11@@QEAA?AV?$vector@KV?$allocator@K@std@@@std@@E@Z@4HA 00000001800565d0 f   pkcs11.obj
 0001:000555f0       ?dtor$1@?0??C_GetSlotList@PKCS11@@QEAA?AV?$vector@KV?$allocator@K@std@@@std@@E@Z@4HA 00000001800565f0 f   pkcs11.obj
 0001:000555fc       ?dtor$2@?0??C_GetSlotList@PKCS11@@QEAA?AV?$vector@KV?$allocator@K@std@@@std@@E@Z@4HA 00000001800565fc f   pkcs11.obj
 0001:00055625       ?dtor$3@?0??C_GetSlotList@PKCS11@@QEAA?AV?$vector@KV?$allocator@K@std@@@std@@E@Z@4HA 0000000180056625 f   pkcs11.obj
 0001:00055631       ?dtor$4@?0??C_GetSlotList@PKCS11@@QEAA?AV?$vector@KV?$allocator@K@std@@@std@@E@Z@4HA 0000000180056631 f   pkcs11.obj
 0001:00055651       ?dtor$5@?0??C_GetSlotList@PKCS11@@QEAA?AV?$vector@KV?$allocator@K@std@@@std@@E@Z@4HA 0000000180056651 f   pkcs11.obj
 0001:0005565d       ?dtor$6@?0??C_GetSlotList@PKCS11@@QEAA?AV?$vector@KV?$allocator@K@std@@@std@@E@Z@4HA 000000018005665d f   pkcs11.obj
 0001:00055686       ?catch$17@?0??C_GetSlotList@PKCS11@@QEAA?AV?$vector@KV?$allocator@K@std@@@std@@E@Z@4HA 0000000180056686 f   pkcs11.obj
 0001:00055693       __catch$?C_GetSlotList@PKCS11@@QEAA?AV?$vector@KV?$allocator@K@std@@@std@@E@Z$0 0000000180056693 f   pkcs11.obj
 0001:000556c1       ?dtor$8@?0??C_GetSlotList@PKCS11@@QEAA?AV?$vector@KV?$allocator@K@std@@@std@@E@Z@4HA 00000001800566c1 f   pkcs11.obj
 0001:000556cd       ?catch$18@?0??C_GetSlotList@PKCS11@@QEAA?AV?$vector@KV?$allocator@K@std@@@std@@E@Z@4HA 00000001800566cd f   pkcs11.obj
 0001:000556dd       __catch$?C_GetSlotList@PKCS11@@QEAA?AV?$vector@KV?$allocator@K@std@@@std@@E@Z$1 00000001800566dd f   pkcs11.obj
 0001:000557bc       ?dtor$9@?0??C_GetSlotList@PKCS11@@QEAA?AV?$vector@KV?$allocator@K@std@@@std@@E@Z@4HA 00000001800567bc f   pkcs11.obj
 0001:000557e0       ?dtor$0@?0??C_GetSlotInfo@PKCS11@@QEAA?AV?$shared_ptr@UCK_SLOT_INFO@@@std@@K@Z@4HA 00000001800567e0 f   pkcs11.obj
 0001:00055809       ?dtor$1@?0??C_GetSlotInfo@PKCS11@@QEAA?AV?$shared_ptr@UCK_SLOT_INFO@@@std@@K@Z@4HA 0000000180056809 f   pkcs11.obj
 0001:00055829       ?dtor$2@?0??C_GetSlotInfo@PKCS11@@QEAA?AV?$shared_ptr@UCK_SLOT_INFO@@@std@@K@Z@4HA 0000000180056829 f   pkcs11.obj
 0001:00055835       ?dtor$3@?0??C_GetSlotInfo@PKCS11@@QEAA?AV?$shared_ptr@UCK_SLOT_INFO@@@std@@K@Z@4HA 0000000180056835 f   pkcs11.obj
 0001:0005585e       ?catch$11@?0??C_GetSlotInfo@PKCS11@@QEAA?AV?$shared_ptr@UCK_SLOT_INFO@@@std@@K@Z@4HA 000000018005685e f   pkcs11.obj
 0001:0005586b       __catch$?C_GetSlotInfo@PKCS11@@QEAA?AV?$shared_ptr@UCK_SLOT_INFO@@@std@@K@Z$0 000000018005686b f   pkcs11.obj
 0001:00055899       ?dtor$4@?0??C_GetSlotInfo@PKCS11@@QEAA?AV?$shared_ptr@UCK_SLOT_INFO@@@std@@K@Z@4HA 0000000180056899 f   pkcs11.obj
 0001:000558a5       ?catch$12@?0??C_GetSlotInfo@PKCS11@@QEAA?AV?$shared_ptr@UCK_SLOT_INFO@@@std@@K@Z@4HA 00000001800568a5 f   pkcs11.obj
 0001:000558b5       __catch$?C_GetSlotInfo@PKCS11@@QEAA?AV?$shared_ptr@UCK_SLOT_INFO@@@std@@K@Z$1 00000001800568b5 f   pkcs11.obj
 0001:00055994       ?dtor$5@?0??C_GetSlotInfo@PKCS11@@QEAA?AV?$shared_ptr@UCK_SLOT_INFO@@@std@@K@Z@4HA 0000000180056994 f   pkcs11.obj
 0001:000559c0       ?dtor$0@?0??C_GetTokenInfo@PKCS11@@QEAA?AV?$shared_ptr@UCK_TOKEN_INFO@@@std@@K@Z@4HA 00000001800569c0 f   pkcs11.obj
 0001:000559e9       ?dtor$1@?0??C_GetTokenInfo@PKCS11@@QEAA?AV?$shared_ptr@UCK_TOKEN_INFO@@@std@@K@Z@4HA 00000001800569e9 f   pkcs11.obj
 0001:00055a09       ?dtor$2@?0??C_GetTokenInfo@PKCS11@@QEAA?AV?$shared_ptr@UCK_TOKEN_INFO@@@std@@K@Z@4HA 0000000180056a09 f   pkcs11.obj
 0001:00055a15       ?dtor$3@?0??C_GetTokenInfo@PKCS11@@QEAA?AV?$shared_ptr@UCK_TOKEN_INFO@@@std@@K@Z@4HA 0000000180056a15 f   pkcs11.obj
 0001:00055a3e       ?catch$11@?0??C_GetTokenInfo@PKCS11@@QEAA?AV?$shared_ptr@UCK_TOKEN_INFO@@@std@@K@Z@4HA 0000000180056a3e f   pkcs11.obj
 0001:00055a4b       __catch$?C_GetTokenInfo@PKCS11@@QEAA?AV?$shared_ptr@UCK_TOKEN_INFO@@@std@@K@Z$0 0000000180056a4b f   pkcs11.obj
 0001:00055a79       ?dtor$4@?0??C_GetTokenInfo@PKCS11@@QEAA?AV?$shared_ptr@UCK_TOKEN_INFO@@@std@@K@Z@4HA 0000000180056a79 f   pkcs11.obj
 0001:00055a85       ?catch$12@?0??C_GetTokenInfo@PKCS11@@QEAA?AV?$shared_ptr@UCK_TOKEN_INFO@@@std@@K@Z@4HA 0000000180056a85 f   pkcs11.obj
 0001:00055a95       __catch$?C_GetTokenInfo@PKCS11@@QEAA?AV?$shared_ptr@UCK_TOKEN_INFO@@@std@@K@Z$1 0000000180056a95 f   pkcs11.obj
 0001:00055b74       ?dtor$5@?0??C_GetTokenInfo@PKCS11@@QEAA?AV?$shared_ptr@UCK_TOKEN_INFO@@@std@@K@Z@4HA 0000000180056b74 f   pkcs11.obj
 0001:00055ba0       ?dtor$0@?0??C_GetMechanismList@PKCS11@@QEAA?AV?$vector@KV?$allocator@K@std@@@std@@K@Z@4HA 0000000180056ba0 f   pkcs11.obj
 0001:00055bc0       ?dtor$1@?0??C_GetMechanismList@PKCS11@@QEAA?AV?$vector@KV?$allocator@K@std@@@std@@K@Z@4HA 0000000180056bc0 f   pkcs11.obj
 0001:00055bcc       ?dtor$2@?0??C_GetMechanismList@PKCS11@@QEAA?AV?$vector@KV?$allocator@K@std@@@std@@K@Z@4HA 0000000180056bcc f   pkcs11.obj
 0001:00055bf5       ?dtor$3@?0??C_GetMechanismList@PKCS11@@QEAA?AV?$vector@KV?$allocator@K@std@@@std@@K@Z@4HA 0000000180056bf5 f   pkcs11.obj
 0001:00055c01       ?dtor$4@?0??C_GetMechanismList@PKCS11@@QEAA?AV?$vector@KV?$allocator@K@std@@@std@@K@Z@4HA 0000000180056c01 f   pkcs11.obj
 0001:00055c21       ?dtor$5@?0??C_GetMechanismList@PKCS11@@QEAA?AV?$vector@KV?$allocator@K@std@@@std@@K@Z@4HA 0000000180056c21 f   pkcs11.obj
 0001:00055c2d       ?dtor$6@?0??C_GetMechanismList@PKCS11@@QEAA?AV?$vector@KV?$allocator@K@std@@@std@@K@Z@4HA 0000000180056c2d f   pkcs11.obj
 0001:00055c56       ?catch$17@?0??C_GetMechanismList@PKCS11@@QEAA?AV?$vector@KV?$allocator@K@std@@@std@@K@Z@4HA 0000000180056c56 f   pkcs11.obj
 0001:00055c63       __catch$?C_GetMechanismList@PKCS11@@QEAA?AV?$vector@KV?$allocator@K@std@@@std@@K@Z$0 0000000180056c63 f   pkcs11.obj
 0001:00055c91       ?dtor$8@?0??C_GetMechanismList@PKCS11@@QEAA?AV?$vector@KV?$allocator@K@std@@@std@@K@Z@4HA 0000000180056c91 f   pkcs11.obj
 0001:00055c9d       ?catch$18@?0??C_GetMechanismList@PKCS11@@QEAA?AV?$vector@KV?$allocator@K@std@@@std@@K@Z@4HA 0000000180056c9d f   pkcs11.obj
 0001:00055cad       __catch$?C_GetMechanismList@PKCS11@@QEAA?AV?$vector@KV?$allocator@K@std@@@std@@K@Z$1 0000000180056cad f   pkcs11.obj
 0001:00055d8c       ?dtor$9@?0??C_GetMechanismList@PKCS11@@QEAA?AV?$vector@KV?$allocator@K@std@@@std@@K@Z@4HA 0000000180056d8c f   pkcs11.obj
 0001:00055db0       ?dtor$0@?0??C_GetMechanismInfo@PKCS11@@QEAA?AV?$shared_ptr@UCK_MECHANISM_INFO@@@std@@KK@Z@4HA 0000000180056db0 f   pkcs11.obj
 0001:00055dd9       ?dtor$1@?0??C_GetMechanismInfo@PKCS11@@QEAA?AV?$shared_ptr@UCK_MECHANISM_INFO@@@std@@KK@Z@4HA 0000000180056dd9 f   pkcs11.obj
 0001:00055df6       ?dtor$2@?0??C_GetMechanismInfo@PKCS11@@QEAA?AV?$shared_ptr@UCK_MECHANISM_INFO@@@std@@KK@Z@4HA 0000000180056df6 f   pkcs11.obj
 0001:00055e02       ?dtor$3@?0??C_GetMechanismInfo@PKCS11@@QEAA?AV?$shared_ptr@UCK_MECHANISM_INFO@@@std@@KK@Z@4HA 0000000180056e02 f   pkcs11.obj
 0001:00055e2b       ?catch$11@?0??C_GetMechanismInfo@PKCS11@@QEAA?AV?$shared_ptr@UCK_MECHANISM_INFO@@@std@@KK@Z@4HA 0000000180056e2b f   pkcs11.obj
 0001:00055e38       __catch$?C_GetMechanismInfo@PKCS11@@QEAA?AV?$shared_ptr@UCK_MECHANISM_INFO@@@std@@KK@Z$0 0000000180056e38 f   pkcs11.obj
 0001:00055e66       ?dtor$4@?0??C_GetMechanismInfo@PKCS11@@QEAA?AV?$shared_ptr@UCK_MECHANISM_INFO@@@std@@KK@Z@4HA 0000000180056e66 f   pkcs11.obj
 0001:00055e72       ?catch$12@?0??C_GetMechanismInfo@PKCS11@@QEAA?AV?$shared_ptr@UCK_MECHANISM_INFO@@@std@@KK@Z@4HA 0000000180056e72 f   pkcs11.obj
 0001:00055e82       __catch$?C_GetMechanismInfo@PKCS11@@QEAA?AV?$shared_ptr@UCK_MECHANISM_INFO@@@std@@KK@Z$1 0000000180056e82 f   pkcs11.obj
 0001:00055f5b       ?dtor$5@?0??C_GetMechanismInfo@PKCS11@@QEAA?AV?$shared_ptr@UCK_MECHANISM_INFO@@@std@@KK@Z@4HA 0000000180056f5b f   pkcs11.obj
 0001:00055f80       ?dtor$0@?0??C_InitToken@PKCS11@@QEAA?AV?$shared_ptr@V?$basic_string@DU?$char_traits@D@std@@V?$allocator@D@2@@std@@@std@@KV23@0@Z@4HA 0000000180056f80 f   pkcs11.obj
 0001:00055f8c       ?dtor$1@?0??C_InitToken@PKCS11@@QEAA?AV?$shared_ptr@V?$basic_string@DU?$char_traits@D@std@@V?$allocator@D@2@@std@@@std@@KV23@0@Z@4HA 0000000180056f8c f   pkcs11.obj
 0001:00055f98       ?dtor$2@?0??C_InitToken@PKCS11@@QEAA?AV?$shared_ptr@V?$basic_string@DU?$char_traits@D@std@@V?$allocator@D@2@@std@@@std@@KV23@0@Z@4HA 0000000180056f98 f   pkcs11.obj
 0001:00055fb8       ?dtor$3@?0??C_InitToken@PKCS11@@QEAA?AV?$shared_ptr@V?$basic_string@DU?$char_traits@D@std@@V?$allocator@D@2@@std@@@std@@KV23@0@Z@4HA 0000000180056fb8 f   pkcs11.obj
 0001:00055fc4       ?dtor$4@?0??C_InitToken@PKCS11@@QEAA?AV?$shared_ptr@V?$basic_string@DU?$char_traits@D@std@@V?$allocator@D@2@@std@@@std@@KV23@0@Z@4HA 0000000180056fc4 f   pkcs11.obj
 0001:00055fed       ?catch$13@?0??C_InitToken@PKCS11@@QEAA?AV?$shared_ptr@V?$basic_string@DU?$char_traits@D@std@@V?$allocator@D@2@@std@@@std@@KV23@0@Z@4HA 0000000180056fed f   pkcs11.obj
 0001:00055ffa       __catch$?C_InitToken@PKCS11@@QEAA?AV?$shared_ptr@V?$basic_string@DU?$char_traits@D@std@@V?$allocator@D@2@@std@@@std@@KV23@0@Z$0 0000000180056ffa f   pkcs11.obj
 0001:00056028       ?dtor$6@?0??C_InitToken@PKCS11@@QEAA?AV?$shared_ptr@V?$basic_string@DU?$char_traits@D@std@@V?$allocator@D@2@@std@@@std@@KV23@0@Z@4HA 0000000180057028 f   pkcs11.obj
 0001:00056034       ?catch$14@?0??C_InitToken@PKCS11@@QEAA?AV?$shared_ptr@V?$basic_string@DU?$char_traits@D@std@@V?$allocator@D@2@@std@@@std@@KV23@0@Z@4HA 0000000180057034 f   pkcs11.obj
 0001:00056044       __catch$?C_InitToken@PKCS11@@QEAA?AV?$shared_ptr@V?$basic_string@DU?$char_traits@D@std@@V?$allocator@D@2@@std@@@std@@KV23@0@Z$1 0000000180057044 f   pkcs11.obj
 0001:00056123       ?dtor$7@?0??C_InitToken@PKCS11@@QEAA?AV?$shared_ptr@V?$basic_string@DU?$char_traits@D@std@@V?$allocator@D@2@@std@@@std@@KV23@0@Z@4HA 0000000180057123 f   pkcs11.obj
 0001:00056150       ?dtor$0@?0??C_InitPIN@PKCS11@@QEAAXKV?$shared_ptr@V?$basic_string@DU?$char_traits@D@std@@V?$allocator@D@2@@std@@@std@@@Z@4HA 0000000180057150 f   pkcs11.obj
 0001:0005615c       ?dtor$1@?0??C_InitPIN@PKCS11@@QEAAXKV?$shared_ptr@V?$basic_string@DU?$char_traits@D@std@@V?$allocator@D@2@@std@@@std@@@Z@4HA 000000018005715c f   pkcs11.obj
 0001:0005617c       ?dtor$2@?0??C_InitPIN@PKCS11@@QEAAXKV?$shared_ptr@V?$basic_string@DU?$char_traits@D@std@@V?$allocator@D@2@@std@@@std@@@Z@4HA 000000018005717c f   pkcs11.obj
 0001:00056188       ?dtor$3@?0??C_InitPIN@PKCS11@@QEAAXKV?$shared_ptr@V?$basic_string@DU?$char_traits@D@std@@V?$allocator@D@2@@std@@@std@@@Z@4HA 0000000180057188 f   pkcs11.obj
 0001:000561b7       ?catch$11@?0??C_InitPIN@PKCS11@@QEAAXKV?$shared_ptr@V?$basic_string@DU?$char_traits@D@std@@V?$allocator@D@2@@std@@@std@@@Z@4HA 00000001800571b7 f   pkcs11.obj
 0001:000561c4       __catch$?C_InitPIN@PKCS11@@QEAAXKV?$shared_ptr@V?$basic_string@DU?$char_traits@D@std@@V?$allocator@D@2@@std@@@std@@@Z$0 00000001800571c4 f   pkcs11.obj
 0001:000561f2       ?dtor$4@?0??C_InitPIN@PKCS11@@QEAAXKV?$shared_ptr@V?$basic_string@DU?$char_traits@D@std@@V?$allocator@D@2@@std@@@std@@@Z@4HA 00000001800571f2 f   pkcs11.obj
 0001:000561fe       ?catch$12@?0??C_InitPIN@PKCS11@@QEAAXKV?$shared_ptr@V?$basic_string@DU?$char_traits@D@std@@V?$allocator@D@2@@std@@@std@@@Z@4HA 00000001800571fe f   pkcs11.obj
 0001:0005620e       __catch$?C_InitPIN@PKCS11@@QEAAXKV?$shared_ptr@V?$basic_string@DU?$char_traits@D@std@@V?$allocator@D@2@@std@@@std@@@Z$1 000000018005720e f   pkcs11.obj
 0001:000562ed       ?dtor$5@?0??C_InitPIN@PKCS11@@QEAAXKV?$shared_ptr@V?$basic_string@DU?$char_traits@D@std@@V?$allocator@D@2@@std@@@std@@@Z@4HA 00000001800572ed f   pkcs11.obj
 0001:00056310       ?dtor$0@?0??C_SetPIN@PKCS11@@QEAAXKV?$shared_ptr@V?$basic_string@DU?$char_traits@D@std@@V?$allocator@D@2@@std@@@std@@0@Z@4HA 0000000180057310 f   pkcs11.obj
 0001:0005631c       ?dtor$1@?0??C_SetPIN@PKCS11@@QEAAXKV?$shared_ptr@V?$basic_string@DU?$char_traits@D@std@@V?$allocator@D@2@@std@@@std@@0@Z@4HA 000000018005731c f   pkcs11.obj
 0001:00056328       ?dtor$2@?0??C_SetPIN@PKCS11@@QEAAXKV?$shared_ptr@V?$basic_string@DU?$char_traits@D@std@@V?$allocator@D@2@@std@@@std@@0@Z@4HA 0000000180057328 f   pkcs11.obj
 0001:00056345       ?dtor$3@?0??C_SetPIN@PKCS11@@QEAAXKV?$shared_ptr@V?$basic_string@DU?$char_traits@D@std@@V?$allocator@D@2@@std@@@std@@0@Z@4HA 0000000180057345 f   pkcs11.obj
 0001:00056351       ?dtor$4@?0??C_SetPIN@PKCS11@@QEAAXKV?$shared_ptr@V?$basic_string@DU?$char_traits@D@std@@V?$allocator@D@2@@std@@@std@@0@Z@4HA 0000000180057351 f   pkcs11.obj
 0001:00056380       ?catch$12@?0??C_SetPIN@PKCS11@@QEAAXKV?$shared_ptr@V?$basic_string@DU?$char_traits@D@std@@V?$allocator@D@2@@std@@@std@@0@Z@4HA 0000000180057380 f   pkcs11.obj
 0001:0005638d       __catch$?C_SetPIN@PKCS11@@QEAAXKV?$shared_ptr@V?$basic_string@DU?$char_traits@D@std@@V?$allocator@D@2@@std@@@std@@0@Z$0 000000018005738d f   pkcs11.obj
 0001:000563bb       ?dtor$5@?0??C_SetPIN@PKCS11@@QEAAXKV?$shared_ptr@V?$basic_string@DU?$char_traits@D@std@@V?$allocator@D@2@@std@@@std@@0@Z@4HA 00000001800573bb f   pkcs11.obj
 0001:000563c7       ?catch$13@?0??C_SetPIN@PKCS11@@QEAAXKV?$shared_ptr@V?$basic_string@DU?$char_traits@D@std@@V?$allocator@D@2@@std@@@std@@0@Z@4HA 00000001800573c7 f   pkcs11.obj
 0001:000563d7       __catch$?C_SetPIN@PKCS11@@QEAAXKV?$shared_ptr@V?$basic_string@DU?$char_traits@D@std@@V?$allocator@D@2@@std@@@std@@0@Z$1 00000001800573d7 f   pkcs11.obj
 0001:000564b0       ?dtor$6@?0??C_SetPIN@PKCS11@@QEAAXKV?$shared_ptr@V?$basic_string@DU?$char_traits@D@std@@V?$allocator@D@2@@std@@@std@@0@Z@4HA 00000001800574b0 f   pkcs11.obj
 0001:000564d0       ?dtor$0@?0??C_OpenSession@PKCS11@@QEAAKKK@Z@4HA 00000001800574d0 f   pkcs11.obj
 0001:000564ed       ?dtor$1@?0??C_OpenSession@PKCS11@@QEAAKKK@Z@4HA 00000001800574ed f   pkcs11.obj
 0001:000564f9       ?dtor$2@?0??C_OpenSession@PKCS11@@QEAAKKK@Z@4HA 00000001800574f9 f   pkcs11.obj
 0001:00056528       ?catch$10@?0??C_OpenSession@PKCS11@@QEAAKKK@Z@4HA 0000000180057528 f   pkcs11.obj
 0001:00056535       __catch$?C_OpenSession@PKCS11@@QEAAKKK@Z$0 0000000180057535 f   pkcs11.obj
 0001:00056563       ?dtor$3@?0??C_OpenSession@PKCS11@@QEAAKKK@Z@4HA 0000000180057563 f   pkcs11.obj
 0001:0005656f       ?catch$11@?0??C_OpenSession@PKCS11@@QEAAKKK@Z@4HA 000000018005756f f   pkcs11.obj
 0001:0005657f       __catch$?C_OpenSession@PKCS11@@QEAAKKK@Z$1 000000018005757f f   pkcs11.obj
 0001:00056658       ?dtor$4@?0??C_OpenSession@PKCS11@@QEAAKKK@Z@4HA 0000000180057658 f   pkcs11.obj
 0001:00056680       ?dtor$0@?0??C_CloseSession@PKCS11@@QEAAXK@Z@4HA 0000000180057680 f   pkcs11.obj
 0001:000566a0       ?dtor$1@?0??C_CloseSession@PKCS11@@QEAAXK@Z@4HA 00000001800576a0 f   pkcs11.obj
 0001:000566ac       ?dtor$2@?0??C_CloseSession@PKCS11@@QEAAXK@Z@4HA 00000001800576ac f   pkcs11.obj
 0001:000566db       ?catch$10@?0??C_CloseSession@PKCS11@@QEAAXK@Z@4HA 00000001800576db f   pkcs11.obj
 0001:000566e8       __catch$?C_CloseSession@PKCS11@@QEAAXK@Z$0 00000001800576e8 f   pkcs11.obj
 0001:00056716       ?dtor$3@?0??C_CloseSession@PKCS11@@QEAAXK@Z@4HA 0000000180057716 f   pkcs11.obj
 0001:00056722       ?catch$11@?0??C_CloseSession@PKCS11@@QEAAXK@Z@4HA 0000000180057722 f   pkcs11.obj
 0001:00056732       __catch$?C_CloseSession@PKCS11@@QEAAXK@Z$1 0000000180057732 f   pkcs11.obj
 0001:00056811       ?dtor$4@?0??C_CloseSession@PKCS11@@QEAAXK@Z@4HA 0000000180057811 f   pkcs11.obj
 0001:00056840       ?dtor$0@?0??C_CloseAllSessions@PKCS11@@QEAAXK@Z@4HA 0000000180057840 f   pkcs11.obj
 0001:00056860       ?dtor$1@?0??C_CloseAllSessions@PKCS11@@QEAAXK@Z@4HA 0000000180057860 f   pkcs11.obj
 0001:0005686c       ?dtor$2@?0??C_CloseAllSessions@PKCS11@@QEAAXK@Z@4HA 000000018005786c f   pkcs11.obj
 0001:0005689b       ?catch$10@?0??C_CloseAllSessions@PKCS11@@QEAAXK@Z@4HA 000000018005789b f   pkcs11.obj
 0001:000568a8       __catch$?C_CloseAllSessions@PKCS11@@QEAAXK@Z$0 00000001800578a8 f   pkcs11.obj
 0001:000568d6       ?dtor$3@?0??C_CloseAllSessions@PKCS11@@QEAAXK@Z@4HA 00000001800578d6 f   pkcs11.obj
 0001:000568e2       ?catch$11@?0??C_CloseAllSessions@PKCS11@@QEAAXK@Z@4HA 00000001800578e2 f   pkcs11.obj
 0001:000568f2       __catch$?C_CloseAllSessions@PKCS11@@QEAAXK@Z$1 00000001800578f2 f   pkcs11.obj
 0001:000569d1       ?dtor$4@?0??C_CloseAllSessions@PKCS11@@QEAAXK@Z@4HA 00000001800579d1 f   pkcs11.obj
 0001:00056a00       ?dtor$0@?0??C_GetSessionInfo@PKCS11@@QEAA?AV?$shared_ptr@UCK_SESSION_INFO@@@std@@K@Z@4HA 0000000180057a00 f   pkcs11.obj
 0001:00056a29       ?dtor$1@?0??C_GetSessionInfo@PKCS11@@QEAA?AV?$shared_ptr@UCK_SESSION_INFO@@@std@@K@Z@4HA 0000000180057a29 f   pkcs11.obj
 0001:00056a49       ?dtor$2@?0??C_GetSessionInfo@PKCS11@@QEAA?AV?$shared_ptr@UCK_SESSION_INFO@@@std@@K@Z@4HA 0000000180057a49 f   pkcs11.obj
 0001:00056a55       ?dtor$3@?0??C_GetSessionInfo@PKCS11@@QEAA?AV?$shared_ptr@UCK_SESSION_INFO@@@std@@K@Z@4HA 0000000180057a55 f   pkcs11.obj
 0001:00056a7e       ?catch$11@?0??C_GetSessionInfo@PKCS11@@QEAA?AV?$shared_ptr@UCK_SESSION_INFO@@@std@@K@Z@4HA 0000000180057a7e f   pkcs11.obj
 0001:00056a8b       __catch$?C_GetSessionInfo@PKCS11@@QEAA?AV?$shared_ptr@UCK_SESSION_INFO@@@std@@K@Z$0 0000000180057a8b f   pkcs11.obj
 0001:00056ab9       ?dtor$4@?0??C_GetSessionInfo@PKCS11@@QEAA?AV?$shared_ptr@UCK_SESSION_INFO@@@std@@K@Z@4HA 0000000180057ab9 f   pkcs11.obj
 0001:00056ac5       ?catch$12@?0??C_GetSessionInfo@PKCS11@@QEAA?AV?$shared_ptr@UCK_SESSION_INFO@@@std@@K@Z@4HA 0000000180057ac5 f   pkcs11.obj
 0001:00056ad5       __catch$?C_GetSessionInfo@PKCS11@@QEAA?AV?$shared_ptr@UCK_SESSION_INFO@@@std@@K@Z$1 0000000180057ad5 f   pkcs11.obj
 0001:00056bb4       ?dtor$5@?0??C_GetSessionInfo@PKCS11@@QEAA?AV?$shared_ptr@UCK_SESSION_INFO@@@std@@K@Z@4HA 0000000180057bb4 f   pkcs11.obj
 0001:00056be0       ?dtor$0@?0??C_Login@PKCS11@@QEAAXKKV?$shared_ptr@V?$basic_string@DU?$char_traits@D@std@@V?$allocator@D@2@@std@@@std@@@Z@4HA 0000000180057be0 f   pkcs11.obj
 0001:00056bec       ?dtor$1@?0??C_Login@PKCS11@@QEAAXKKV?$shared_ptr@V?$basic_string@DU?$char_traits@D@std@@V?$allocator@D@2@@std@@@std@@@Z@4HA 0000000180057bec f   pkcs11.obj
 0001:00056c09       ?dtor$2@?0??C_Login@PKCS11@@QEAAXKKV?$shared_ptr@V?$basic_string@DU?$char_traits@D@std@@V?$allocator@D@2@@std@@@std@@@Z@4HA 0000000180057c09 f   pkcs11.obj
 0001:00056c15       ?dtor$3@?0??C_Login@PKCS11@@QEAAXKKV?$shared_ptr@V?$basic_string@DU?$char_traits@D@std@@V?$allocator@D@2@@std@@@std@@@Z@4HA 0000000180057c15 f   pkcs11.obj
 0001:00056c44       ?catch$11@?0??C_Login@PKCS11@@QEAAXKKV?$shared_ptr@V?$basic_string@DU?$char_traits@D@std@@V?$allocator@D@2@@std@@@std@@@Z@4HA 0000000180057c44 f   pkcs11.obj
 0001:00056c51       __catch$?C_Login@PKCS11@@QEAAXKKV?$shared_ptr@V?$basic_string@DU?$char_traits@D@std@@V?$allocator@D@2@@std@@@std@@@Z$0 0000000180057c51 f   pkcs11.obj
 0001:00056c7f       ?dtor$4@?0??C_Login@PKCS11@@QEAAXKKV?$shared_ptr@V?$basic_string@DU?$char_traits@D@std@@V?$allocator@D@2@@std@@@std@@@Z@4HA 0000000180057c7f f   pkcs11.obj
 0001:00056c8b       ?catch$12@?0??C_Login@PKCS11@@QEAAXKKV?$shared_ptr@V?$basic_string@DU?$char_traits@D@std@@V?$allocator@D@2@@std@@@std@@@Z@4HA 0000000180057c8b f   pkcs11.obj
 0001:00056c9b       __catch$?C_Login@PKCS11@@QEAAXKKV?$shared_ptr@V?$basic_string@DU?$char_traits@D@std@@V?$allocator@D@2@@std@@@std@@@Z$1 0000000180057c9b f   pkcs11.obj
 0001:00056d74       ?dtor$5@?0??C_Login@PKCS11@@QEAAXKKV?$shared_ptr@V?$basic_string@DU?$char_traits@D@std@@V?$allocator@D@2@@std@@@std@@@Z@4HA 0000000180057d74 f   pkcs11.obj
 0001:00056da0       ?dtor$0@?0??C_Logout@PKCS11@@QEAAXK@Z@4HA 0000000180057da0 f   pkcs11.obj
 0001:00056dc0       ?dtor$1@?0??C_Logout@PKCS11@@QEAAXK@Z@4HA 0000000180057dc0 f   pkcs11.obj
 0001:00056dcc       ?dtor$2@?0??C_Logout@PKCS11@@QEAAXK@Z@4HA 0000000180057dcc f   pkcs11.obj
 0001:00056dfb       ?catch$10@?0??C_Logout@PKCS11@@QEAAXK@Z@4HA 0000000180057dfb f   pkcs11.obj
 0001:00056e08       __catch$?C_Logout@PKCS11@@QEAAXK@Z$0 0000000180057e08 f   pkcs11.obj
 0001:00056e36       ?dtor$3@?0??C_Logout@PKCS11@@QEAAXK@Z@4HA 0000000180057e36 f   pkcs11.obj
 0001:00056e42       ?catch$11@?0??C_Logout@PKCS11@@QEAAXK@Z@4HA 0000000180057e42 f   pkcs11.obj
 0001:00056e52       __catch$?C_Logout@PKCS11@@QEAAXK@Z$1 0000000180057e52 f   pkcs11.obj
 0001:00056f31       ?dtor$4@?0??C_Logout@PKCS11@@QEAAXK@Z@4HA 0000000180057f31 f   pkcs11.obj
 0001:00056f60       ?dtor$0@?0??C_FindObjectsInit@PKCS11@@QEAAXKV?$shared_ptr@VAttributes@@@std@@@Z@4HA 0000000180057f60 f   pkcs11.obj
 0001:00056f6c       ?dtor$1@?0??C_FindObjectsInit@PKCS11@@QEAAXKV?$shared_ptr@VAttributes@@@std@@@Z@4HA 0000000180057f6c f   pkcs11.obj
 0001:00056f8c       ?dtor$2@?0??C_FindObjectsInit@PKCS11@@QEAAXKV?$shared_ptr@VAttributes@@@std@@@Z@4HA 0000000180057f8c f   pkcs11.obj
 0001:00056f98       ?dtor$3@?0??C_FindObjectsInit@PKCS11@@QEAAXKV?$shared_ptr@VAttributes@@@std@@@Z@4HA 0000000180057f98 f   pkcs11.obj
 0001:00056fc7       ?catch$11@?0??C_FindObjectsInit@PKCS11@@QEAAXKV?$shared_ptr@VAttributes@@@std@@@Z@4HA 0000000180057fc7 f   pkcs11.obj
 0001:00056fd4       __catch$?C_FindObjectsInit@PKCS11@@QEAAXKV?$shared_ptr@VAttributes@@@std@@@Z$0 0000000180057fd4 f   pkcs11.obj
 0001:00057002       ?dtor$4@?0??C_FindObjectsInit@PKCS11@@QEAAXKV?$shared_ptr@VAttributes@@@std@@@Z@4HA 0000000180058002 f   pkcs11.obj
 0001:0005700e       ?catch$12@?0??C_FindObjectsInit@PKCS11@@QEAAXKV?$shared_ptr@VAttributes@@@std@@@Z@4HA 000000018005800e f   pkcs11.obj
 0001:0005701e       __catch$?C_FindObjectsInit@PKCS11@@QEAAXKV?$shared_ptr@VAttributes@@@std@@@Z$1 000000018005801e f   pkcs11.obj
 0001:000570fd       ?dtor$5@?0??C_FindObjectsInit@PKCS11@@QEAAXKV?$shared_ptr@VAttributes@@@std@@@Z@4HA 00000001800580fd f   pkcs11.obj
 0001:00057120       ?catch$9@?0??C_FindObjectsInit@PKCS11@@QEAAXK@Z@4HA 0000000180058120 f   pkcs11.obj
 0001:0005712d       __catch$?C_FindObjectsInit@PKCS11@@QEAAXK@Z$0 000000018005812d f   pkcs11.obj
 0001:0005715b       ?dtor$2@?0??C_FindObjectsInit@PKCS11@@QEAAXK@Z@4HA 000000018005815b f   pkcs11.obj
 0001:00057167       ?catch$10@?0??C_FindObjectsInit@PKCS11@@QEAAXK@Z@4HA 0000000180058167 f   pkcs11.obj
 0001:00057177       __catch$?C_FindObjectsInit@PKCS11@@QEAAXK@Z$1 0000000180058177 f   pkcs11.obj
 0001:00057256       ?dtor$3@?0??C_FindObjectsInit@PKCS11@@QEAAXK@Z@4HA 0000000180058256 f   pkcs11.obj
 0001:00057280       ?dtor$0@?0??C_FindObjects@PKCS11@@QEAAKK@Z@4HA 0000000180058280 f   pkcs11.obj
 0001:0005729d       ?dtor$1@?0??C_FindObjects@PKCS11@@QEAAKK@Z@4HA 000000018005829d f   pkcs11.obj
 0001:000572a9       ?dtor$2@?0??C_FindObjects@PKCS11@@QEAAKK@Z@4HA 00000001800582a9 f   pkcs11.obj
 0001:000572d8       ?catch$10@?0??C_FindObjects@PKCS11@@QEAAKK@Z@4HA 00000001800582d8 f   pkcs11.obj
 0001:000572e5       __catch$?C_FindObjects@PKCS11@@QEAAKK@Z$0 00000001800582e5 f   pkcs11.obj
 0001:00057313       ?dtor$3@?0??C_FindObjects@PKCS11@@QEAAKK@Z@4HA 0000000180058313 f   pkcs11.obj
 0001:0005731f       ?catch$11@?0??C_FindObjects@PKCS11@@QEAAKK@Z@4HA 000000018005831f f   pkcs11.obj
 0001:0005732f       __catch$?C_FindObjects@PKCS11@@QEAAKK@Z$1 000000018005832f f   pkcs11.obj
 0001:00057408       ?dtor$4@?0??C_FindObjects@PKCS11@@QEAAKK@Z@4HA 0000000180058408 f   pkcs11.obj
 0001:00057430       ?dtor$0@?0??C_FindObjectsFinal@PKCS11@@QEAAXK@Z@4HA 0000000180058430 f   pkcs11.obj
 0001:00057450       ?dtor$1@?0??C_FindObjectsFinal@PKCS11@@QEAAXK@Z@4HA 0000000180058450 f   pkcs11.obj
 0001:0005745c       ?dtor$2@?0??C_FindObjectsFinal@PKCS11@@QEAAXK@Z@4HA 000000018005845c f   pkcs11.obj
 0001:0005748b       ?catch$10@?0??C_FindObjectsFinal@PKCS11@@QEAAXK@Z@4HA 000000018005848b f   pkcs11.obj
 0001:00057498       __catch$?C_FindObjectsFinal@PKCS11@@QEAAXK@Z$0 0000000180058498 f   pkcs11.obj
 0001:000574c6       ?dtor$3@?0??C_FindObjectsFinal@PKCS11@@QEAAXK@Z@4HA 00000001800584c6 f   pkcs11.obj
 0001:000574d2       ?catch$11@?0??C_FindObjectsFinal@PKCS11@@QEAAXK@Z@4HA 00000001800584d2 f   pkcs11.obj
 0001:000574e2       __catch$?C_FindObjectsFinal@PKCS11@@QEAAXK@Z$1 00000001800584e2 f   pkcs11.obj
 0001:000575c1       ?dtor$4@?0??C_FindObjectsFinal@PKCS11@@QEAAXK@Z@4HA 00000001800585c1 f   pkcs11.obj
 0001:000575f0       ?dtor$0@?0??C_GetAttributeValue@PKCS11@@QEAA?AV?$shared_ptr@VAttributes@@@std@@KKV23@@Z@4HA 00000001800585f0 f   pkcs11.obj
 0001:000575fc       ?dtor$1@?0??C_GetAttributeValue@PKCS11@@QEAA?AV?$shared_ptr@VAttributes@@@std@@KKV23@@Z@4HA 00000001800585fc f   pkcs11.obj
 0001:0005761c       ?dtor$2@?0??C_GetAttributeValue@PKCS11@@QEAA?AV?$shared_ptr@VAttributes@@@std@@KKV23@@Z@4HA 000000018005861c f   pkcs11.obj
 0001:00057628       ?dtor$3@?0??C_GetAttributeValue@PKCS11@@QEAA?AV?$shared_ptr@VAttributes@@@std@@KKV23@@Z@4HA 0000000180058628 f   pkcs11.obj
 0001:00057651       ?dtor$4@?0??C_GetAttributeValue@PKCS11@@QEAA?AV?$shared_ptr@VAttributes@@@std@@KKV23@@Z@4HA 0000000180058651 f   pkcs11.obj
 0001:00057671       ?dtor$5@?0??C_GetAttributeValue@PKCS11@@QEAA?AV?$shared_ptr@VAttributes@@@std@@KKV23@@Z@4HA 0000000180058671 f   pkcs11.obj
 0001:0005767d       ?dtor$6@?0??C_GetAttributeValue@PKCS11@@QEAA?AV?$shared_ptr@VAttributes@@@std@@KKV23@@Z@4HA 000000018005867d f   pkcs11.obj
 0001:000576a6       ?catch$17@?0??C_GetAttributeValue@PKCS11@@QEAA?AV?$shared_ptr@VAttributes@@@std@@KKV23@@Z@4HA 00000001800586a6 f   pkcs11.obj
 0001:000576b3       __catch$?C_GetAttributeValue@PKCS11@@QEAA?AV?$shared_ptr@VAttributes@@@std@@KKV23@@Z$0 00000001800586b3 f   pkcs11.obj
 0001:000576e1       ?dtor$8@?0??C_GetAttributeValue@PKCS11@@QEAA?AV?$shared_ptr@VAttributes@@@std@@KKV23@@Z@4HA 00000001800586e1 f   pkcs11.obj
 0001:000576ed       ?catch$18@?0??C_GetAttributeValue@PKCS11@@QEAA?AV?$shared_ptr@VAttributes@@@std@@KKV23@@Z@4HA 00000001800586ed f   pkcs11.obj
 0001:000576fd       __catch$?C_GetAttributeValue@PKCS11@@QEAA?AV?$shared_ptr@VAttributes@@@std@@KKV23@@Z$1 00000001800586fd f   pkcs11.obj
 0001:000577dc       ?dtor$9@?0??C_GetAttributeValue@PKCS11@@QEAA?AV?$shared_ptr@VAttributes@@@std@@KKV23@@Z@4HA 00000001800587dc f   pkcs11.obj
 0001:00057800       ?dtor$0@?0??C_SetAttributeValue@PKCS11@@QEAAXKKV?$shared_ptr@VAttributes@@@std@@@Z@4HA 0000000180058800 f   pkcs11.obj
 0001:0005780c       ?dtor$1@?0??C_SetAttributeValue@PKCS11@@QEAAXKKV?$shared_ptr@VAttributes@@@std@@@Z@4HA 000000018005880c f   pkcs11.obj
 0001:00057829       ?dtor$2@?0??C_SetAttributeValue@PKCS11@@QEAAXKKV?$shared_ptr@VAttributes@@@std@@@Z@4HA 0000000180058829 f   pkcs11.obj
 0001:00057835       ?dtor$3@?0??C_SetAttributeValue@PKCS11@@QEAAXKKV?$shared_ptr@VAttributes@@@std@@@Z@4HA 0000000180058835 f   pkcs11.obj
 0001:00057864       ?catch$11@?0??C_SetAttributeValue@PKCS11@@QEAAXKKV?$shared_ptr@VAttributes@@@std@@@Z@4HA 0000000180058864 f   pkcs11.obj
 0001:00057871       __catch$?C_SetAttributeValue@PKCS11@@QEAAXKKV?$shared_ptr@VAttributes@@@std@@@Z$0 0000000180058871 f   pkcs11.obj
 0001:0005789f       ?dtor$4@?0??C_SetAttributeValue@PKCS11@@QEAAXKKV?$shared_ptr@VAttributes@@@std@@@Z@4HA 000000018005889f f   pkcs11.obj
 0001:000578ab       ?catch$12@?0??C_SetAttributeValue@PKCS11@@QEAAXKKV?$shared_ptr@VAttributes@@@std@@@Z@4HA 00000001800588ab f   pkcs11.obj
 0001:000578bb       __catch$?C_SetAttributeValue@PKCS11@@QEAAXKKV?$shared_ptr@VAttributes@@@std@@@Z$1 00000001800588bb f   pkcs11.obj
 0001:00057994       ?dtor$5@?0??C_SetAttributeValue@PKCS11@@QEAAXKKV?$shared_ptr@VAttributes@@@std@@@Z@4HA 0000000180058994 f   pkcs11.obj
 0001:000579c0       ?dtor$0@?0??C_CreateObject@PKCS11@@QEAAKKV?$shared_ptr@VAttributes@@@std@@@Z@4HA 00000001800589c0 f   pkcs11.obj
 0001:000579cc       ?dtor$1@?0??C_CreateObject@PKCS11@@QEAAKKV?$shared_ptr@VAttributes@@@std@@@Z@4HA 00000001800589cc f   pkcs11.obj
 0001:000579e9       ?dtor$2@?0??C_CreateObject@PKCS11@@QEAAKKV?$shared_ptr@VAttributes@@@std@@@Z@4HA 00000001800589e9 f   pkcs11.obj
 0001:000579f5       ?dtor$3@?0??C_CreateObject@PKCS11@@QEAAKKV?$shared_ptr@VAttributes@@@std@@@Z@4HA 00000001800589f5 f   pkcs11.obj
 0001:00057a24       ?catch$11@?0??C_CreateObject@PKCS11@@QEAAKKV?$shared_ptr@VAttributes@@@std@@@Z@4HA 0000000180058a24 f   pkcs11.obj
 0001:00057a31       __catch$?C_CreateObject@PKCS11@@QEAAKKV?$shared_ptr@VAttributes@@@std@@@Z$0 0000000180058a31 f   pkcs11.obj
 0001:00057a5f       ?dtor$4@?0??C_CreateObject@PKCS11@@QEAAKKV?$shared_ptr@VAttributes@@@std@@@Z@4HA 0000000180058a5f f   pkcs11.obj
 0001:00057a6b       ?catch$12@?0??C_CreateObject@PKCS11@@QEAAKKV?$shared_ptr@VAttributes@@@std@@@Z@4HA 0000000180058a6b f   pkcs11.obj
 0001:00057a7b       __catch$?C_CreateObject@PKCS11@@QEAAKKV?$shared_ptr@VAttributes@@@std@@@Z$1 0000000180058a7b f   pkcs11.obj
 0001:00057b54       ?dtor$5@?0??C_CreateObject@PKCS11@@QEAAKKV?$shared_ptr@VAttributes@@@std@@@Z@4HA 0000000180058b54 f   pkcs11.obj
 0001:00057b80       ?dtor$0@?0??C_CopyObject@PKCS11@@QEAAKKKV?$shared_ptr@VAttributes@@@std@@@Z@4HA 0000000180058b80 f   pkcs11.obj
 0001:00057b8c       ?dtor$1@?0??C_CopyObject@PKCS11@@QEAAKKKV?$shared_ptr@VAttributes@@@std@@@Z@4HA 0000000180058b8c f   pkcs11.obj
 0001:00057ba9       ?dtor$2@?0??C_CopyObject@PKCS11@@QEAAKKKV?$shared_ptr@VAttributes@@@std@@@Z@4HA 0000000180058ba9 f   pkcs11.obj
 0001:00057bb5       ?dtor$3@?0??C_CopyObject@PKCS11@@QEAAKKKV?$shared_ptr@VAttributes@@@std@@@Z@4HA 0000000180058bb5 f   pkcs11.obj
 0001:00057be4       ?catch$11@?0??C_CopyObject@PKCS11@@QEAAKKKV?$shared_ptr@VAttributes@@@std@@@Z@4HA 0000000180058be4 f   pkcs11.obj
 0001:00057bf1       __catch$?C_CopyObject@PKCS11@@QEAAKKKV?$shared_ptr@VAttributes@@@std@@@Z$0 0000000180058bf1 f   pkcs11.obj
 0001:00057c1f       ?dtor$4@?0??C_CopyObject@PKCS11@@QEAAKKKV?$shared_ptr@VAttributes@@@std@@@Z@4HA 0000000180058c1f f   pkcs11.obj
 0001:00057c2b       ?catch$12@?0??C_CopyObject@PKCS11@@QEAAKKKV?$shared_ptr@VAttributes@@@std@@@Z@4HA 0000000180058c2b f   pkcs11.obj
 0001:00057c3b       __catch$?C_CopyObject@PKCS11@@QEAAKKKV?$shared_ptr@VAttributes@@@std@@@Z$1 0000000180058c3b f   pkcs11.obj
 0001:00057d14       ?dtor$5@?0??C_CopyObject@PKCS11@@QEAAKKKV?$shared_ptr@VAttributes@@@std@@@Z@4HA 0000000180058d14 f   pkcs11.obj
 0001:00057d40       ?dtor$0@?0??C_DestroyObject@PKCS11@@QEAAXKK@Z@4HA 0000000180058d40 f   pkcs11.obj
 0001:00057d60       ?dtor$1@?0??C_DestroyObject@PKCS11@@QEAAXKK@Z@4HA 0000000180058d60 f   pkcs11.obj
 0001:00057d6c       ?dtor$2@?0??C_DestroyObject@PKCS11@@QEAAXKK@Z@4HA 0000000180058d6c f   pkcs11.obj
 0001:00057d9b       ?catch$10@?0??C_DestroyObject@PKCS11@@QEAAXKK@Z@4HA 0000000180058d9b f   pkcs11.obj
 0001:00057da8       __catch$?C_DestroyObject@PKCS11@@QEAAXKK@Z$0 0000000180058da8 f   pkcs11.obj
 0001:00057dd6       ?dtor$3@?0??C_DestroyObject@PKCS11@@QEAAXKK@Z@4HA 0000000180058dd6 f   pkcs11.obj
 0001:00057de2       ?catch$11@?0??C_DestroyObject@PKCS11@@QEAAXKK@Z@4HA 0000000180058de2 f   pkcs11.obj
 0001:00057df2       __catch$?C_DestroyObject@PKCS11@@QEAAXKK@Z$1 0000000180058df2 f   pkcs11.obj
 0001:00057ed1       ?dtor$4@?0??C_DestroyObject@PKCS11@@QEAAXKK@Z@4HA 0000000180058ed1 f   pkcs11.obj
 0001:00057f00       ?dtor$0@?0??C_GetObjectSize@PKCS11@@QEAAKKK@Z@4HA 0000000180058f00 f   pkcs11.obj
 0001:00057f1d       ?dtor$1@?0??C_GetObjectSize@PKCS11@@QEAAKKK@Z@4HA 0000000180058f1d f   pkcs11.obj
 0001:00057f29       ?dtor$2@?0??C_GetObjectSize@PKCS11@@QEAAKKK@Z@4HA 0000000180058f29 f   pkcs11.obj
 0001:00057f58       ?catch$10@?0??C_GetObjectSize@PKCS11@@QEAAKKK@Z@4HA 0000000180058f58 f   pkcs11.obj
 0001:00057f65       __catch$?C_GetObjectSize@PKCS11@@QEAAKKK@Z$0 0000000180058f65 f   pkcs11.obj
 0001:00057f93       ?dtor$3@?0??C_GetObjectSize@PKCS11@@QEAAKKK@Z@4HA 0000000180058f93 f   pkcs11.obj
 0001:00057f9f       ?catch$11@?0??C_GetObjectSize@PKCS11@@QEAAKKK@Z@4HA 0000000180058f9f f   pkcs11.obj
 0001:00057faf       __catch$?C_GetObjectSize@PKCS11@@QEAAKKK@Z$1 0000000180058faf f   pkcs11.obj
 0001:00058088       ?dtor$4@?0??C_GetObjectSize@PKCS11@@QEAAKKK@Z@4HA 0000000180059088 f   pkcs11.obj
 0001:000580b0       ?dtor$0@?0??crypto_init@@YAXP6AKKPEAUCK_MECHANISM@@K@ZKV?$shared_ptr@VMechanism@@@std@@K@Z@4HA 00000001800590b0 f   pkcs11.obj
 0001:000580bc       ?dtor$1@?0??crypto_init@@YAXP6AKKPEAUCK_MECHANISM@@K@ZKV?$shared_ptr@VMechanism@@@std@@K@Z@4HA 00000001800590bc f   pkcs11.obj
 0001:000580d9       ?dtor$2@?0??crypto_init@@YAXP6AKKPEAUCK_MECHANISM@@K@ZKV?$shared_ptr@VMechanism@@@std@@K@Z@4HA 00000001800590d9 f   pkcs11.obj
 0001:000580e5       ?dtor$3@?0??crypto_init@@YAXP6AKKPEAUCK_MECHANISM@@K@ZKV?$shared_ptr@VMechanism@@@std@@K@Z@4HA 00000001800590e5 f   pkcs11.obj
 0001:00058114       ?catch$11@?0??crypto_init@@YAXP6AKKPEAUCK_MECHANISM@@K@ZKV?$shared_ptr@VMechanism@@@std@@K@Z@4HA 0000000180059114 f   pkcs11.obj
 0001:00058121       __catch$?crypto_init@@YAXP6AKKPEAUCK_MECHANISM@@K@ZKV?$shared_ptr@VMechanism@@@std@@K@Z$0 0000000180059121 f   pkcs11.obj
 0001:0005814f       ?dtor$4@?0??crypto_init@@YAXP6AKKPEAUCK_MECHANISM@@K@ZKV?$shared_ptr@VMechanism@@@std@@K@Z@4HA 000000018005914f f   pkcs11.obj
 0001:0005815b       ?catch$12@?0??crypto_init@@YAXP6AKKPEAUCK_MECHANISM@@K@ZKV?$shared_ptr@VMechanism@@@std@@K@Z@4HA 000000018005915b f   pkcs11.obj
 0001:0005816b       __catch$?crypto_init@@YAXP6AKKPEAUCK_MECHANISM@@K@ZKV?$shared_ptr@VMechanism@@@std@@K@Z$1 000000018005916b f   pkcs11.obj
 0001:00058244       ?dtor$5@?0??crypto_init@@YAXP6AKKPEAUCK_MECHANISM@@K@ZKV?$shared_ptr@VMechanism@@@std@@K@Z@4HA 0000000180059244 f   pkcs11.obj
 0001:00058270       ?dtor$0@?0??crypto_update@@YA?AV?$shared_ptr@V?$basic_string@DU?$char_traits@D@std@@V?$allocator@D@2@@std@@@std@@P6AKKPEAEK0PEAK@ZKV12@3@Z@4HA 0000000180059270 f   pkcs11.obj
 0001:0005827c       ?dtor$1@?0??crypto_update@@YA?AV?$shared_ptr@V?$basic_string@DU?$char_traits@D@std@@V?$allocator@D@2@@std@@@std@@P6AKKPEAEK0PEAK@ZKV12@3@Z@4HA 000000018005927c f   pkcs11.obj
 0001:00058288       ?dtor$2@?0??crypto_update@@YA?AV?$shared_ptr@V?$basic_string@DU?$char_traits@D@std@@V?$allocator@D@2@@std@@@std@@P6AKKPEAEK0PEAK@ZKV12@3@Z@4HA 0000000180059288 f   pkcs11.obj
 0001:000582a5       ?dtor$3@?0??crypto_update@@YA?AV?$shared_ptr@V?$basic_string@DU?$char_traits@D@std@@V?$allocator@D@2@@std@@@std@@P6AKKPEAEK0PEAK@ZKV12@3@Z@4HA 00000001800592a5 f   pkcs11.obj
 0001:000582b1       ?dtor$4@?0??crypto_update@@YA?AV?$shared_ptr@V?$basic_string@DU?$char_traits@D@std@@V?$allocator@D@2@@std@@@std@@P6AKKPEAEK0PEAK@ZKV12@3@Z@4HA 00000001800592b1 f   pkcs11.obj
 0001:000582da       ?dtor$5@?0??crypto_update@@YA?AV?$shared_ptr@V?$basic_string@DU?$char_traits@D@std@@V?$allocator@D@2@@std@@@std@@P6AKKPEAEK0PEAK@ZKV12@3@Z@4HA 00000001800592da f   pkcs11.obj
 0001:000582f7       ?catch$15@?0??crypto_update@@YA?AV?$shared_ptr@V?$basic_string@DU?$char_traits@D@std@@V?$allocator@D@2@@std@@@std@@P6AKKPEAEK0PEAK@ZKV12@3@Z@4HA 00000001800592f7 f   pkcs11.obj
 0001:00058304       __catch$?crypto_update@@YA?AV?$shared_ptr@V?$basic_string@DU?$char_traits@D@std@@V?$allocator@D@2@@std@@@std@@P6AKKPEAEK0PEAK@ZKV12@3@Z$0 0000000180059304 f   pkcs11.obj
 0001:00058332       ?dtor$7@?0??crypto_update@@YA?AV?$shared_ptr@V?$basic_string@DU?$char_traits@D@std@@V?$allocator@D@2@@std@@@std@@P6AKKPEAEK0PEAK@ZKV12@3@Z@4HA 0000000180059332 f   pkcs11.obj
 0001:0005833e       ?catch$16@?0??crypto_update@@YA?AV?$shared_ptr@V?$basic_string@DU?$char_traits@D@std@@V?$allocator@D@2@@std@@@std@@P6AKKPEAEK0PEAK@ZKV12@3@Z@4HA 000000018005933e f   pkcs11.obj
 0001:0005834e       __catch$?crypto_update@@YA?AV?$shared_ptr@V?$basic_string@DU?$char_traits@D@std@@V?$allocator@D@2@@std@@@std@@P6AKKPEAEK0PEAK@ZKV12@3@Z$1 000000018005934e f   pkcs11.obj
 0001:00058427       ?dtor$8@?0??crypto_update@@YA?AV?$shared_ptr@V?$basic_string@DU?$char_traits@D@std@@V?$allocator@D@2@@std@@@std@@P6AKKPEAEK0PEAK@ZKV12@3@Z@4HA 0000000180059427 f   pkcs11.obj
 0001:00058450       ?dtor$0@?0??crypto_update@@YAXP6AKKPEAEK@ZKV?$shared_ptr@V?$basic_string@DU?$char_traits@D@std@@V?$allocator@D@2@@std@@@std@@@Z@4HA 0000000180059450 f   pkcs11.obj
 0001:0005845c       ?dtor$1@?0??crypto_update@@YAXP6AKKPEAEK@ZKV?$shared_ptr@V?$basic_string@DU?$char_traits@D@std@@V?$allocator@D@2@@std@@@std@@@Z@4HA 000000018005945c f   pkcs11.obj
 0001:0005847c       ?dtor$2@?0??crypto_update@@YAXP6AKKPEAEK@ZKV?$shared_ptr@V?$basic_string@DU?$char_traits@D@std@@V?$allocator@D@2@@std@@@std@@@Z@4HA 000000018005947c f   pkcs11.obj
 0001:00058488       ?dtor$3@?0??crypto_update@@YAXP6AKKPEAEK@ZKV?$shared_ptr@V?$basic_string@DU?$char_traits@D@std@@V?$allocator@D@2@@std@@@std@@@Z@4HA 0000000180059488 f   pkcs11.obj
 0001:000584b7       ?catch$11@?0??crypto_update@@YAXP6AKKPEAEK@ZKV?$shared_ptr@V?$basic_string@DU?$char_traits@D@std@@V?$allocator@D@2@@std@@@std@@@Z@4HA 00000001800594b7 f   pkcs11.obj
 0001:000584c4       __catch$?crypto_update@@YAXP6AKKPEAEK@ZKV?$shared_ptr@V?$basic_string@DU?$char_traits@D@std@@V?$allocator@D@2@@std@@@std@@@Z$0 00000001800594c4 f   pkcs11.obj
 0001:000584f2       ?dtor$4@?0??crypto_update@@YAXP6AKKPEAEK@ZKV?$shared_ptr@V?$basic_string@DU?$char_traits@D@std@@V?$allocator@D@2@@std@@@std@@@Z@4HA 00000001800594f2 f   pkcs11.obj
 0001:000584fe       ?catch$12@?0??crypto_update@@YAXP6AKKPEAEK@ZKV?$shared_ptr@V?$basic_string@DU?$char_traits@D@std@@V?$allocator@D@2@@std@@@std@@@Z@4HA 00000001800594fe f   pkcs11.obj
 0001:0005850e       __catch$?crypto_update@@YAXP6AKKPEAEK@ZKV?$shared_ptr@V?$basic_string@DU?$char_traits@D@std@@V?$allocator@D@2@@std@@@std@@@Z$1 000000018005950e f   pkcs11.obj
 0001:000585ed       ?dtor$5@?0??crypto_update@@YAXP6AKKPEAEK@ZKV?$shared_ptr@V?$basic_string@DU?$char_traits@D@std@@V?$allocator@D@2@@std@@@std@@@Z@4HA 00000001800595ed f   pkcs11.obj
 0001:00058610       ?dtor$0@?0??crypto_final@@YA?AV?$shared_ptr@V?$basic_string@DU?$char_traits@D@std@@V?$allocator@D@2@@std@@@std@@P6AKKPEAEPEAK@ZKV12@@Z@4HA 0000000180059610 f   pkcs11.obj
 0001:0005861c       ?dtor$1@?0??crypto_final@@YA?AV?$shared_ptr@V?$basic_string@DU?$char_traits@D@std@@V?$allocator@D@2@@std@@@std@@P6AKKPEAEPEAK@ZKV12@@Z@4HA 000000018005961c f   pkcs11.obj
 0001:00058639       ?dtor$2@?0??crypto_final@@YA?AV?$shared_ptr@V?$basic_string@DU?$char_traits@D@std@@V?$allocator@D@2@@std@@@std@@P6AKKPEAEPEAK@ZKV12@@Z@4HA 0000000180059639 f   pkcs11.obj
 0001:00058645       ?dtor$3@?0??crypto_final@@YA?AV?$shared_ptr@V?$basic_string@DU?$char_traits@D@std@@V?$allocator@D@2@@std@@@std@@P6AKKPEAEPEAK@ZKV12@@Z@4HA 0000000180059645 f   pkcs11.obj
 0001:0005866e       ?dtor$4@?0??crypto_final@@YA?AV?$shared_ptr@V?$basic_string@DU?$char_traits@D@std@@V?$allocator@D@2@@std@@@std@@P6AKKPEAEPEAK@ZKV12@@Z@4HA 000000018005966e f   pkcs11.obj
 0001:0005868b       ?catch$14@?0??crypto_final@@YA?AV?$shared_ptr@V?$basic_string@DU?$char_traits@D@std@@V?$allocator@D@2@@std@@@std@@P6AKKPEAEPEAK@ZKV12@@Z@4HA 000000018005968b f   pkcs11.obj
 0001:00058698       __catch$?crypto_final@@YA?AV?$shared_ptr@V?$basic_string@DU?$char_traits@D@std@@V?$allocator@D@2@@std@@@std@@P6AKKPEAEPEAK@ZKV12@@Z$0 0000000180059698 f   pkcs11.obj
 0001:000586c6       ?dtor$6@?0??crypto_final@@YA?AV?$shared_ptr@V?$basic_string@DU?$char_traits@D@std@@V?$allocator@D@2@@std@@@std@@P6AKKPEAEPEAK@ZKV12@@Z@4HA 00000001800596c6 f   pkcs11.obj
 0001:000586d2       ?catch$15@?0??crypto_final@@YA?AV?$shared_ptr@V?$basic_string@DU?$char_traits@D@std@@V?$allocator@D@2@@std@@@std@@P6AKKPEAEPEAK@ZKV12@@Z@4HA 00000001800596d2 f   pkcs11.obj
 0001:000586e2       __catch$?crypto_final@@YA?AV?$shared_ptr@V?$basic_string@DU?$char_traits@D@std@@V?$allocator@D@2@@std@@@std@@P6AKKPEAEPEAK@ZKV12@@Z$1 00000001800596e2 f   pkcs11.obj
 0001:000587bb       ?dtor$7@?0??crypto_final@@YA?AV?$shared_ptr@V?$basic_string@DU?$char_traits@D@std@@V?$allocator@D@2@@std@@@std@@P6AKKPEAEPEAK@ZKV12@@Z@4HA 00000001800597bb f   pkcs11.obj
 0001:000587e0       ?dtor$0@?0??C_EncryptInit@PKCS11@@QEAAXKV?$shared_ptr@VMechanism@@@std@@K@Z@4HA 00000001800597e0 f   pkcs11.obj
 0001:000587ec       ?catch$7@?0??C_EncryptInit@PKCS11@@QEAAXKV?$shared_ptr@VMechanism@@@std@@K@Z@4HA 00000001800597ec f   pkcs11.obj
 0001:000587f9       __catch$?C_EncryptInit@PKCS11@@QEAAXKV?$shared_ptr@VMechanism@@@std@@K@Z$0 00000001800597f9 f   pkcs11.obj
 0001:00058821       ?dtor$2@?0??C_EncryptInit@PKCS11@@QEAAXKV?$shared_ptr@VMechanism@@@std@@K@Z@4HA 0000000180059821 f   pkcs11.obj
 0001:0005882d       ?catch$8@?0??C_EncryptInit@PKCS11@@QEAAXKV?$shared_ptr@VMechanism@@@std@@K@Z@4HA 000000018005982d f   pkcs11.obj
 0001:0005883d       __catch$?C_EncryptInit@PKCS11@@QEAAXKV?$shared_ptr@VMechanism@@@std@@K@Z$1 000000018005983d f   pkcs11.obj
 0001:0005891c       ?dtor$3@?0??C_EncryptInit@PKCS11@@QEAAXKV?$shared_ptr@VMechanism@@@std@@K@Z@4HA 000000018005991c f   pkcs11.obj
 0001:00058940       ?dtor$0@?0??C_Encrypt@PKCS11@@QEAA?AV?$shared_ptr@V?$basic_string@DU?$char_traits@D@std@@V?$allocator@D@2@@std@@@std@@KV23@0@Z@4HA 0000000180059940 f   pkcs11.obj
 0001:0005894c       ?dtor$1@?0??C_Encrypt@PKCS11@@QEAA?AV?$shared_ptr@V?$basic_string@DU?$char_traits@D@std@@V?$allocator@D@2@@std@@@std@@KV23@0@Z@4HA 000000018005994c f   pkcs11.obj
 0001:00058958       ?catch$10@?0??C_Encrypt@PKCS11@@QEAA?AV?$shared_ptr@V?$basic_string@DU?$char_traits@D@std@@V?$allocator@D@2@@std@@@std@@KV23@0@Z@4HA 0000000180059958 f   pkcs11.obj
 0001:00058965       __catch$?C_Encrypt@PKCS11@@QEAA?AV?$shared_ptr@V?$basic_string@DU?$char_traits@D@std@@V?$allocator@D@2@@std@@@std@@KV23@0@Z$0 0000000180059965 f   pkcs11.obj
 0001:00058993       ?dtor$5@?0??C_Encrypt@PKCS11@@QEAA?AV?$shared_ptr@V?$basic_string@DU?$char_traits@D@std@@V?$allocator@D@2@@std@@@std@@KV23@0@Z@4HA 0000000180059993 f   pkcs11.obj
 0001:0005899f       ?catch$11@?0??C_Encrypt@PKCS11@@QEAA?AV?$shared_ptr@V?$basic_string@DU?$char_traits@D@std@@V?$allocator@D@2@@std@@@std@@KV23@0@Z@4HA 000000018005999f f   pkcs11.obj
 0001:000589af       __catch$?C_Encrypt@PKCS11@@QEAA?AV?$shared_ptr@V?$basic_string@DU?$char_traits@D@std@@V?$allocator@D@2@@std@@@std@@KV23@0@Z$1 00000001800599af f   pkcs11.obj
 0001:00058a8e       ?dtor$6@?0??C_Encrypt@PKCS11@@QEAA?AV?$shared_ptr@V?$basic_string@DU?$char_traits@D@std@@V?$allocator@D@2@@std@@@std@@KV23@0@Z@4HA 0000000180059a8e f   pkcs11.obj
 0001:00058ab0       ?dtor$0@?0??C_EncryptUpdate@PKCS11@@QEAA?AV?$shared_ptr@V?$basic_string@DU?$char_traits@D@std@@V?$allocator@D@2@@std@@@std@@KV23@0@Z@4HA 0000000180059ab0 f   pkcs11.obj
 0001:00058abc       ?dtor$1@?0??C_EncryptUpdate@PKCS11@@QEAA?AV?$shared_ptr@V?$basic_string@DU?$char_traits@D@std@@V?$allocator@D@2@@std@@@std@@KV23@0@Z@4HA 0000000180059abc f   pkcs11.obj
 0001:00058ac8       ?catch$10@?0??C_EncryptUpdate@PKCS11@@QEAA?AV?$shared_ptr@V?$basic_string@DU?$char_traits@D@std@@V?$allocator@D@2@@std@@@std@@KV23@0@Z@4HA 0000000180059ac8 f   pkcs11.obj
 0001:00058ad5       __catch$?C_EncryptUpdate@PKCS11@@QEAA?AV?$shared_ptr@V?$basic_string@DU?$char_traits@D@std@@V?$allocator@D@2@@std@@@std@@KV23@0@Z$0 0000000180059ad5 f   pkcs11.obj
 0001:00058b03       ?dtor$5@?0??C_EncryptUpdate@PKCS11@@QEAA?AV?$shared_ptr@V?$basic_string@DU?$char_traits@D@std@@V?$allocator@D@2@@std@@@std@@KV23@0@Z@4HA 0000000180059b03 f   pkcs11.obj
 0001:00058b0f       ?catch$11@?0??C_EncryptUpdate@PKCS11@@QEAA?AV?$shared_ptr@V?$basic_string@DU?$char_traits@D@std@@V?$allocator@D@2@@std@@@std@@KV23@0@Z@4HA 0000000180059b0f f   pkcs11.obj
 0001:00058b1f       __catch$?C_EncryptUpdate@PKCS11@@QEAA?AV?$shared_ptr@V?$basic_string@DU?$char_traits@D@std@@V?$allocator@D@2@@std@@@std@@KV23@0@Z$1 0000000180059b1f f   pkcs11.obj
 0001:00058bfe       ?dtor$6@?0??C_EncryptUpdate@PKCS11@@QEAA?AV?$shared_ptr@V?$basic_string@DU?$char_traits@D@std@@V?$allocator@D@2@@std@@@std@@KV23@0@Z@4HA 0000000180059bfe f   pkcs11.obj
 0001:00058c20       ?dtor$0@?0??C_EncryptFinal@PKCS11@@QEAA?AV?$shared_ptr@V?$basic_string@DU?$char_traits@D@std@@V?$allocator@D@2@@std@@@std@@KV23@@Z@4HA 0000000180059c20 f   pkcs11.obj
 0001:00058c2c       ?catch$8@?0??C_EncryptFinal@PKCS11@@QEAA?AV?$shared_ptr@V?$basic_string@DU?$char_traits@D@std@@V?$allocator@D@2@@std@@@std@@KV23@@Z@4HA 0000000180059c2c f   pkcs11.obj
 0001:00058c39       __catch$?C_EncryptFinal@PKCS11@@QEAA?AV?$shared_ptr@V?$basic_string@DU?$char_traits@D@std@@V?$allocator@D@2@@std@@@std@@KV23@@Z$0 0000000180059c39 f   pkcs11.obj
 0001:00058c61       ?dtor$3@?0??C_EncryptFinal@PKCS11@@QEAA?AV?$shared_ptr@V?$basic_string@DU?$char_traits@D@std@@V?$allocator@D@2@@std@@@std@@KV23@@Z@4HA 0000000180059c61 f   pkcs11.obj
 0001:00058c6d       ?catch$9@?0??C_EncryptFinal@PKCS11@@QEAA?AV?$shared_ptr@V?$basic_string@DU?$char_traits@D@std@@V?$allocator@D@2@@std@@@std@@KV23@@Z@4HA 0000000180059c6d f   pkcs11.obj
 0001:00058c7d       __catch$?C_EncryptFinal@PKCS11@@QEAA?AV?$shared_ptr@V?$basic_string@DU?$char_traits@D@std@@V?$allocator@D@2@@std@@@std@@KV23@@Z$1 0000000180059c7d f   pkcs11.obj
 0001:00058d5c       ?dtor$4@?0??C_EncryptFinal@PKCS11@@QEAA?AV?$shared_ptr@V?$basic_string@DU?$char_traits@D@std@@V?$allocator@D@2@@std@@@std@@KV23@@Z@4HA 0000000180059d5c f   pkcs11.obj
 0001:00058d80       ?dtor$0@?0??C_DecryptInit@PKCS11@@QEAAXKV?$shared_ptr@VMechanism@@@std@@K@Z@4HA 0000000180059d80 f   pkcs11.obj
 0001:00058d8c       ?catch$7@?0??C_DecryptInit@PKCS11@@QEAAXKV?$shared_ptr@VMechanism@@@std@@K@Z@4HA 0000000180059d8c f   pkcs11.obj
 0001:00058d99       __catch$?C_DecryptInit@PKCS11@@QEAAXKV?$shared_ptr@VMechanism@@@std@@K@Z$0 0000000180059d99 f   pkcs11.obj
 0001:00058dc1       ?dtor$2@?0??C_DecryptInit@PKCS11@@QEAAXKV?$shared_ptr@VMechanism@@@std@@K@Z@4HA 0000000180059dc1 f   pkcs11.obj
 0001:00058dcd       ?catch$8@?0??C_DecryptInit@PKCS11@@QEAAXKV?$shared_ptr@VMechanism@@@std@@K@Z@4HA 0000000180059dcd f   pkcs11.obj
 0001:00058ddd       __catch$?C_DecryptInit@PKCS11@@QEAAXKV?$shared_ptr@VMechanism@@@std@@K@Z$1 0000000180059ddd f   pkcs11.obj
 0001:00058ebc       ?dtor$3@?0??C_DecryptInit@PKCS11@@QEAAXKV?$shared_ptr@VMechanism@@@std@@K@Z@4HA 0000000180059ebc f   pkcs11.obj
 0001:00058ee0       ?dtor$0@?0??C_Decrypt@PKCS11@@QEAA?AV?$shared_ptr@V?$basic_string@DU?$char_traits@D@std@@V?$allocator@D@2@@std@@@std@@KV23@0@Z@4HA 0000000180059ee0 f   pkcs11.obj
 0001:00058eec       ?dtor$1@?0??C_Decrypt@PKCS11@@QEAA?AV?$shared_ptr@V?$basic_string@DU?$char_traits@D@std@@V?$allocator@D@2@@std@@@std@@KV23@0@Z@4HA 0000000180059eec f   pkcs11.obj
 0001:00058ef8       ?catch$10@?0??C_Decrypt@PKCS11@@QEAA?AV?$shared_ptr@V?$basic_string@DU?$char_traits@D@std@@V?$allocator@D@2@@std@@@std@@KV23@0@Z@4HA 0000000180059ef8 f   pkcs11.obj
 0001:00058f05       __catch$?C_Decrypt@PKCS11@@QEAA?AV?$shared_ptr@V?$basic_string@DU?$char_traits@D@std@@V?$allocator@D@2@@std@@@std@@KV23@0@Z$0 0000000180059f05 f   pkcs11.obj
 0001:00058f33       ?dtor$5@?0??C_Decrypt@PKCS11@@QEAA?AV?$shared_ptr@V?$basic_string@DU?$char_traits@D@std@@V?$allocator@D@2@@std@@@std@@KV23@0@Z@4HA 0000000180059f33 f   pkcs11.obj
 0001:00058f3f       ?catch$11@?0??C_Decrypt@PKCS11@@QEAA?AV?$shared_ptr@V?$basic_string@DU?$char_traits@D@std@@V?$allocator@D@2@@std@@@std@@KV23@0@Z@4HA 0000000180059f3f f   pkcs11.obj
